
test_functions_works_well.elf:	file format elf32-littleriscv

Disassembly of section .text_fdm_start:

00100000 <_fdm_start>:
  100000: 13 03 80 06  	li	t1, 104
  100004: b7 e2 00 00  	lui	t0, 14
  100008: 93 82 22 05  	addi	t0, t0, 82
  10000c: 23 90 62 00  	sh	t1, 0(t0)
  100010: 17 81 f1 ff  	auipc	sp, 1048344
  100014: 13 01 01 00  	mv	sp, sp
  100018: 6f 00 40 00  	j	0x10001c <_sc_start>

0010001c <_sc_start>:
  10001c: 97 11 f1 ff  	auipc	gp, 1048337
  100020: 93 81 41 9b  	addi	gp, gp, -1612
  100024: 17 c5 00 00  	auipc	a0, 12
  100028: 13 05 e5 85  	addi	a0, a0, -1954
  10002c: 17 c6 00 00  	auipc	a2, 12
  100030: 13 06 86 99  	addi	a2, a2, -1640
  100034: 33 06 a6 40  	sub	a2, a2, a0
  100038: 93 05 00 00  	li	a1, 0
  10003c: ef 30 90 47  	jal	0x103cb4 <memset>
  100040: 17 45 00 00  	auipc	a0, 4
  100044: 13 05 45 c1  	addi	a0, a0, -1004
  100048: 63 04 05 00  	beqz	a0, 0x100050 <_sc_start+0x34>
  10004c: ef 00 50 56  	jal	0x100db0 <atexit>
  100050: ef 30 f0 39  	jal	0x103bee <__libc_init_array>
  100054: 03 25 01 00  	lw	a0, 0(sp)
  100058: 93 05 41 00  	addi	a1, sp, 4
  10005c: 13 06 00 00  	li	a2, 0
  100060: 13 03 80 02  	li	t1, 40
  100064: b7 e2 00 00  	lui	t0, 14
  100068: 93 82 22 05  	addi	t0, t0, 82
  10006c: 23 90 62 00  	sh	t1, 0(t0)
  100070: 13 03 50 05  	li	t1, 85
  100074: b7 e2 00 00  	lui	t0, 14
  100078: 93 82 a2 04  	addi	t0, t0, 74
  10007c: 23 90 62 00  	sh	t1, 0(t0)
  100080: 13 03 a0 0a  	li	t1, 170
  100084: b7 e2 00 00  	lui	t0, 14
  100088: 93 82 a2 04  	addi	t0, t0, 74
  10008c: 23 90 62 00  	sh	t1, 0(t0)
  100090: ef 00 80 1e  	jal	0x100278 <main>
  100094: 6f 00 c0 0b  	j	0x100150 <exit>

Disassembly of section .text:

00100150 <exit>:
  100150: 41 11        	addi	sp, sp, -16
  100152: b7 47 10 00  	lui	a5, 260
  100156: 22 c4        	sw	s0, 8(sp)
  100158: 06 c6        	sw	ra, 12(sp)
  10015a: 93 87 e7 d8  	addi	a5, a5, -626
  10015e: 2a 84        	mv	s0, a0
  100160: 81 c7        	beqz	a5, 0x100168 <exit+0x18>
  100162: 81 45        	li	a1, 0
  100164: ef 30 b0 42  	jal	0x103d8e <__call_exitprocs>
  100168: 03 a5 01 89  	lw	a0, -1904(gp)
  10016c: 1c 55        	lw	a5, 40(a0)
  10016e: 91 c3        	beqz	a5, 0x100172 <exit+0x22>
  100170: 82 97        	jalr	a5
  100172: 22 85        	mv	a0, s0
  100174: ef 80 c0 5d  	jal	0x108750 <_exit>

00100178 <init_semihosting>:
  100178: 41 11        	addi	sp, sp, -16
  10017a: b7 c7 10 00  	lui	a5, 268
  10017e: 22 c4        	sw	s0, 8(sp)
  100180: 13 84 47 94  	addi	s0, a5, -1724
  100184: 06 c6        	sw	ra, 12(sp)
  100186: 26 c2        	sw	s1, 4(sp)
  100188: 93 87 47 94  	addi	a5, a5, -1724
  10018c: 93 06 04 08  	addi	a3, s0, 128
  100190: 7d 57        	li	a4, -1
  100192: 98 c3        	sw	a4, 0(a5)
  100194: a1 07        	addi	a5, a5, 8
  100196: e3 9e d7 fe  	bne	a5, a3, 0x100192 <init_semihosting+0x1a>
  10019a: 81 45        	li	a1, 0
  10019c: 13 85 01 12  	addi	a0, gp, 288
  1001a0: ef 80 10 01  	jal	0x1089b0 <_open>
  1001a4: aa 87        	mv	a5, a0
  1001a6: 93 05 10 60  	li	a1, 1537
  1001aa: 13 85 01 12  	addi	a0, gp, 288
  1001ae: 1c c0        	sw	a5, 0(s0)
  1001b0: 23 22 04 00  	sw	zero, 4(s0)
  1001b4: ef 80 c0 7f  	jal	0x1089b0 <_open>
  1001b8: aa 87        	mv	a5, a0
  1001ba: 93 05 90 20  	li	a1, 521
  1001be: 13 85 01 12  	addi	a0, gp, 288
  1001c2: 1c c4        	sw	a5, 8(s0)
  1001c4: 23 26 04 00  	sw	zero, 12(s0)
  1001c8: ef 80 80 7e  	jal	0x1089b0 <_open>
  1001cc: b2 40        	lw	ra, 12(sp)
  1001ce: 08 c8        	sw	a0, 16(s0)
  1001d0: 23 2a 04 00  	sw	zero, 20(s0)
  1001d4: 22 44        	lw	s0, 8(sp)
  1001d6: 92 44        	lw	s1, 4(sp)
  1001d8: 41 01        	addi	sp, sp, 16
  1001da: 82 80        	ret

001001dc <_start>:
  1001dc: 97 01 f1 ff  	auipc	gp, 1048336
  1001e0: 93 81 41 7f  	addi	gp, gp, 2036
  1001e4: 17 b5 00 00  	auipc	a0, 11
  1001e8: 13 05 e5 69  	addi	a0, a0, 1694
  1001ec: 17 b6 00 00  	auipc	a2, 11
  1001f0: 13 06 86 7e  	addi	a2, a2, 2024
  1001f4: 09 8e        	sub	a2, a2, a0
  1001f6: 81 45        	li	a1, 0
  1001f8: ef 30 d0 2b  	jal	0x103cb4 <memset>
  1001fc: 17 15 00 00  	auipc	a0, 1
  100200: 13 05 45 bb  	addi	a0, a0, -1100
  100204: 19 c5        	beqz	a0, 0x100212 <_start+0x36>
  100206: 17 45 00 00  	auipc	a0, 4
  10020a: 13 05 e5 a4  	addi	a0, a0, -1458
  10020e: ef 00 30 3a  	jal	0x100db0 <atexit>
  100212: ef 30 d0 1d  	jal	0x103bee <__libc_init_array>
  100216: 02 45        	lw	a0, 0(sp)
  100218: 4c 00        	addi	a1, sp, 4
  10021a: 01 46        	li	a2, 0
  10021c: b1 28        	jal	0x100278 <main>
  10021e: 0d bf        	j	0x100150 <exit>

00100220 <__do_global_dtors_aux>:
  100220: b7 c7 10 00  	lui	a5, 268
  100224: 03 c7 c7 89  	lbu	a4, -1892(a5)
  100228: 1d e7        	bnez	a4, 0x100256 <__do_global_dtors_aux+0x36>
  10022a: 41 11        	addi	sp, sp, -16
  10022c: 22 c4        	sw	s0, 8(sp)
  10022e: 3e 84        	mv	s0, a5
  100230: 06 c6        	sw	ra, 12(sp)
  100232: 93 07 00 00  	li	a5, 0
  100236: 89 cb        	beqz	a5, 0x100248 <__do_global_dtors_aux+0x28>
  100238: 37 c5 10 00  	lui	a0, 268
  10023c: 13 05 05 9d  	addi	a0, a0, -1584
  100240: 97 00 00 00  	auipc	ra, 0
  100244: e7 00 00 00  	jalr	zero
  100248: 85 47        	li	a5, 1
  10024a: b2 40        	lw	ra, 12(sp)
  10024c: 23 0e f4 88  	sb	a5, -1892(s0)
  100250: 22 44        	lw	s0, 8(sp)
  100252: 41 01        	addi	sp, sp, 16
  100254: 82 80        	ret
  100256: 82 80        	ret

00100258 <frame_dummy>:
  100258: 93 07 00 00  	li	a5, 0
  10025c: 89 cf        	beqz	a5, 0x100276 <frame_dummy+0x1e>
  10025e: b7 c5 10 00  	lui	a1, 268
  100262: 37 c5 10 00  	lui	a0, 268
  100266: 93 85 05 8a  	addi	a1, a1, -1888
  10026a: 13 05 05 9d  	addi	a0, a0, -1584
  10026e: 17 03 00 00  	auipc	t1, 0
  100272: 67 00 00 00  	jr	zero
  100276: 82 80        	ret

00100278 <main>:
  100278: 01 11        	addi	sp, sp, -32
  10027a: 06 ce        	sw	ra, 28(sp)
  10027c: 22 cc        	sw	s0, 24(sp)
  10027e: 00 10        	addi	s0, sp, 32
  100280: 01 45        	li	a0, 0
  100282: 23 26 a4 fe  	sw	a0, -20(s0)
  100286: 23 2a a4 fe  	sw	a0, -12(s0)
  10028a: 23 28 a4 fe  	sw	a0, -16(s0)
  10028e: ef 00 b0 15  	jal	0x100be8 <test_stdlib>
  100292: 83 25 c4 fe  	lw	a1, -20(s0)
  100296: 2a 86        	mv	a2, a0
  100298: 03 25 04 ff  	lw	a0, -16(s0)
  10029c: 32 95        	add	a0, a0, a2
  10029e: 23 28 a4 fe  	sw	a0, -16(s0)
  1002a2: 03 25 04 ff  	lw	a0, -16(s0)
  1002a6: 63 1c b5 00  	bne	a0, a1, 0x1002be <main+0x46>
  1002aa: 6f 00 40 00  	j	0x1002ae <main+0x36>
  1002ae: 17 05 f1 ff  	auipc	a0, 1048336
  1002b2: 13 05 25 fd  	addi	a0, a0, -46
  1002b6: ef 20 50 53  	jal	0x102fea <printf>
  1002ba: 6f 00 80 01  	j	0x1002d2 <main+0x5a>
  1002be: 83 25 04 ff  	lw	a1, -16(s0)
  1002c2: 17 05 f1 ff  	auipc	a0, 1048336
  1002c6: 13 05 a5 fc  	addi	a0, a0, -54
  1002ca: ef 20 10 52  	jal	0x102fea <printf>
  1002ce: 6f 00 40 00  	j	0x1002d2 <main+0x5a>
  1002d2: 01 45        	li	a0, 0
  1002d4: f2 40        	lw	ra, 28(sp)
  1002d6: 62 44        	lw	s0, 24(sp)
  1002d8: 05 61        	addi	sp, sp, 32
  1002da: 82 80        	ret

001002dc <test_vprintf>:
  1002dc: 39 71        	addi	sp, sp, -64
  1002de: 06 ce        	sw	ra, 28(sp)
  1002e0: 22 cc        	sw	s0, 24(sp)
  1002e2: 00 10        	addi	s0, sp, 32
  1002e4: 23 2e 14 01  	sw	a7, 28(s0)
  1002e8: 23 2c 04 01  	sw	a6, 24(s0)
  1002ec: 5c c8        	sw	a5, 20(s0)
  1002ee: 18 c8        	sw	a4, 16(s0)
  1002f0: 54 c4        	sw	a3, 12(s0)
  1002f2: 10 c4        	sw	a2, 8(s0)
  1002f4: 4c c0        	sw	a1, 4(s0)
  1002f6: 23 2a a4 fe  	sw	a0, -12(s0)
  1002fa: 13 05 44 00  	addi	a0, s0, 4
  1002fe: 23 28 a4 fe  	sw	a0, -16(s0)
  100302: 03 25 44 ff  	lw	a0, -12(s0)
  100306: 83 25 04 ff  	lw	a1, -16(s0)
  10030a: ef 30 40 2e  	jal	0x1035ee <vprintf>
  10030e: 23 26 a4 fe  	sw	a0, -20(s0)
  100312: 03 25 c4 fe  	lw	a0, -20(s0)
  100316: f2 40        	lw	ra, 28(sp)
  100318: 62 44        	lw	s0, 24(sp)
  10031a: 21 61        	addi	sp, sp, 64
  10031c: 82 80        	ret

0010031e <test_vsprintf>:
  10031e: 79 71        	addi	sp, sp, -48
  100320: 06 ca        	sw	ra, 20(sp)
  100322: 22 c8        	sw	s0, 16(sp)
  100324: 20 08        	addi	s0, sp, 24
  100326: 23 2a 14 01  	sw	a7, 20(s0)
  10032a: 23 28 04 01  	sw	a6, 16(s0)
  10032e: 5c c4        	sw	a5, 12(s0)
  100330: 18 c4        	sw	a4, 8(s0)
  100332: 54 c0        	sw	a3, 4(s0)
  100334: 10 c0        	sw	a2, 0(s0)
  100336: 23 2a a4 fe  	sw	a0, -12(s0)
  10033a: 23 28 b4 fe  	sw	a1, -16(s0)
  10033e: 22 85        	mv	a0, s0
  100340: 23 26 a4 fe  	sw	a0, -20(s0)
  100344: 03 25 44 ff  	lw	a0, -12(s0)
  100348: 83 25 04 ff  	lw	a1, -16(s0)
  10034c: 03 26 c4 fe  	lw	a2, -20(s0)
  100350: ef 30 a0 32  	jal	0x10367a <vsprintf>
  100354: 23 24 a4 fe  	sw	a0, -24(s0)
  100358: 03 25 84 fe  	lw	a0, -24(s0)
  10035c: d2 40        	lw	ra, 20(sp)
  10035e: 42 44        	lw	s0, 16(sp)
  100360: 45 61        	addi	sp, sp, 48
  100362: 82 80        	ret

00100364 <test_vfprintf>:
  100364: 79 71        	addi	sp, sp, -48
  100366: 06 ca        	sw	ra, 20(sp)
  100368: 22 c8        	sw	s0, 16(sp)
  10036a: 20 08        	addi	s0, sp, 24
  10036c: 23 2a 14 01  	sw	a7, 20(s0)
  100370: 23 28 04 01  	sw	a6, 16(s0)
  100374: 5c c4        	sw	a5, 12(s0)
  100376: 18 c4        	sw	a4, 8(s0)
  100378: 54 c0        	sw	a3, 4(s0)
  10037a: 10 c0        	sw	a2, 0(s0)
  10037c: 23 2a a4 fe  	sw	a0, -12(s0)
  100380: 23 28 b4 fe  	sw	a1, -16(s0)
  100384: 22 85        	mv	a0, s0
  100386: 23 26 a4 fe  	sw	a0, -20(s0)
  10038a: 03 25 44 ff  	lw	a0, -12(s0)
  10038e: 83 25 04 ff  	lw	a1, -16(s0)
  100392: 03 26 c4 fe  	lw	a2, -20(s0)
  100396: ef 10 60 5d  	jal	0x10196c <vfprintf>
  10039a: 23 24 a4 fe  	sw	a0, -24(s0)
  10039e: 03 25 84 fe  	lw	a0, -24(s0)
  1003a2: d2 40        	lw	ra, 20(sp)
  1003a4: 42 44        	lw	s0, 16(sp)
  1003a6: 45 61        	addi	sp, sp, 48
  1003a8: 82 80        	ret

001003aa <test_output_no_file>:
  1003aa: 31 71        	addi	sp, sp, -192
  1003ac: 06 df        	sw	ra, 188(sp)
  1003ae: 22 dd        	sw	s0, 184(sp)
  1003b0: 80 01        	addi	s0, sp, 192
  1003b2: 01 45        	li	a0, 0
  1003b4: 23 28 a4 f4  	sw	a0, -176(s0)
  1003b8: 23 2a a4 fe  	sw	a0, -12(s0)
  1003bc: 7d 55        	li	a0, -1
  1003be: 23 28 a4 fe  	sw	a0, -16(s0)
  1003c2: 13 05 20 4d  	li	a0, 1234
  1003c6: 23 26 a4 fe  	sw	a0, -20(s0)
  1003ca: 83 25 c4 fe  	lw	a1, -20(s0)
  1003ce: 17 05 f1 ff  	auipc	a0, 1048336
  1003d2: 13 05 a5 ed  	addi	a0, a0, -294
  1003d6: 97 06 f1 ff  	auipc	a3, 1048336
  1003da: 93 86 e6 f1  	addi	a3, a3, -226
  1003de: 37 66 66 66  	lui	a2, 419430
  1003e2: 13 07 66 66  	addi	a4, a2, 1638
  1003e6: 37 c6 40 40  	lui	a2, 263180
  1003ea: 93 07 66 66  	addi	a5, a2, 1638
  1003ee: 13 06 30 06  	li	a2, 99
  1003f2: 13 08 30 12  	li	a6, 291
  1003f6: 93 08 c4 fe  	addi	a7, s0, -20
  1003fa: ef 20 10 3f  	jal	0x102fea <printf>
  1003fe: 83 25 04 f5  	lw	a1, -176(s0)
  100402: 23 28 a4 fe  	sw	a0, -16(s0)
  100406: 03 25 04 ff  	lw	a0, -16(s0)
  10040a: 63 59 b5 00  	bge	a0, a1, 0x10041c <test_output_no_file+0x72>
  10040e: 6f 00 40 00  	j	0x100412 <test_output_no_file+0x68>
  100412: 05 45        	li	a0, 1
  100414: 23 2a a4 fe  	sw	a0, -12(s0)
  100418: 6f 00 40 00  	j	0x10041c <test_output_no_file+0x72>
  10041c: 03 26 c4 fe  	lw	a2, -20(s0)
  100420: 8a 85        	mv	a1, sp
  100422: 13 05 c4 fe  	addi	a0, s0, -20
  100426: c8 c1        	sw	a0, 4(a1)
  100428: 13 05 30 12  	li	a0, 291
  10042c: 88 c1        	sw	a0, 0(a1)
  10042e: 97 05 f1 ff  	auipc	a1, 1048336
  100432: 93 85 a5 e7  	addi	a1, a1, -390
  100436: 17 07 f1 ff  	auipc	a4, 1048336
  10043a: 13 07 e7 eb  	addi	a4, a4, -322
  10043e: 37 65 66 66  	lui	a0, 419430
  100442: 13 08 65 66  	addi	a6, a0, 1638
  100446: 37 c5 40 40  	lui	a0, 263180
  10044a: 93 08 65 66  	addi	a7, a0, 1638
  10044e: 13 05 64 f5  	addi	a0, s0, -170
  100452: 93 06 30 06  	li	a3, 99
  100456: ef 20 f0 7e  	jal	0x103444 <sprintf>
  10045a: 23 28 a4 fe  	sw	a0, -16(s0)
  10045e: 83 25 04 ff  	lw	a1, -16(s0)
  100462: 01 45        	li	a0, 0
  100464: 63 49 b5 00  	blt	a0, a1, 0x100476 <test_output_no_file+0xcc>
  100468: 6f 00 40 00  	j	0x10046c <test_output_no_file+0xc2>
  10046c: 09 45        	li	a0, 2
  10046e: 23 2a a4 fe  	sw	a0, -12(s0)
  100472: 6f 00 40 00  	j	0x100476 <test_output_no_file+0xcc>
  100476: 17 05 f1 ff  	auipc	a0, 1048336
  10047a: 13 05 25 e8  	addi	a0, a0, -382
  10047e: 93 05 64 f5  	addi	a1, s0, -170
  100482: ef 20 90 36  	jal	0x102fea <printf>
  100486: 83 25 c4 fe  	lw	a1, -20(s0)
  10048a: 17 05 f1 ff  	auipc	a0, 1048336
  10048e: 13 05 e5 e1  	addi	a0, a0, -482
  100492: 97 06 f1 ff  	auipc	a3, 1048336
  100496: 93 86 26 e6  	addi	a3, a3, -414
  10049a: 37 66 66 66  	lui	a2, 419430
  10049e: 13 07 66 66  	addi	a4, a2, 1638
  1004a2: 37 c6 40 40  	lui	a2, 263180
  1004a6: 93 07 66 66  	addi	a5, a2, 1638
  1004aa: 13 06 30 06  	li	a2, 99
  1004ae: 13 08 30 12  	li	a6, 291
  1004b2: 93 08 c4 fe  	addi	a7, s0, -20
  1004b6: 1d 35        	jal	0x1002dc <test_vprintf>
  1004b8: 23 28 a4 fe  	sw	a0, -16(s0)
  1004bc: 83 25 04 ff  	lw	a1, -16(s0)
  1004c0: 01 45        	li	a0, 0
  1004c2: 63 49 b5 00  	blt	a0, a1, 0x1004d4 <test_output_no_file+0x12a>
  1004c6: 6f 00 40 00  	j	0x1004ca <test_output_no_file+0x120>
  1004ca: 0d 45        	li	a0, 3
  1004cc: 23 2a a4 fe  	sw	a0, -12(s0)
  1004d0: 6f 00 40 00  	j	0x1004d4 <test_output_no_file+0x12a>
  1004d4: 03 26 c4 fe  	lw	a2, -20(s0)
  1004d8: 8a 85        	mv	a1, sp
  1004da: 13 05 c4 fe  	addi	a0, s0, -20
  1004de: c8 c1        	sw	a0, 4(a1)
  1004e0: 13 05 30 12  	li	a0, 291
  1004e4: 88 c1        	sw	a0, 0(a1)
  1004e6: 97 05 f1 ff  	auipc	a1, 1048336
  1004ea: 93 85 25 dc  	addi	a1, a1, -574
  1004ee: 17 07 f1 ff  	auipc	a4, 1048336
  1004f2: 13 07 67 e0  	addi	a4, a4, -506
  1004f6: 37 65 66 66  	lui	a0, 419430
  1004fa: 13 08 65 66  	addi	a6, a0, 1638
  1004fe: 37 c5 40 40  	lui	a0, 263180
  100502: 93 08 65 66  	addi	a7, a0, 1638
  100506: 13 05 64 f5  	addi	a0, s0, -170
  10050a: 93 06 30 06  	li	a3, 99
  10050e: 01 3d        	jal	0x10031e <test_vsprintf>
  100510: 23 28 a4 fe  	sw	a0, -16(s0)
  100514: 83 25 04 ff  	lw	a1, -16(s0)
  100518: 01 45        	li	a0, 0
  10051a: 63 49 b5 00  	blt	a0, a1, 0x10052c <test_output_no_file+0x182>
  10051e: 6f 00 40 00  	j	0x100522 <test_output_no_file+0x178>
  100522: 11 45        	li	a0, 4
  100524: 23 2a a4 fe  	sw	a0, -12(s0)
  100528: 6f 00 40 00  	j	0x10052c <test_output_no_file+0x182>
  10052c: 17 05 f1 ff  	auipc	a0, 1048336
  100530: 13 05 15 de  	addi	a0, a0, -543
  100534: 93 05 64 f5  	addi	a1, s0, -170
  100538: ef 20 30 2b  	jal	0x102fea <printf>
  10053c: 13 05 10 06  	li	a0, 97
  100540: 23 26 a4 f4  	sw	a0, -180(s0)
  100544: ef 20 70 38  	jal	0x1030ca <putchar>
  100548: 83 25 c4 f4  	lw	a1, -180(s0)
  10054c: 23 28 a4 fe  	sw	a0, -16(s0)
  100550: 03 25 04 ff  	lw	a0, -16(s0)
  100554: 63 09 b5 00  	beq	a0, a1, 0x100566 <test_output_no_file+0x1bc>
  100558: 6f 00 40 00  	j	0x10055c <test_output_no_file+0x1b2>
  10055c: 15 45        	li	a0, 5
  10055e: 23 2a a4 fe  	sw	a0, -12(s0)
  100562: 6f 00 40 00  	j	0x100566 <test_output_no_file+0x1bc>
  100566: 29 45        	li	a0, 10
  100568: ef 20 30 36  	jal	0x1030ca <putchar>
  10056c: 17 05 f1 ff  	auipc	a0, 1048336
  100570: 13 05 75 db  	addi	a0, a0, -585
  100574: ef 20 10 45  	jal	0x1031c4 <puts>
  100578: 23 28 a4 fe  	sw	a0, -16(s0)
  10057c: 03 25 04 ff  	lw	a0, -16(s0)
  100580: 81 45        	li	a1, 0
  100582: 63 59 b5 00  	bge	a0, a1, 0x100594 <test_output_no_file+0x1ea>
  100586: 6f 00 40 00  	j	0x10058a <test_output_no_file+0x1e0>
  10058a: 19 45        	li	a0, 6
  10058c: 23 2a a4 fe  	sw	a0, -12(s0)
  100590: 6f 00 40 00  	j	0x100594 <test_output_no_file+0x1ea>
  100594: 03 25 44 ff  	lw	a0, -12(s0)
  100598: fa 50        	lw	ra, 188(sp)
  10059a: 6a 54        	lw	s0, 184(sp)
  10059c: 29 61        	addi	sp, sp, 192
  10059e: 82 80        	ret

001005a0 <test_input_no_file>:
  1005a0: 5d 71        	addi	sp, sp, -80
  1005a2: 86 c6        	sw	ra, 76(sp)
  1005a4: a2 c4        	sw	s0, 72(sp)
  1005a6: 80 08        	addi	s0, sp, 80
  1005a8: 01 45        	li	a0, 0
  1005aa: 23 2a a4 fe  	sw	a0, -12(s0)
  1005ae: 23 28 a4 fe  	sw	a0, -16(s0)
  1005b2: 23 26 a4 fe  	sw	a0, -20(s0)
  1005b6: a3 05 a4 fe  	sb	a0, -21(s0)
  1005ba: 23 22 a4 fe  	sw	a0, -28(s0)
  1005be: 17 05 f1 ff  	auipc	a0, 1048336
  1005c2: 13 05 05 d7  	addi	a0, a0, -656
  1005c6: 93 05 c4 fe  	addi	a1, s0, -20
  1005ca: 13 06 b4 fe  	addi	a2, s0, -21
  1005ce: 93 06 44 fe  	addi	a3, s0, -28
  1005d2: ef 20 10 5c  	jal	0x103392 <scanf>
  1005d6: 23 2a a4 fe  	sw	a0, -12(s0)
  1005da: 13 85 41 8a  	addi	a0, gp, -1884
  1005de: 08 41        	lw	a0, 0(a0)
  1005e0: 48 41        	lw	a0, 4(a0)
  1005e2: ef 10 90 5a  	jal	0x10238a <fflush>
  1005e6: 03 25 44 ff  	lw	a0, -12(s0)
  1005ea: 8d 45        	li	a1, 3
  1005ec: 63 09 b5 00  	beq	a0, a1, 0x1005fe <test_input_no_file+0x5e>
  1005f0: 6f 00 40 00  	j	0x1005f4 <test_input_no_file+0x54>
  1005f4: 05 45        	li	a0, 1
  1005f6: 23 28 a4 fe  	sw	a0, -16(s0)
  1005fa: 6f 00 40 00  	j	0x1005fe <test_input_no_file+0x5e>
  1005fe: 03 25 c4 fe  	lw	a0, -20(s0)
  100602: 93 05 b0 07  	li	a1, 123
  100606: 63 19 b5 02  	bne	a0, a1, 0x100638 <test_input_no_file+0x98>
  10060a: 6f 00 40 00  	j	0x10060e <test_input_no_file+0x6e>
  10060e: 03 45 b4 fe  	lbu	a0, -21(s0)
  100612: 93 05 10 06  	li	a1, 97
  100616: 63 11 b5 02  	bne	a0, a1, 0x100638 <test_input_no_file+0x98>
  10061a: 6f 00 40 00  	j	0x10061e <test_input_no_file+0x7e>
  10061e: 07 20 44 fe  	flw	ft0, -28(s0)
  100622: 13 85 81 89  	addi	a0, gp, -1896
  100626: 87 20 05 00  	flw	ft1, 0(a0)
  10062a: 53 25 10 a0  	feq.s	a0, ft0, ft1
  10062e: 81 45        	li	a1, 0
  100630: 63 19 b5 00  	bne	a0, a1, 0x100642 <test_input_no_file+0xa2>
  100634: 6f 00 40 00  	j	0x100638 <test_input_no_file+0x98>
  100638: 09 45        	li	a0, 2
  10063a: 23 28 a4 fe  	sw	a0, -16(s0)
  10063e: 6f 00 40 00  	j	0x100642 <test_input_no_file+0xa2>
  100642: 17 05 f1 ff  	auipc	a0, 1048336
  100646: 13 05 75 cf  	addi	a0, a0, -777
  10064a: 97 05 f1 ff  	auipc	a1, 1048336
  10064e: 93 85 45 ce  	addi	a1, a1, -796
  100652: 13 06 c4 fe  	addi	a2, s0, -20
  100656: 93 06 b4 fe  	addi	a3, s0, -21
  10065a: 13 07 44 fe  	addi	a4, s0, -28
  10065e: ef 20 b0 62  	jal	0x103488 <sscanf>
  100662: 23 2a a4 fe  	sw	a0, -12(s0)
  100666: 03 25 44 ff  	lw	a0, -12(s0)
  10066a: 8d 45        	li	a1, 3
  10066c: 63 09 b5 00  	beq	a0, a1, 0x10067e <test_input_no_file+0xde>
  100670: 6f 00 40 00  	j	0x100674 <test_input_no_file+0xd4>
  100674: 0d 45        	li	a0, 3
  100676: 23 28 a4 fe  	sw	a0, -16(s0)
  10067a: 6f 00 40 00  	j	0x10067e <test_input_no_file+0xde>
  10067e: 03 25 c4 fe  	lw	a0, -20(s0)
  100682: 93 05 80 1c  	li	a1, 456
  100686: 63 19 b5 02  	bne	a0, a1, 0x1006b8 <test_input_no_file+0x118>
  10068a: 6f 00 40 00  	j	0x10068e <test_input_no_file+0xee>
  10068e: 03 45 b4 fe  	lbu	a0, -21(s0)
  100692: 93 05 20 06  	li	a1, 98
  100696: 63 11 b5 02  	bne	a0, a1, 0x1006b8 <test_input_no_file+0x118>
  10069a: 6f 00 40 00  	j	0x10069e <test_input_no_file+0xfe>
  10069e: 07 20 44 fe  	flw	ft0, -28(s0)
  1006a2: 13 85 c1 89  	addi	a0, gp, -1892
  1006a6: 87 20 05 00  	flw	ft1, 0(a0)
  1006aa: 53 25 10 a0  	feq.s	a0, ft0, ft1
  1006ae: 81 45        	li	a1, 0
  1006b0: 63 19 b5 00  	bne	a0, a1, 0x1006c2 <test_input_no_file+0x122>
  1006b4: 6f 00 40 00  	j	0x1006b8 <test_input_no_file+0x118>
  1006b8: 11 45        	li	a0, 4
  1006ba: 23 28 a4 fe  	sw	a0, -16(s0)
  1006be: 6f 00 40 00  	j	0x1006c2 <test_input_no_file+0x122>
  1006c2: ef 20 50 02  	jal	0x102ee6 <getchar>
  1006c6: 23 2a a4 fe  	sw	a0, -12(s0)
  1006ca: 13 85 41 8a  	addi	a0, gp, -1884
  1006ce: 08 41        	lw	a0, 0(a0)
  1006d0: 48 41        	lw	a0, 4(a0)
  1006d2: ef 10 90 4b  	jal	0x10238a <fflush>
  1006d6: 03 25 44 ff  	lw	a0, -12(s0)
  1006da: 93 05 40 06  	li	a1, 100
  1006de: 63 09 b5 00  	beq	a0, a1, 0x1006f0 <test_input_no_file+0x150>
  1006e2: 6f 00 40 00  	j	0x1006e6 <test_input_no_file+0x146>
  1006e6: 15 45        	li	a0, 5
  1006e8: 23 28 a4 fe  	sw	a0, -16(s0)
  1006ec: 6f 00 40 00  	j	0x1006f0 <test_input_no_file+0x150>
  1006f0: 13 05 64 fc  	addi	a0, s0, -58
  1006f4: 23 2e a4 fa  	sw	a0, -68(s0)
  1006f8: ef 20 10 0b  	jal	0x102fa8 <gets>
  1006fc: 23 20 a4 fc  	sw	a0, -64(s0)
  100700: 13 85 41 8a  	addi	a0, gp, -1884
  100704: 08 41        	lw	a0, 0(a0)
  100706: 48 41        	lw	a0, 4(a0)
  100708: ef 10 30 48  	jal	0x10238a <fflush>
  10070c: 03 25 c4 fb  	lw	a0, -68(s0)
  100710: 97 05 f1 ff  	auipc	a1, 1048336
  100714: 93 85 65 c3  	addi	a1, a1, -970
  100718: ef 30 40 5d  	jal	0x103cec <strcmp>
  10071c: 81 45        	li	a1, 0
  10071e: 63 09 b5 00  	beq	a0, a1, 0x100730 <test_input_no_file+0x190>
  100722: 6f 00 40 00  	j	0x100726 <test_input_no_file+0x186>
  100726: 19 45        	li	a0, 6
  100728: 23 28 a4 fe  	sw	a0, -16(s0)
  10072c: 6f 00 40 00  	j	0x100730 <test_input_no_file+0x190>
  100730: 03 25 04 ff  	lw	a0, -16(s0)
  100734: b6 40        	lw	ra, 76(sp)
  100736: 26 44        	lw	s0, 72(sp)
  100738: 61 61        	addi	sp, sp, 80
  10073a: 82 80        	ret

0010073c <test_output_file>:
  10073c: 39 71        	addi	sp, sp, -64
  10073e: 06 de        	sw	ra, 60(sp)
  100740: 22 dc        	sw	s0, 56(sp)
  100742: 80 00        	addi	s0, sp, 64
  100744: 01 45        	li	a0, 0
  100746: 23 26 a4 fc  	sw	a0, -52(s0)
  10074a: 23 2a a4 fe  	sw	a0, -12(s0)
  10074e: 23 28 a4 fe  	sw	a0, -16(s0)
  100752: 17 05 f1 ff  	auipc	a0, 1048336
  100756: 13 05 c5 bf  	addi	a0, a0, -1028
  10075a: 97 05 f1 ff  	auipc	a1, 1048336
  10075e: 93 85 35 c0  	addi	a1, a1, -1021
  100762: ef 10 90 7d  	jal	0x10273a <fopen>
  100766: 83 25 c4 fc  	lw	a1, -52(s0)
  10076a: 23 26 a4 fe  	sw	a0, -20(s0)
  10076e: 03 25 c4 fe  	lw	a0, -20(s0)
  100772: 63 19 b5 00  	bne	a0, a1, 0x100784 <test_output_file+0x48>
  100776: 6f 00 40 00  	j	0x10077a <test_output_file+0x3e>
  10077a: 05 45        	li	a0, 1
  10077c: 23 2a a4 fe  	sw	a0, -12(s0)
  100780: 6f 00 40 00  	j	0x100784 <test_output_file+0x48>
  100784: 01 45        	li	a0, 0
  100786: 23 04 a4 fe  	sb	a0, -24(s0)
  10078a: 37 35 2e 0a  	lui	a0, 41699
  10078e: 13 05 05 12  	addi	a0, a0, 288
  100792: 23 22 a4 fe  	sw	a0, -28(s0)
  100796: 37 75 6e 65  	lui	a0, 415463
  10079a: 13 05 c5 96  	addi	a0, a0, -1684
  10079e: 23 20 a4 fe  	sw	a0, -32(s0)
  1007a2: 37 75 73 20  	lui	a0, 132919
  1007a6: 13 05 05 92  	addi	a0, a0, -1760
  1007aa: 23 2e a4 fc  	sw	a0, -36(s0)
  1007ae: 37 75 69 73  	lui	a0, 472727
  1007b2: 13 05 45 85  	addi	a0, a0, -1964
  1007b6: 23 2c a4 fc  	sw	a0, -40(s0)
  1007ba: 45 45        	li	a0, 17
  1007bc: 23 2a a4 fc  	sw	a0, -44(s0)
  1007c0: 03 26 44 fd  	lw	a2, -44(s0)
  1007c4: 83 26 c4 fe  	lw	a3, -20(s0)
  1007c8: 13 05 84 fd  	addi	a0, s0, -40
  1007cc: 85 45        	li	a1, 1
  1007ce: ef 20 20 5f  	jal	0x102dc0 <fwrite>
  1007d2: 23 28 a4 fc  	sw	a0, -48(s0)
  1007d6: 03 25 04 fd  	lw	a0, -48(s0)
  1007da: 83 25 44 fd  	lw	a1, -44(s0)
  1007de: 63 09 b5 00  	beq	a0, a1, 0x1007f0 <test_output_file+0xb4>
  1007e2: 6f 00 40 00  	j	0x1007e6 <test_output_file+0xaa>
  1007e6: 09 45        	li	a0, 2
  1007e8: 23 2a a4 fe  	sw	a0, -12(s0)
  1007ec: 6f 00 40 00  	j	0x1007f0 <test_output_file+0xb4>
  1007f0: 03 25 c4 fe  	lw	a0, -20(s0)
  1007f4: 97 05 f1 ff  	auipc	a1, 1048336
  1007f8: 93 85 c5 b7  	addi	a1, a1, -1156
  1007fc: 37 b6 28 40  	lui	a2, 262795
  100800: 93 07 46 e1  	addi	a5, a2, -492
  100804: 13 06 b0 07  	li	a2, 123
  100808: 93 06 30 06  	li	a3, 99
  10080c: 37 07 00 80  	lui	a4, 524288
  100810: ef 10 10 75  	jal	0x102760 <fprintf>
  100814: 23 28 a4 fe  	sw	a0, -16(s0)
  100818: 83 25 04 ff  	lw	a1, -16(s0)
  10081c: 01 45        	li	a0, 0
  10081e: 63 49 b5 00  	blt	a0, a1, 0x100830 <test_output_file+0xf4>
  100822: 6f 00 40 00  	j	0x100826 <test_output_file+0xea>
  100826: 0d 45        	li	a0, 3
  100828: 23 2a a4 fe  	sw	a0, -12(s0)
  10082c: 6f 00 40 00  	j	0x100830 <test_output_file+0xf4>
  100830: 03 25 c4 fe  	lw	a0, -20(s0)
  100834: 97 05 f1 ff  	auipc	a1, 1048336
  100838: 93 85 c5 b5  	addi	a1, a1, -1188
  10083c: 37 b6 28 40  	lui	a2, 262795
  100840: 93 07 46 e1  	addi	a5, a2, -492
  100844: 13 06 b0 07  	li	a2, 123
  100848: 93 06 30 06  	li	a3, 99
  10084c: 37 07 00 80  	lui	a4, 524288
  100850: 11 3e        	jal	0x100364 <test_vfprintf>
  100852: 23 28 a4 fe  	sw	a0, -16(s0)
  100856: 83 25 04 ff  	lw	a1, -16(s0)
  10085a: 01 45        	li	a0, 0
  10085c: 63 49 b5 00  	blt	a0, a1, 0x10086e <test_output_file+0x132>
  100860: 6f 00 40 00  	j	0x100864 <test_output_file+0x128>
  100864: 11 45        	li	a0, 4
  100866: 23 2a a4 fe  	sw	a0, -12(s0)
  10086a: 6f 00 40 00  	j	0x10086e <test_output_file+0x132>
  10086e: 83 25 c4 fe  	lw	a1, -20(s0)
  100872: 13 05 10 04  	li	a0, 65
  100876: 23 24 a4 fc  	sw	a0, -56(s0)
  10087a: ef 10 30 75  	jal	0x1027cc <fputc>
  10087e: 83 25 84 fc  	lw	a1, -56(s0)
  100882: 23 28 a4 fe  	sw	a0, -16(s0)
  100886: 03 25 04 ff  	lw	a0, -16(s0)
  10088a: 63 09 b5 00  	beq	a0, a1, 0x10089c <test_output_file+0x160>
  10088e: 6f 00 40 00  	j	0x100892 <test_output_file+0x156>
  100892: 15 45        	li	a0, 5
  100894: 23 2a a4 fe  	sw	a0, -12(s0)
  100898: 6f 00 40 00  	j	0x10089c <test_output_file+0x160>
  10089c: 83 25 c4 fe  	lw	a1, -20(s0)
  1008a0: 17 05 f1 ff  	auipc	a0, 1048336
  1008a4: 13 05 05 b1  	addi	a0, a0, -1264
  1008a8: ef 10 50 7d  	jal	0x10287c <fputs>
  1008ac: 23 28 a4 fe  	sw	a0, -16(s0)
  1008b0: 03 25 04 ff  	lw	a0, -16(s0)
  1008b4: 81 45        	li	a1, 0
  1008b6: 63 59 b5 00  	bge	a0, a1, 0x1008c8 <test_output_file+0x18c>
  1008ba: 6f 00 40 00  	j	0x1008be <test_output_file+0x182>
  1008be: 19 45        	li	a0, 6
  1008c0: 23 2a a4 fe  	sw	a0, -12(s0)
  1008c4: 6f 00 40 00  	j	0x1008c8 <test_output_file+0x18c>
  1008c8: 83 25 c4 fe  	lw	a1, -20(s0)
  1008cc: 13 05 20 04  	li	a0, 66
  1008d0: 23 22 a4 fc  	sw	a0, -60(s0)
  1008d4: ef 20 a0 7c  	jal	0x10309e <putc>
  1008d8: 83 25 44 fc  	lw	a1, -60(s0)
  1008dc: 23 28 a4 fe  	sw	a0, -16(s0)
  1008e0: 03 25 04 ff  	lw	a0, -16(s0)
  1008e4: 63 09 b5 00  	beq	a0, a1, 0x1008f6 <test_output_file+0x1ba>
  1008e8: 6f 00 40 00  	j	0x1008ec <test_output_file+0x1b0>
  1008ec: 19 45        	li	a0, 6
  1008ee: 23 2a a4 fe  	sw	a0, -12(s0)
  1008f2: 6f 00 40 00  	j	0x1008f6 <test_output_file+0x1ba>
  1008f6: 03 25 c4 fe  	lw	a0, -20(s0)
  1008fa: ef 10 10 29  	jal	0x10238a <fflush>
  1008fe: 23 28 a4 fe  	sw	a0, -16(s0)
  100902: 03 25 04 ff  	lw	a0, -16(s0)
  100906: 81 45        	li	a1, 0
  100908: 63 09 b5 00  	beq	a0, a1, 0x10091a <test_output_file+0x1de>
  10090c: 6f 00 40 00  	j	0x100910 <test_output_file+0x1d4>
  100910: 1d 45        	li	a0, 7
  100912: 23 2a a4 fe  	sw	a0, -12(s0)
  100916: 6f 00 40 00  	j	0x10091a <test_output_file+0x1de>
  10091a: 03 25 c4 fe  	lw	a0, -20(s0)
  10091e: ef 10 50 0c  	jal	0x1021e2 <fclose>
  100922: 23 28 a4 fe  	sw	a0, -16(s0)
  100926: 03 25 04 ff  	lw	a0, -16(s0)
  10092a: 81 45        	li	a1, 0
  10092c: 63 0a b5 00  	beq	a0, a1, 0x100940 <test_output_file+0x204>
  100930: 6f 00 40 00  	j	0x100934 <test_output_file+0x1f8>
  100934: 03 25 04 ff  	lw	a0, -16(s0)
  100938: 23 2a a4 fe  	sw	a0, -12(s0)
  10093c: 6f 00 40 00  	j	0x100940 <test_output_file+0x204>
  100940: 03 25 44 ff  	lw	a0, -12(s0)
  100944: f2 50        	lw	ra, 60(sp)
  100946: 62 54        	lw	s0, 56(sp)
  100948: 21 61        	addi	sp, sp, 64
  10094a: 82 80        	ret

0010094c <test_input_file>:
  10094c: 59 71        	addi	sp, sp, -112
  10094e: 86 d6        	sw	ra, 108(sp)
  100950: a2 d4        	sw	s0, 104(sp)
  100952: 80 18        	addi	s0, sp, 112
  100954: 01 45        	li	a0, 0
  100956: 23 2c a4 f8  	sw	a0, -104(s0)
  10095a: 23 2a a4 fe  	sw	a0, -12(s0)
  10095e: 23 28 a4 fe  	sw	a0, -16(s0)
  100962: 17 05 f1 ff  	auipc	a0, 1048336
  100966: 13 05 c5 9e  	addi	a0, a0, -1556
  10096a: 97 05 f1 ff  	auipc	a1, 1048336
  10096e: 93 85 c5 98  	addi	a1, a1, -1652
  100972: ef 10 90 5c  	jal	0x10273a <fopen>
  100976: 83 25 84 f9  	lw	a1, -104(s0)
  10097a: 23 26 a4 fe  	sw	a0, -20(s0)
  10097e: 03 25 c4 fe  	lw	a0, -20(s0)
  100982: 63 19 b5 00  	bne	a0, a1, 0x100994 <test_input_file+0x48>
  100986: 6f 00 40 00  	j	0x10098a <test_input_file+0x3e>
  10098a: 05 45        	li	a0, 1
  10098c: 23 2a a4 fe  	sw	a0, -12(s0)
  100990: 6f 00 40 00  	j	0x100994 <test_input_file+0x48>
  100994: 01 45        	li	a0, 0
  100996: 23 04 a4 fe  	sb	a0, -24(s0)
  10099a: 37 35 2e 0a  	lui	a0, 41699
  10099e: 13 05 05 12  	addi	a0, a0, 288
  1009a2: 23 22 a4 fe  	sw	a0, -28(s0)
  1009a6: 37 75 6e 65  	lui	a0, 415463
  1009aa: 13 05 c5 96  	addi	a0, a0, -1684
  1009ae: 23 20 a4 fe  	sw	a0, -32(s0)
  1009b2: 37 75 73 20  	lui	a0, 132919
  1009b6: 13 05 05 92  	addi	a0, a0, -1760
  1009ba: 23 2e a4 fc  	sw	a0, -36(s0)
  1009be: 37 75 69 73  	lui	a0, 472727
  1009c2: 13 05 45 85  	addi	a0, a0, -1964
  1009c6: 23 2c a4 fc  	sw	a0, -40(s0)
  1009ca: 45 45        	li	a0, 17
  1009cc: 23 2a a4 fc  	sw	a0, -44(s0)
  1009d0: 83 25 44 fd  	lw	a1, -44(s0)
  1009d4: 0a 85        	mv	a0, sp
  1009d6: 23 28 a4 fc  	sw	a0, -48(s0)
  1009da: 13 85 f5 00  	addi	a0, a1, 15
  1009de: 13 76 05 ff  	andi	a2, a0, -16
  1009e2: 0a 85        	mv	a0, sp
  1009e4: 11 8d        	sub	a0, a0, a2
  1009e6: 23 2a a4 f8  	sw	a0, -108(s0)
  1009ea: 2a 81        	mv	sp, a0
  1009ec: 23 26 b4 fc  	sw	a1, -52(s0)
  1009f0: 03 26 44 fd  	lw	a2, -44(s0)
  1009f4: 83 26 c4 fe  	lw	a3, -20(s0)
  1009f8: 85 45        	li	a1, 1
  1009fa: ef 10 90 75  	jal	0x102952 <fread>
  1009fe: 23 24 a4 fc  	sw	a0, -56(s0)
  100a02: 03 25 84 fc  	lw	a0, -56(s0)
  100a06: 83 25 44 fd  	lw	a1, -44(s0)
  100a0a: 63 09 b5 00  	beq	a0, a1, 0x100a1c <test_input_file+0xd0>
  100a0e: 6f 00 40 00  	j	0x100a12 <test_input_file+0xc6>
  100a12: 09 45        	li	a0, 2
  100a14: 23 2a a4 fe  	sw	a0, -12(s0)
  100a18: 6f 00 40 00  	j	0x100a1c <test_input_file+0xd0>
  100a1c: 83 25 44 f9  	lw	a1, -108(s0)
  100a20: 13 05 84 fd  	addi	a0, s0, -40
  100a24: ef 30 80 2c  	jal	0x103cec <strcmp>
  100a28: 81 45        	li	a1, 0
  100a2a: 63 09 b5 00  	beq	a0, a1, 0x100a3c <test_input_file+0xf0>
  100a2e: 6f 00 40 00  	j	0x100a32 <test_input_file+0xe6>
  100a32: 09 45        	li	a0, 2
  100a34: 23 2a a4 fe  	sw	a0, -12(s0)
  100a38: 6f 00 40 00  	j	0x100a3c <test_input_file+0xf0>
  100a3c: 01 45        	li	a0, 0
  100a3e: 23 22 a4 fc  	sw	a0, -60(s0)
  100a42: a3 01 a4 fc  	sb	a0, -61(s0)
  100a46: 23 2e a4 fa  	sw	a0, -68(s0)
  100a4a: 23 2a a4 fa  	sw	a0, -76(s0)
  100a4e: 23 28 a4 fa  	sw	a0, -80(s0)
  100a52: 03 25 c4 fe  	lw	a0, -20(s0)
  100a56: 97 05 f1 ff  	auipc	a1, 1048336
  100a5a: 93 85 a5 91  	addi	a1, a1, -1766
  100a5e: 13 06 44 fc  	addi	a2, s0, -60
  100a62: 93 06 34 fc  	addi	a3, s0, -61
  100a66: 13 07 c4 fb  	addi	a4, s0, -68
  100a6a: ef 10 70 6f  	jal	0x102960 <fscanf>
  100a6e: 23 28 a4 fe  	sw	a0, -16(s0)
  100a72: 03 25 04 ff  	lw	a0, -16(s0)
  100a76: 8d 45        	li	a1, 3
  100a78: 63 09 b5 00  	beq	a0, a1, 0x100a8a <test_input_file+0x13e>
  100a7c: 6f 00 40 00  	j	0x100a80 <test_input_file+0x134>
  100a80: 0d 45        	li	a0, 3
  100a82: 23 2a a4 fe  	sw	a0, -12(s0)
  100a86: 6f 00 40 00  	j	0x100a8a <test_input_file+0x13e>
  100a8a: 03 25 44 fc  	lw	a0, -60(s0)
  100a8e: 93 05 b0 07  	li	a1, 123
  100a92: 63 19 b5 02  	bne	a0, a1, 0x100ac4 <test_input_file+0x178>
  100a96: 6f 00 40 00  	j	0x100a9a <test_input_file+0x14e>
  100a9a: 03 45 34 fc  	lbu	a0, -61(s0)
  100a9e: 93 05 30 06  	li	a1, 99
  100aa2: 63 11 b5 02  	bne	a0, a1, 0x100ac4 <test_input_file+0x178>
  100aa6: 6f 00 40 00  	j	0x100aaa <test_input_file+0x15e>
  100aaa: 07 20 c4 fb  	flw	ft0, -68(s0)
  100aae: 13 85 01 8a  	addi	a0, gp, -1888
  100ab2: 87 20 05 00  	flw	ft1, 0(a0)
  100ab6: 53 25 10 a0  	feq.s	a0, ft0, ft1
  100aba: 81 45        	li	a1, 0
  100abc: 63 19 b5 00  	bne	a0, a1, 0x100ace <test_input_file+0x182>
  100ac0: 6f 00 40 00  	j	0x100ac4 <test_input_file+0x178>
  100ac4: 11 45        	li	a0, 4
  100ac6: 23 2a a4 fe  	sw	a0, -12(s0)
  100aca: 6f 00 40 00  	j	0x100ace <test_input_file+0x182>
  100ace: 03 25 c4 fe  	lw	a0, -20(s0)
  100ad2: ef 10 30 13  	jal	0x102404 <fgetc>
  100ad6: 23 28 a4 fe  	sw	a0, -16(s0)
  100ada: 03 25 04 ff  	lw	a0, -16(s0)
  100ade: 93 05 10 04  	li	a1, 65
  100ae2: 63 09 b5 00  	beq	a0, a1, 0x100af4 <test_input_file+0x1a8>
  100ae6: 6f 00 40 00  	j	0x100aea <test_input_file+0x19e>
  100aea: 15 45        	li	a0, 5
  100aec: 23 2a a4 fe  	sw	a0, -12(s0)
  100af0: 6f 00 40 00  	j	0x100af4 <test_input_file+0x1a8>
  100af4: 03 26 c4 fe  	lw	a2, -20(s0)
  100af8: 13 05 34 fa  	addi	a0, s0, -93
  100afc: b5 45        	li	a1, 13
  100afe: ef 10 90 1e  	jal	0x1024e6 <fgets>
  100b02: 23 2e a4 f8  	sw	a0, -100(s0)
  100b06: 03 25 c4 f9  	lw	a0, -100(s0)
  100b0a: 81 45        	li	a1, 0
  100b0c: 63 19 b5 00  	bne	a0, a1, 0x100b1e <test_input_file+0x1d2>
  100b10: 6f 00 40 00  	j	0x100b14 <test_input_file+0x1c8>
  100b14: 19 45        	li	a0, 6
  100b16: 23 2a a4 fe  	sw	a0, -12(s0)
  100b1a: 6f 00 40 00  	j	0x100b1e <test_input_file+0x1d2>
  100b1e: 97 05 f1 ff  	auipc	a1, 1048336
  100b22: 93 85 25 89  	addi	a1, a1, -1902
  100b26: 13 05 34 fa  	addi	a0, s0, -93
  100b2a: ef 30 20 1c  	jal	0x103cec <strcmp>
  100b2e: 81 45        	li	a1, 0
  100b30: 63 09 b5 00  	beq	a0, a1, 0x100b42 <test_input_file+0x1f6>
  100b34: 6f 00 40 00  	j	0x100b38 <test_input_file+0x1ec>
  100b38: 1d 45        	li	a0, 7
  100b3a: 23 2a a4 fe  	sw	a0, -12(s0)
  100b3e: 6f 00 40 00  	j	0x100b42 <test_input_file+0x1f6>
  100b42: 03 25 c4 fe  	lw	a0, -20(s0)
  100b46: ef 20 80 2e  	jal	0x102e2e <getc>
  100b4a: 23 28 a4 fe  	sw	a0, -16(s0)
  100b4e: 03 25 04 ff  	lw	a0, -16(s0)
  100b52: 93 05 20 04  	li	a1, 66
  100b56: 63 09 b5 00  	beq	a0, a1, 0x100b68 <test_input_file+0x21c>
  100b5a: 6f 00 40 00  	j	0x100b5e <test_input_file+0x212>
  100b5e: 21 45        	li	a0, 8
  100b60: 23 2a a4 fe  	sw	a0, -12(s0)
  100b64: 6f 00 40 00  	j	0x100b68 <test_input_file+0x21c>
  100b68: 03 25 c4 fe  	lw	a0, -20(s0)
  100b6c: ef 10 60 67  	jal	0x1021e2 <fclose>
  100b70: 23 28 a4 fe  	sw	a0, -16(s0)
  100b74: 03 25 04 ff  	lw	a0, -16(s0)
  100b78: 81 45        	li	a1, 0
  100b7a: 63 0a b5 00  	beq	a0, a1, 0x100b8e <test_input_file+0x242>
  100b7e: 6f 00 40 00  	j	0x100b82 <test_input_file+0x236>
  100b82: 03 25 04 ff  	lw	a0, -16(s0)
  100b86: 23 2a a4 fe  	sw	a0, -12(s0)
  100b8a: 6f 00 40 00  	j	0x100b8e <test_input_file+0x242>
  100b8e: 03 25 04 fd  	lw	a0, -48(s0)
  100b92: 2a 81        	mv	sp, a0
  100b94: 01 45        	li	a0, 0
  100b96: 13 01 04 f9  	addi	sp, s0, -112
  100b9a: b6 50        	lw	ra, 108(sp)
  100b9c: 26 54        	lw	s0, 104(sp)
  100b9e: 65 61        	addi	sp, sp, 112
  100ba0: 82 80        	ret

00100ba2 <test_stdio>:
  100ba2: 41 11        	addi	sp, sp, -16
  100ba4: 06 c6        	sw	ra, 12(sp)
  100ba6: 22 c4        	sw	s0, 8(sp)
  100ba8: 00 08        	addi	s0, sp, 16
  100baa: 01 45        	li	a0, 0
  100bac: 23 2a a4 fe  	sw	a0, -12(s0)
  100bb0: c5 3a        	jal	0x1005a0 <test_input_no_file>
  100bb2: aa 85        	mv	a1, a0
  100bb4: 03 25 44 ff  	lw	a0, -12(s0)
  100bb8: 2e 95        	add	a0, a0, a1
  100bba: 23 2a a4 fe  	sw	a0, -12(s0)
  100bbe: bd 3e        	jal	0x10073c <test_output_file>
  100bc0: aa 85        	mv	a1, a0
  100bc2: 03 25 44 ff  	lw	a0, -12(s0)
  100bc6: 2e 95        	add	a0, a0, a1
  100bc8: 23 2a a4 fe  	sw	a0, -12(s0)
  100bcc: 41 33        	jal	0x10094c <test_input_file>
  100bce: aa 85        	mv	a1, a0
  100bd0: 03 25 44 ff  	lw	a0, -12(s0)
  100bd4: 2e 95        	add	a0, a0, a1
  100bd6: 23 2a a4 fe  	sw	a0, -12(s0)
  100bda: 03 25 44 ff  	lw	a0, -12(s0)
  100bde: b2 40        	lw	ra, 12(sp)
  100be0: 22 44        	lw	s0, 8(sp)
  100be2: 41 01        	addi	sp, sp, 16
  100be4: 82 80        	ret
  100be6: 00 00        	unimp	

00100be8 <test_stdlib>:
  100be8: 79 71        	addi	sp, sp, -48
  100bea: 06 d6        	sw	ra, 44(sp)
  100bec: 22 d4        	sw	s0, 40(sp)
  100bee: 00 18        	addi	s0, sp, 48
  100bf0: 01 45        	li	a0, 0
  100bf2: 23 2a a4 fc  	sw	a0, -44(s0)
  100bf6: 23 2a a4 fe  	sw	a0, -12(s0)
  100bfa: 23 28 a4 fe  	sw	a0, -16(s0)
  100bfe: 23 26 a4 fe  	sw	a0, -20(s0)
  100c02: 23 24 a4 fe  	sw	a0, -24(s0)
  100c06: 29 45        	li	a0, 10
  100c08: 23 22 a4 fe  	sw	a0, -28(s0)
  100c0c: 03 25 44 fe  	lw	a0, -28(s0)
  100c10: 91 45        	li	a1, 4
  100c12: 6d 22        	jal	0x100dbc <calloc>
  100c14: 83 25 44 fd  	lw	a1, -44(s0)
  100c18: 23 28 a4 fe  	sw	a0, -16(s0)
  100c1c: 03 25 04 ff  	lw	a0, -16(s0)
  100c20: 63 19 b5 00  	bne	a0, a1, 0x100c32 <test_stdlib+0x4a>
  100c24: 6f 00 40 00  	j	0x100c28 <test_stdlib+0x40>
  100c28: 05 45        	li	a0, 1
  100c2a: 23 2a a4 fe  	sw	a0, -12(s0)
  100c2e: 6f 00 40 00  	j	0x100c32 <test_stdlib+0x4a>
  100c32: 01 45        	li	a0, 0
  100c34: 23 20 a4 fe  	sw	a0, -32(s0)
  100c38: 6f 00 40 00  	j	0x100c3c <test_stdlib+0x54>
  100c3c: 03 25 04 fe  	lw	a0, -32(s0)
  100c40: 83 25 44 fe  	lw	a1, -28(s0)
  100c44: 63 56 b5 04  	bge	a0, a1, 0x100c90 <test_stdlib+0xa8>
  100c48: 6f 00 40 00  	j	0x100c4c <test_stdlib+0x64>
  100c4c: 03 25 04 ff  	lw	a0, -16(s0)
  100c50: 83 25 04 fe  	lw	a1, -32(s0)
  100c54: 8a 05        	slli	a1, a1, 2
  100c56: 2e 95        	add	a0, a0, a1
  100c58: 08 41        	lw	a0, 0(a0)
  100c5a: 81 45        	li	a1, 0
  100c5c: 63 09 b5 00  	beq	a0, a1, 0x100c6e <test_stdlib+0x86>
  100c60: 6f 00 40 00  	j	0x100c64 <test_stdlib+0x7c>
  100c64: 09 45        	li	a0, 2
  100c66: 23 2a a4 fe  	sw	a0, -12(s0)
  100c6a: 6f 00 40 00  	j	0x100c6e <test_stdlib+0x86>
  100c6e: 03 25 04 fe  	lw	a0, -32(s0)
  100c72: 83 25 04 ff  	lw	a1, -16(s0)
  100c76: 13 16 25 00  	slli	a2, a0, 2
  100c7a: b2 95        	add	a1, a1, a2
  100c7c: 88 c1        	sw	a0, 0(a1)
  100c7e: 6f 00 40 00  	j	0x100c82 <test_stdlib+0x9a>
  100c82: 03 25 04 fe  	lw	a0, -32(s0)
  100c86: 05 05        	addi	a0, a0, 1
  100c88: 23 20 a4 fe  	sw	a0, -32(s0)
  100c8c: 6f f0 1f fb  	j	0x100c3c <test_stdlib+0x54>
  100c90: 03 25 44 fe  	lw	a0, -28(s0)
  100c94: 0a 05        	slli	a0, a0, 2
  100c96: 9d 22        	jal	0x100dfc <malloc>
  100c98: 23 26 a4 fe  	sw	a0, -20(s0)
  100c9c: 03 25 c4 fe  	lw	a0, -20(s0)
  100ca0: 81 45        	li	a1, 0
  100ca2: 63 19 b5 00  	bne	a0, a1, 0x100cb4 <test_stdlib+0xcc>
  100ca6: 6f 00 40 00  	j	0x100caa <test_stdlib+0xc2>
  100caa: 0d 45        	li	a0, 3
  100cac: 23 2a a4 fe  	sw	a0, -12(s0)
  100cb0: 6f 00 40 00  	j	0x100cb4 <test_stdlib+0xcc>
  100cb4: 01 45        	li	a0, 0
  100cb6: 23 2e a4 fc  	sw	a0, -36(s0)
  100cba: 6f 00 40 00  	j	0x100cbe <test_stdlib+0xd6>
  100cbe: 03 25 c4 fd  	lw	a0, -36(s0)
  100cc2: 83 25 44 fe  	lw	a1, -28(s0)
  100cc6: 63 59 b5 02  	bge	a0, a1, 0x100cf8 <test_stdlib+0x110>
  100cca: 6f 00 40 00  	j	0x100cce <test_stdlib+0xe6>
  100cce: 03 25 04 ff  	lw	a0, -16(s0)
  100cd2: 83 25 c4 fd  	lw	a1, -36(s0)
  100cd6: 13 96 25 00  	slli	a2, a1, 2
  100cda: 32 95        	add	a0, a0, a2
  100cdc: 08 41        	lw	a0, 0(a0)
  100cde: 83 25 c4 fe  	lw	a1, -20(s0)
  100ce2: b2 95        	add	a1, a1, a2
  100ce4: 88 c1        	sw	a0, 0(a1)
  100ce6: 6f 00 40 00  	j	0x100cea <test_stdlib+0x102>
  100cea: 03 25 c4 fd  	lw	a0, -36(s0)
  100cee: 05 05        	addi	a0, a0, 1
  100cf0: 23 2e a4 fc  	sw	a0, -36(s0)
  100cf4: 6f f0 bf fc  	j	0x100cbe <test_stdlib+0xd6>
  100cf8: 01 45        	li	a0, 0
  100cfa: 23 2c a4 fc  	sw	a0, -40(s0)
  100cfe: 6f 00 40 00  	j	0x100d02 <test_stdlib+0x11a>
  100d02: 03 25 84 fd  	lw	a0, -40(s0)
  100d06: 83 25 44 fe  	lw	a1, -28(s0)
  100d0a: 63 5e b5 02  	bge	a0, a1, 0x100d46 <test_stdlib+0x15e>
  100d0e: 6f 00 40 00  	j	0x100d12 <test_stdlib+0x12a>
  100d12: 03 25 04 ff  	lw	a0, -16(s0)
  100d16: 83 25 84 fd  	lw	a1, -40(s0)
  100d1a: 13 96 25 00  	slli	a2, a1, 2
  100d1e: 32 95        	add	a0, a0, a2
  100d20: 08 41        	lw	a0, 0(a0)
  100d22: 63 09 b5 00  	beq	a0, a1, 0x100d34 <test_stdlib+0x14c>
  100d26: 6f 00 40 00  	j	0x100d2a <test_stdlib+0x142>
  100d2a: 11 45        	li	a0, 4
  100d2c: 23 2a a4 fe  	sw	a0, -12(s0)
  100d30: 6f 00 40 00  	j	0x100d34 <test_stdlib+0x14c>
  100d34: 6f 00 40 00  	j	0x100d38 <test_stdlib+0x150>
  100d38: 03 25 84 fd  	lw	a0, -40(s0)
  100d3c: 05 05        	addi	a0, a0, 1
  100d3e: 23 2c a4 fc  	sw	a0, -40(s0)
  100d42: 6f f0 1f fc  	j	0x100d02 <test_stdlib+0x11a>
  100d46: 03 25 c4 fe  	lw	a0, -20(s0)
  100d4a: 83 25 44 fe  	lw	a1, -28(s0)
  100d4e: 8e 05        	slli	a1, a1, 3
  100d50: 15 2c        	jal	0x100f84 <realloc>
  100d52: 23 24 a4 fe  	sw	a0, -24(s0)
  100d56: 03 25 84 fe  	lw	a0, -24(s0)
  100d5a: 81 45        	li	a1, 0
  100d5c: 63 19 b5 00  	bne	a0, a1, 0x100d6e <test_stdlib+0x186>
  100d60: 6f 00 40 00  	j	0x100d64 <test_stdlib+0x17c>
  100d64: 15 45        	li	a0, 5
  100d66: 23 2a a4 fe  	sw	a0, -12(s0)
  100d6a: 6f 00 40 00  	j	0x100d6e <test_stdlib+0x186>
  100d6e: 03 25 84 fe  	lw	a0, -24(s0)
  100d72: 8d 65        	lui	a1, 3
  100d74: 93 85 95 03  	addi	a1, a1, 57
  100d78: 4c dd        	sw	a1, 60(a0)
  100d7a: 03 25 84 fe  	lw	a0, -24(s0)
  100d7e: 48 5d        	lw	a0, 60(a0)
  100d80: 63 09 b5 00  	beq	a0, a1, 0x100d92 <test_stdlib+0x1aa>
  100d84: 6f 00 40 00  	j	0x100d88 <test_stdlib+0x1a0>
  100d88: 19 45        	li	a0, 6
  100d8a: 23 2a a4 fe  	sw	a0, -12(s0)
  100d8e: 6f 00 40 00  	j	0x100d92 <test_stdlib+0x1aa>
  100d92: 03 25 04 ff  	lw	a0, -16(s0)
  100d96: bd 20        	jal	0x100e04 <free>
  100d98: 03 25 c4 fe  	lw	a0, -20(s0)
  100d9c: a5 20        	jal	0x100e04 <free>
  100d9e: 03 25 84 fe  	lw	a0, -24(s0)
  100da2: 8d 20        	jal	0x100e04 <free>
  100da4: 03 25 44 ff  	lw	a0, -12(s0)
  100da8: b2 50        	lw	ra, 44(sp)
  100daa: 22 54        	lw	s0, 40(sp)
  100dac: 45 61        	addi	sp, sp, 48
  100dae: 82 80        	ret

00100db0 <atexit>:
  100db0: aa 85        	mv	a1, a0
  100db2: 81 46        	li	a3, 0
  100db4: 01 46        	li	a2, 0
  100db6: 01 45        	li	a0, 0
  100db8: 6f 20 30 75  	j	0x103d0a <__register_exitproc>

00100dbc <calloc>:
  100dbc: 2e 86        	mv	a2, a1
  100dbe: aa 85        	mv	a1, a0
  100dc0: 03 a5 41 8a  	lw	a0, -1884(gp)
  100dc4: 09 a0        	j	0x100dc6 <_calloc_r>

00100dc6 <_calloc_r>:
  100dc6: 32 87        	mv	a4, a2
  100dc8: b3 b7 e5 02  	mulhu	a5, a1, a4
  100dcc: 01 11        	addi	sp, sp, -32
  100dce: 06 ce        	sw	ra, 28(sp)
  100dd0: 22 cc        	sw	s0, 24(sp)
  100dd2: 33 86 c5 02  	mul	a2, a1, a2
  100dd6: 89 cb        	beqz	a5, 0x100de8 <_calloc_r+0x22>
  100dd8: b1 47        	li	a5, 12
  100dda: 1c c1        	sw	a5, 0(a0)
  100ddc: 01 44        	li	s0, 0
  100dde: f2 40        	lw	ra, 28(sp)
  100de0: 22 85        	mv	a0, s0
  100de2: 62 44        	lw	s0, 24(sp)
  100de4: 05 61        	addi	sp, sp, 32
  100de6: 82 80        	ret
  100de8: b2 85        	mv	a1, a2
  100dea: 32 c6        	sw	a2, 12(sp)
  100dec: ad 28        	jal	0x100e66 <_malloc_r>
  100dee: 2a 84        	mv	s0, a0
  100df0: 7d d5        	beqz	a0, 0x100dde <_calloc_r+0x18>
  100df2: 32 46        	lw	a2, 12(sp)
  100df4: 81 45        	li	a1, 0
  100df6: ef 20 f0 6b  	jal	0x103cb4 <memset>
  100dfa: d5 b7        	j	0x100dde <_calloc_r+0x18>

00100dfc <malloc>:
  100dfc: aa 85        	mv	a1, a0
  100dfe: 03 a5 41 8a  	lw	a0, -1884(gp)
  100e02: 95 a0        	j	0x100e66 <_malloc_r>

00100e04 <free>:
  100e04: aa 85        	mv	a1, a0
  100e06: 03 a5 41 8a  	lw	a0, -1884(gp)
  100e0a: 6f 30 30 54  	j	0x104b4c <_free_r>

00100e0e <sbrk_aligned>:
  100e0e: 41 11        	addi	sp, sp, -16
  100e10: 22 c4        	sw	s0, 8(sp)
  100e12: 37 c4 10 00  	lui	s0, 268
  100e16: 13 04 84 88  	addi	s0, s0, -1912
  100e1a: 1c 40        	lw	a5, 0(s0)
  100e1c: 26 c2        	sw	s1, 4(sp)
  100e1e: 4a c0        	sw	s2, 0(sp)
  100e20: 06 c6        	sw	ra, 12(sp)
  100e22: aa 84        	mv	s1, a0
  100e24: 2e 89        	mv	s2, a1
  100e26: 89 e7        	bnez	a5, 0x100e30 <sbrk_aligned+0x22>
  100e28: 81 45        	li	a1, 0
  100e2a: ef 20 10 56  	jal	0x103b8a <_sbrk_r>
  100e2e: 08 c0        	sw	a0, 0(s0)
  100e30: ca 85        	mv	a1, s2
  100e32: 26 85        	mv	a0, s1
  100e34: ef 20 70 55  	jal	0x103b8a <_sbrk_r>
  100e38: 7d 59        	li	s2, -1
  100e3a: 63 0e 25 01  	beq	a0, s2, 0x100e56 <sbrk_aligned+0x48>
  100e3e: 13 04 35 00  	addi	s0, a0, 3
  100e42: 71 98        	andi	s0, s0, -4
  100e44: 63 0a 85 00  	beq	a0, s0, 0x100e58 <sbrk_aligned+0x4a>
  100e48: b3 05 a4 40  	sub	a1, s0, a0
  100e4c: 26 85        	mv	a0, s1
  100e4e: ef 20 d0 53  	jal	0x103b8a <_sbrk_r>
  100e52: 63 13 25 01  	bne	a0, s2, 0x100e58 <sbrk_aligned+0x4a>
  100e56: 7d 54        	li	s0, -1
  100e58: b2 40        	lw	ra, 12(sp)
  100e5a: 22 85        	mv	a0, s0
  100e5c: 22 44        	lw	s0, 8(sp)
  100e5e: 92 44        	lw	s1, 4(sp)
  100e60: 02 49        	lw	s2, 0(sp)
  100e62: 41 01        	addi	sp, sp, 16
  100e64: 82 80        	ret

00100e66 <_malloc_r>:
  100e66: 01 11        	addi	sp, sp, -32
  100e68: 26 ca        	sw	s1, 20(sp)
  100e6a: 93 84 35 00  	addi	s1, a1, 3
  100e6e: f1 98        	andi	s1, s1, -4
  100e70: 52 c4        	sw	s4, 8(sp)
  100e72: 06 ce        	sw	ra, 28(sp)
  100e74: 22 cc        	sw	s0, 24(sp)
  100e76: 4a c8        	sw	s2, 16(sp)
  100e78: 4e c6        	sw	s3, 12(sp)
  100e7a: a1 04        	addi	s1, s1, 8
  100e7c: b1 47        	li	a5, 12
  100e7e: 2a 8a        	mv	s4, a0
  100e80: 63 f8 f4 06  	bgeu	s1, a5, 0x100ef0 <_malloc_r+0x8a>
  100e84: b1 44        	li	s1, 12
  100e86: 63 e7 b4 06  	bltu	s1, a1, 0x100ef4 <_malloc_r+0x8e>
  100e8a: 52 85        	mv	a0, s4
  100e8c: 37 c9 10 00  	lui	s2, 268
  100e90: c5 28        	jal	0x100f80 <__malloc_lock>
  100e92: 83 27 49 88  	lw	a5, -1916(s2)
  100e96: 13 09 49 88  	addi	s2, s2, -1916
  100e9a: 3e 84        	mv	s0, a5
  100e9c: 2d e8        	bnez	s0, 0x100f0e <_malloc_r+0xa8>
  100e9e: a6 85        	mv	a1, s1
  100ea0: 52 85        	mv	a0, s4
  100ea2: b5 37        	jal	0x100e0e <sbrk_aligned>
  100ea4: fd 57        	li	a5, -1
  100ea6: 2a 84        	mv	s0, a0
  100ea8: 63 12 f5 04  	bne	a0, a5, 0x100eec <_malloc_r+0x86>
  100eac: 03 24 09 00  	lw	s0, 0(s2)
  100eb0: 22 89        	mv	s2, s0
  100eb2: 63 1d 09 0a  	bnez	s2, 0x100f6c <_malloc_r+0x106>
  100eb6: 5d cc        	beqz	s0, 0x100f74 <_malloc_r+0x10e>
  100eb8: 83 29 04 00  	lw	s3, 0(s0)
  100ebc: 81 45        	li	a1, 0
  100ebe: 52 85        	mv	a0, s4
  100ec0: a2 99        	add	s3, s3, s0
  100ec2: ef 20 90 4c  	jal	0x103b8a <_sbrk_r>
  100ec6: 63 97 a9 0a  	bne	s3, a0, 0x100f74 <_malloc_r+0x10e>
  100eca: 0c 40        	lw	a1, 0(s0)
  100ecc: 8d 04        	addi	s1, s1, 3
  100ece: b1 47        	li	a5, 12
  100ed0: 8d 8c        	sub	s1, s1, a1
  100ed2: f1 98        	andi	s1, s1, -4
  100ed4: a1 04        	addi	s1, s1, 8
  100ed6: 63 f3 f4 00  	bgeu	s1, a5, 0x100edc <_malloc_r+0x76>
  100eda: b1 44        	li	s1, 12
  100edc: a6 85        	mv	a1, s1
  100ede: 52 85        	mv	a0, s4
  100ee0: 3d 37        	jal	0x100e0e <sbrk_aligned>
  100ee2: fd 57        	li	a5, -1
  100ee4: 63 08 f5 08  	beq	a0, a5, 0x100f74 <_malloc_r+0x10e>
  100ee8: 1c 40        	lw	a5, 0(s0)
  100eea: be 94        	add	s1, s1, a5
  100eec: 04 c0        	sw	s1, 0(s0)
  100eee: 89 a0        	j	0x100f30 <_malloc_r+0xca>
  100ef0: e3 db 04 f8  	bgez	s1, 0x100e86 <_malloc_r+0x20>
  100ef4: b1 47        	li	a5, 12
  100ef6: 23 20 fa 00  	sw	a5, 0(s4)
  100efa: 01 49        	li	s2, 0
  100efc: f2 40        	lw	ra, 28(sp)
  100efe: 62 44        	lw	s0, 24(sp)
  100f00: d2 44        	lw	s1, 20(sp)
  100f02: b2 49        	lw	s3, 12(sp)
  100f04: 22 4a        	lw	s4, 8(sp)
  100f06: 4a 85        	mv	a0, s2
  100f08: 42 49        	lw	s2, 16(sp)
  100f0a: 05 61        	addi	sp, sp, 32
  100f0c: 82 80        	ret
  100f0e: 14 40        	lw	a3, 0(s0)
  100f10: 85 8e        	sub	a3, a3, s1
  100f12: 63 ca 06 04  	bltz	a3, 0x100f66 <_malloc_r+0x100>
  100f16: 2d 47        	li	a4, 11
  100f18: 63 7f d7 02  	bgeu	a4, a3, 0x100f56 <_malloc_r+0xf0>
  100f1c: 04 c0        	sw	s1, 0(s0)
  100f1e: 33 07 94 00  	add	a4, s0, s1
  100f22: 63 98 87 02  	bne	a5, s0, 0x100f52 <_malloc_r+0xec>
  100f26: 23 20 e9 00  	sw	a4, 0(s2)
  100f2a: 5c 40        	lw	a5, 4(s0)
  100f2c: 14 c3        	sw	a3, 0(a4)
  100f2e: 5c c3        	sw	a5, 4(a4)
  100f30: 52 85        	mv	a0, s4
  100f32: 81 28        	jal	0x100f82 <__malloc_unlock>
  100f34: 13 09 b4 00  	addi	s2, s0, 11
  100f38: 93 07 44 00  	addi	a5, s0, 4
  100f3c: 13 79 89 ff  	andi	s2, s2, -8
  100f40: 33 05 f9 40  	sub	a0, s2, a5
  100f44: e3 0c f9 fa  	beq	s2, a5, 0x100efc <_malloc_r+0x96>
  100f48: 2a 94        	add	s0, s0, a0
  100f4a: b3 87 27 41  	sub	a5, a5, s2
  100f4e: 1c c0        	sw	a5, 0(s0)
  100f50: 75 b7        	j	0x100efc <_malloc_r+0x96>
  100f52: d8 c3        	sw	a4, 4(a5)
  100f54: d9 bf        	j	0x100f2a <_malloc_r+0xc4>
  100f56: 58 40        	lw	a4, 4(s0)
  100f58: 63 95 87 00  	bne	a5, s0, 0x100f62 <_malloc_r+0xfc>
  100f5c: 23 20 e9 00  	sw	a4, 0(s2)
  100f60: c1 bf        	j	0x100f30 <_malloc_r+0xca>
  100f62: d8 c3        	sw	a4, 4(a5)
  100f64: f1 b7        	j	0x100f30 <_malloc_r+0xca>
  100f66: a2 87        	mv	a5, s0
  100f68: 40 40        	lw	s0, 4(s0)
  100f6a: 0d bf        	j	0x100e9c <_malloc_r+0x36>
  100f6c: 4a 84        	mv	s0, s2
  100f6e: 03 29 49 00  	lw	s2, 4(s2)
  100f72: 81 b7        	j	0x100eb2 <_malloc_r+0x4c>
  100f74: b1 47        	li	a5, 12
  100f76: 23 20 fa 00  	sw	a5, 0(s4)
  100f7a: 52 85        	mv	a0, s4
  100f7c: 19 20        	jal	0x100f82 <__malloc_unlock>
  100f7e: bd bf        	j	0x100efc <_malloc_r+0x96>

00100f80 <__malloc_lock>:
  100f80: 82 80        	ret

00100f82 <__malloc_unlock>:
  100f82: 82 80        	ret

00100f84 <realloc>:
  100f84: 2e 86        	mv	a2, a1
  100f86: aa 85        	mv	a1, a0
  100f88: 03 a5 41 8a  	lw	a0, -1884(gp)
  100f8c: 09 a0        	j	0x100f8e <_realloc_r>

00100f8e <_realloc_r>:
  100f8e: 01 11        	addi	sp, sp, -32
  100f90: 22 cc        	sw	s0, 24(sp)
  100f92: 06 ce        	sw	ra, 28(sp)
  100f94: 26 ca        	sw	s1, 20(sp)
  100f96: 4a c8        	sw	s2, 16(sp)
  100f98: 4e c6        	sw	s3, 12(sp)
  100f9a: 52 c4        	sw	s4, 8(sp)
  100f9c: 32 84        	mv	s0, a2
  100f9e: 91 e9        	bnez	a1, 0x100fb2 <_realloc_r+0x24>
  100fa0: 62 44        	lw	s0, 24(sp)
  100fa2: f2 40        	lw	ra, 28(sp)
  100fa4: d2 44        	lw	s1, 20(sp)
  100fa6: 42 49        	lw	s2, 16(sp)
  100fa8: b2 49        	lw	s3, 12(sp)
  100faa: 22 4a        	lw	s4, 8(sp)
  100fac: b2 85        	mv	a1, a2
  100fae: 05 61        	addi	sp, sp, 32
  100fb0: 5d bd        	j	0x100e66 <_malloc_r>
  100fb2: 09 ee        	bnez	a2, 0x100fcc <_realloc_r+0x3e>
  100fb4: ef 30 90 39  	jal	0x104b4c <_free_r>
  100fb8: 81 44        	li	s1, 0
  100fba: f2 40        	lw	ra, 28(sp)
  100fbc: 62 44        	lw	s0, 24(sp)
  100fbe: 42 49        	lw	s2, 16(sp)
  100fc0: b2 49        	lw	s3, 12(sp)
  100fc2: 22 4a        	lw	s4, 8(sp)
  100fc4: 26 85        	mv	a0, s1
  100fc6: d2 44        	lw	s1, 20(sp)
  100fc8: 05 61        	addi	sp, sp, 32
  100fca: 82 80        	ret
  100fcc: 2a 8a        	mv	s4, a0
  100fce: 2e 89        	mv	s2, a1
  100fd0: ef 40 20 78  	jal	0x105752 <_malloc_usable_size_r>
  100fd4: aa 89        	mv	s3, a0
  100fd6: 63 67 85 00  	bltu	a0, s0, 0x100fe4 <_realloc_r+0x56>
  100fda: 93 57 15 00  	srli	a5, a0, 1
  100fde: ca 84        	mv	s1, s2
  100fe0: e3 ed 87 fc  	bltu	a5, s0, 0x100fba <_realloc_r+0x2c>
  100fe4: a2 85        	mv	a1, s0
  100fe6: 52 85        	mv	a0, s4
  100fe8: bd 3d        	jal	0x100e66 <_malloc_r>
  100fea: aa 84        	mv	s1, a0
  100fec: 79 d5        	beqz	a0, 0x100fba <_realloc_r+0x2c>
  100fee: 22 86        	mv	a2, s0
  100ff0: 63 f3 89 00  	bgeu	s3, s0, 0x100ff6 <_realloc_r+0x68>
  100ff4: 4e 86        	mv	a2, s3
  100ff6: ca 85        	mv	a1, s2
  100ff8: 26 85        	mv	a0, s1
  100ffa: ef 20 b0 4c  	jal	0x103cc4 <memcpy>
  100ffe: ca 85        	mv	a1, s2
  101000: 52 85        	mv	a0, s4
  101002: ef 30 b0 34  	jal	0x104b4c <_free_r>
  101006: 55 bf        	j	0x100fba <_realloc_r+0x2c>

00101008 <__cvt>:
  101008: 79 71        	addi	sp, sp, -48
  10100a: 22 d4        	sw	s0, 40(sp)
  10100c: 4a d0        	sw	s2, 32(sp)
  10100e: 52 cc        	sw	s4, 24(sp)
  101010: 56 ca        	sw	s5, 20(sp)
  101012: 5a c8        	sw	s6, 16(sp)
  101014: 06 d6        	sw	ra, 44(sp)
  101016: 26 d2        	sw	s1, 36(sp)
  101018: 4e ce        	sw	s3, 28(sp)
  10101a: 3a 8b        	mv	s6, a4
  10101c: 2e 8a        	mv	s4, a1
  10101e: 32 84        	mv	s0, a2
  101020: 36 89        	mv	s2, a3
  101022: c2 8a        	mv	s5, a6
  101024: 01 47        	li	a4, 0
  101026: 63 58 06 00  	bgez	a2, 0x101036 <__cvt+0x2e>
  10102a: 37 07 00 80  	lui	a4, 524288
  10102e: 33 44 c7 00  	xor	s0, a4, a2
  101032: 13 07 d0 02  	li	a4, 45
  101036: 23 80 e7 00  	sb	a4, 0(a5)
  10103a: 93 f4 f8 fd  	andi	s1, a7, -33
  10103e: 93 07 60 04  	li	a5, 70
  101042: 8d 46        	li	a3, 3
  101044: 63 88 f4 00  	beq	s1, a5, 0x101054 <__cvt+0x4c>
  101048: 93 07 50 04  	li	a5, 69
  10104c: 89 46        	li	a3, 2
  10104e: 63 93 f4 00  	bne	s1, a5, 0x101054 <__cvt+0x4c>
  101052: 05 09        	addi	s2, s2, 1
  101054: d6 87        	mv	a5, s5
  101056: 93 08 c1 00  	addi	a7, sp, 12
  10105a: 13 08 81 00  	addi	a6, sp, 8
  10105e: 4a 87        	mv	a4, s2
  101060: d2 85        	mv	a1, s4
  101062: 22 86        	mv	a2, s0
  101064: ef 20 30 72  	jal	0x103f86 <_dtoa_r>
  101068: 93 07 70 04  	li	a5, 71
  10106c: aa 89        	mv	s3, a0
  10106e: 63 95 f4 00  	bne	s1, a5, 0x101078 <__cvt+0x70>
  101072: 13 76 1b 00  	andi	a2, s6, 1
  101076: 29 ca        	beqz	a2, 0x1010c8 <__cvt+0xc0>
  101078: 93 07 60 04  	li	a5, 70
  10107c: 33 8b 29 01  	add	s6, s3, s2
  101080: 63 97 f4 02  	bne	s1, a5, 0x1010ae <__cvt+0xa6>
  101084: 03 c7 09 00  	lbu	a4, 0(s3)
  101088: 93 07 00 03  	li	a5, 48
  10108c: 63 1e f7 00  	bne	a4, a5, 0x1010a8 <__cvt+0xa0>
  101090: 01 46        	li	a2, 0
  101092: 81 46        	li	a3, 0
  101094: 52 85        	mv	a0, s4
  101096: a2 85        	mv	a1, s0
  101098: ef 80 b0 2a  	jal	0x109b42 <__nedf2>
  10109c: 11 c5        	beqz	a0, 0x1010a8 <__cvt+0xa0>
  10109e: 05 46        	li	a2, 1
  1010a0: b3 06 26 41  	sub	a3, a2, s2
  1010a4: 23 a0 da 00  	sw	a3, 0(s5)
  1010a8: 83 a7 0a 00  	lw	a5, 0(s5)
  1010ac: 3e 9b        	add	s6, s6, a5
  1010ae: 01 46        	li	a2, 0
  1010b0: 81 46        	li	a3, 0
  1010b2: 52 85        	mv	a0, s4
  1010b4: a2 85        	mv	a1, s0
  1010b6: ef 80 d0 28  	jal	0x109b42 <__nedf2>
  1010ba: 11 e1        	bnez	a0, 0x1010be <__cvt+0xb6>
  1010bc: 5a c6        	sw	s6, 12(sp)
  1010be: 13 07 00 03  	li	a4, 48
  1010c2: b2 47        	lw	a5, 12(sp)
  1010c4: 63 e2 67 03  	bltu	a5, s6, 0x1010e8 <__cvt+0xe0>
  1010c8: b2 47        	lw	a5, 12(sp)
  1010ca: 42 57        	lw	a4, 48(sp)
  1010cc: b2 50        	lw	ra, 44(sp)
  1010ce: 22 54        	lw	s0, 40(sp)
  1010d0: b3 87 37 41  	sub	a5, a5, s3
  1010d4: 1c c3        	sw	a5, 0(a4)
  1010d6: 92 54        	lw	s1, 36(sp)
  1010d8: 02 59        	lw	s2, 32(sp)
  1010da: 62 4a        	lw	s4, 24(sp)
  1010dc: d2 4a        	lw	s5, 20(sp)
  1010de: 42 4b        	lw	s6, 16(sp)
  1010e0: 4e 85        	mv	a0, s3
  1010e2: f2 49        	lw	s3, 28(sp)
  1010e4: 45 61        	addi	sp, sp, 48
  1010e6: 82 80        	ret
  1010e8: 93 86 17 00  	addi	a3, a5, 1
  1010ec: 36 c6        	sw	a3, 12(sp)
  1010ee: 23 80 e7 00  	sb	a4, 0(a5)
  1010f2: c1 bf        	j	0x1010c2 <__cvt+0xba>

001010f4 <__exponent>:
  1010f4: 23 00 c5 00  	sb	a2, 0(a0)
  1010f8: 93 07 25 00  	addi	a5, a0, 2
  1010fc: 13 07 b0 02  	li	a4, 43
  101100: 63 d6 05 00  	bgez	a1, 0x10110c <__exponent+0x18>
  101104: b3 05 b0 40  	neg	a1, a1
  101108: 13 07 d0 02  	li	a4, 45
  10110c: a3 00 e5 00  	sb	a4, 1(a0)
  101110: 25 47        	li	a4, 9
  101112: 63 52 b7 06  	bge	a4, a1, 0x101176 <__exponent+0x82>
  101116: 41 11        	addi	sp, sp, -16
  101118: 13 07 f1 00  	addi	a4, sp, 15
  10111c: 3a 88        	mv	a6, a4
  10111e: a9 48        	li	a7, 10
  101120: 13 03 30 06  	li	t1, 99
  101124: 33 e6 15 03  	rem	a2, a1, a7
  101128: ba 86        	mv	a3, a4
  10112a: 7d 17        	addi	a4, a4, -1
  10112c: 13 06 06 03  	addi	a2, a2, 48
  101130: a3 8f c6 fe  	sb	a2, -1(a3)
  101134: 2e 86        	mv	a2, a1
  101136: b3 c5 15 03  	div	a1, a1, a7
  10113a: e3 45 c3 fe  	blt	t1, a2, 0x101124 <__exponent+0x30>
  10113e: 93 88 e6 ff  	addi	a7, a3, -2
  101142: 93 85 05 03  	addi	a1, a1, 48
  101146: a3 0f b7 fe  	sb	a1, -1(a4)
  10114a: 3e 86        	mv	a2, a5
  10114c: 46 87        	mv	a4, a7
  10114e: 63 6d 07 01  	bltu	a4, a6, 0x101168 <__exponent+0x74>
  101152: 01 47        	li	a4, 0
  101154: 63 65 18 01  	bltu	a6, a7, 0x10115e <__exponent+0x6a>
  101158: 13 07 11 01  	addi	a4, sp, 17
  10115c: 15 8f        	sub	a4, a4, a3
  10115e: ba 97        	add	a5, a5, a4
  101160: 33 85 a7 40  	sub	a0, a5, a0
  101164: 41 01        	addi	sp, sp, 16
  101166: 82 80        	ret
  101168: 83 45 07 00  	lbu	a1, 0(a4)
  10116c: 05 07        	addi	a4, a4, 1
  10116e: 05 06        	addi	a2, a2, 1
  101170: a3 0f b6 fe  	sb	a1, -1(a2)
  101174: e9 bf        	j	0x10114e <__exponent+0x5a>
  101176: 93 07 00 03  	li	a5, 48
  10117a: 23 01 f5 00  	sb	a5, 2(a0)
  10117e: 93 85 05 03  	addi	a1, a1, 48
  101182: 93 07 45 00  	addi	a5, a0, 4
  101186: a3 01 b5 00  	sb	a1, 3(a0)
  10118a: 33 85 a7 40  	sub	a0, a5, a0
  10118e: 82 80        	ret

00101190 <_printf_float>:
  101190: 19 71        	addi	sp, sp, -128
  101192: 86 de        	sw	ra, 124(sp)
  101194: a2 dc        	sw	s0, 120(sp)
  101196: a6 da        	sw	s1, 116(sp)
  101198: 2e 84        	mv	s0, a1
  10119a: ca d8        	sw	s2, 112(sp)
  10119c: ce d6        	sw	s3, 108(sp)
  10119e: d2 d4        	sw	s4, 104(sp)
  1011a0: d6 d2        	sw	s5, 100(sp)
  1011a2: 3a 8a        	mv	s4, a4
  1011a4: da d0        	sw	s6, 96(sp)
  1011a6: de ce        	sw	s7, 92(sp)
  1011a8: e2 cc        	sw	s8, 88(sp)
  1011aa: 32 89        	mv	s2, a2
  1011ac: b6 89        	mv	s3, a3
  1011ae: e6 ca        	sw	s9, 84(sp)
  1011b0: ea c8        	sw	s10, 80(sp)
  1011b2: ee c6        	sw	s11, 76(sp)
  1011b4: aa 84        	mv	s1, a0
  1011b6: ef 20 50 00  	jal	0x1039ba <_localeconv_r>
  1011ba: 03 2c 05 00  	lw	s8, 0(a0)
  1011be: 62 85        	mv	a0, s8
  1011c0: ef 20 b0 31  	jal	0x103cda <strlen>
  1011c4: 03 2b 04 00  	lw	s6, 0(s0)
  1011c8: 02 dc        	sw	zero, 56(sp)
  1011ca: 83 4a 84 01  	lbu	s5, 24(s0)
  1011ce: 13 77 0b 10  	andi	a4, s6, 256
  1011d2: 83 27 0a 00  	lw	a5, 0(s4)
  1011d6: aa 8b        	mv	s7, a0
  1011d8: 71 c3        	beqz	a4, 0x10129c <_printf_float+0x10c>
  1011da: 13 87 47 00  	addi	a4, a5, 4
  1011de: 23 20 ea 00  	sw	a4, 0(s4)
  1011e2: 9c 43        	lw	a5, 0(a5)
  1011e4: 08 10        	addi	a0, sp, 32
  1011e6: 98 43        	lw	a4, 0(a5)
  1011e8: 3a d0        	sw	a4, 32(sp)
  1011ea: d8 43        	lw	a4, 4(a5)
  1011ec: 3a d2        	sw	a4, 36(sp)
  1011ee: 98 47        	lw	a4, 8(a5)
  1011f0: 3a d4        	sw	a4, 40(sp)
  1011f2: dc 47        	lw	a5, 12(a5)
  1011f4: 3e d6        	sw	a5, 44(sp)
  1011f6: ef a0 c0 27  	jal	0x10b472 <__trunctfdf2>
  1011fa: 28 c4        	sw	a0, 72(s0)
  1011fc: 6c c4        	sw	a1, 76(s0)
  1011fe: 03 2a c4 04  	lw	s4, 76(s0)
  101202: 41 67        	lui	a4, 16
  101204: 83 2c 84 04  	lw	s9, 72(s0)
  101208: 03 2d 07 1d  	lw	s10, 464(a4)
  10120c: 83 2d 47 1d  	lw	s11, 468(a4)
  101210: 93 17 1a 00  	slli	a5, s4, 1
  101214: 85 83        	srli	a5, a5, 1
  101216: 6a 86        	mv	a2, s10
  101218: ee 86        	mv	a3, s11
  10121a: 66 85        	mv	a0, s9
  10121c: be 85        	mv	a1, a5
  10121e: 3e ce        	sw	a5, 28(sp)
  101220: ef 90 10 17  	jal	0x10ab90 <__unorddf2>
  101224: 59 e5        	bnez	a0, 0x1012b2 <_printf_float+0x122>
  101226: f2 47        	lw	a5, 28(sp)
  101228: 6a 86        	mv	a2, s10
  10122a: ee 86        	mv	a3, s11
  10122c: 66 85        	mv	a0, s9
  10122e: be 85        	mv	a1, a5
  101230: ef 80 50 26  	jal	0x109c94 <__ltdf2>
  101234: 63 5f a0 06  	blez	a0, 0x1012b2 <_printf_float+0x122>
  101238: 01 46        	li	a2, 0
  10123a: 81 46        	li	a3, 0
  10123c: 66 85        	mv	a0, s9
  10123e: d2 85        	mv	a1, s4
  101240: ef 80 50 25  	jal	0x109c94 <__ltdf2>
  101244: 63 56 05 00  	bgez	a0, 0x101250 <_printf_float+0xc0>
  101248: 93 07 d0 02  	li	a5, 45
  10124c: a3 01 f4 04  	sb	a5, 67(s0)
  101250: 93 07 70 04  	li	a5, 71
  101254: 63 f3 57 09  	bgeu	a5, s5, 0x1012da <_printf_float+0x14a>
  101258: 13 8a 41 9f  	addi	s4, gp, -1548
  10125c: 13 7b bb ff  	andi	s6, s6, -5
  101260: 8d 47        	li	a5, 3
  101262: 23 20 64 01  	sw	s6, 0(s0)
  101266: 1c c8        	sw	a5, 16(s0)
  101268: 01 4b        	li	s6, 0
  10126a: 4e 87        	mv	a4, s3
  10126c: ca 86        	mv	a3, s2
  10126e: 70 18        	addi	a2, sp, 60
  101270: a2 85        	mv	a1, s0
  101272: 26 85        	mv	a0, s1
  101274: 11 27        	jal	0x101978 <_printf_common>
  101276: fd 5c        	li	s9, -1
  101278: 63 13 95 17  	bne	a0, s9, 0x1013de <_printf_float+0x24e>
  10127c: 7d 55        	li	a0, -1
  10127e: f6 50        	lw	ra, 124(sp)
  101280: 66 54        	lw	s0, 120(sp)
  101282: d6 54        	lw	s1, 116(sp)
  101284: 46 59        	lw	s2, 112(sp)
  101286: b6 59        	lw	s3, 108(sp)
  101288: 26 5a        	lw	s4, 104(sp)
  10128a: 96 5a        	lw	s5, 100(sp)
  10128c: 06 5b        	lw	s6, 96(sp)
  10128e: f6 4b        	lw	s7, 92(sp)
  101290: 66 4c        	lw	s8, 88(sp)
  101292: d6 4c        	lw	s9, 84(sp)
  101294: 46 4d        	lw	s10, 80(sp)
  101296: b6 4d        	lw	s11, 76(sp)
  101298: 09 61        	addi	sp, sp, 128
  10129a: 82 80        	ret
  10129c: 9d 07        	addi	a5, a5, 7
  10129e: e1 9b        	andi	a5, a5, -8
  1012a0: 13 87 87 00  	addi	a4, a5, 8
  1012a4: 23 20 ea 00  	sw	a4, 0(s4)
  1012a8: 98 43        	lw	a4, 0(a5)
  1012aa: dc 43        	lw	a5, 4(a5)
  1012ac: 38 c4        	sw	a4, 72(s0)
  1012ae: 7c c4        	sw	a5, 76(s0)
  1012b0: b9 b7        	j	0x1011fe <_printf_float+0x6e>
  1012b2: 66 86        	mv	a2, s9
  1012b4: d2 86        	mv	a3, s4
  1012b6: 66 85        	mv	a0, s9
  1012b8: d2 85        	mv	a1, s4
  1012ba: ef 90 70 0d  	jal	0x10ab90 <__unorddf2>
  1012be: 05 c5        	beqz	a0, 0x1012e6 <_printf_float+0x156>
  1012c0: 63 56 0a 00  	bgez	s4, 0x1012cc <_printf_float+0x13c>
  1012c4: 93 07 d0 02  	li	a5, 45
  1012c8: a3 01 f4 04  	sb	a5, 67(s0)
  1012cc: 93 07 70 04  	li	a5, 71
  1012d0: 63 f8 57 01  	bgeu	a5, s5, 0x1012e0 <_printf_float+0x150>
  1012d4: 13 8a c1 9f  	addi	s4, gp, -1540
  1012d8: 51 b7        	j	0x10125c <_printf_float+0xcc>
  1012da: 13 8a 01 9f  	addi	s4, gp, -1552
  1012de: bd bf        	j	0x10125c <_printf_float+0xcc>
  1012e0: 13 8a 81 9f  	addi	s4, gp, -1544
  1012e4: a5 bf        	j	0x10125c <_printf_float+0xcc>
  1012e6: 5c 40        	lw	a5, 4(s0)
  1012e8: 7d 57        	li	a4, -1
  1012ea: 13 fd fa 0d  	andi	s10, s5, 223
  1012ee: 63 93 e7 08  	bne	a5, a4, 0x101374 <_printf_float+0x1e4>
  1012f2: 99 47        	li	a5, 6
  1012f4: 5c c0        	sw	a5, 4(s0)
  1012f6: 54 40        	lw	a3, 4(s0)
  1012f8: 13 67 0b 40  	ori	a4, s6, 1024
  1012fc: 3c 18        	addi	a5, sp, 56
  1012fe: 3e c0        	sw	a5, 0(sp)
  101300: 52 86        	mv	a2, s4
  101302: 93 07 31 03  	addi	a5, sp, 51
  101306: e6 85        	mv	a1, s9
  101308: 18 c0        	sw	a4, 0(s0)
  10130a: 02 c2        	sw	zero, 4(sp)
  10130c: d6 88        	mv	a7, s5
  10130e: 13 08 41 03  	addi	a6, sp, 52
  101312: 26 85        	mv	a0, s1
  101314: d5 39        	jal	0x101008 <__cvt>
  101316: 93 07 70 04  	li	a5, 71
  10131a: d2 55        	lw	a1, 52(sp)
  10131c: 2a 8a        	mv	s4, a0
  10131e: 63 1b fd 00  	bne	s10, a5, 0x101334 <_printf_float+0x1a4>
  101322: f5 57        	li	a5, -3
  101324: 63 c5 f5 00  	blt	a1, a5, 0x10132e <_printf_float+0x19e>
  101328: 5c 40        	lw	a5, 4(s0)
  10132a: 63 d7 b7 08  	bge	a5, a1, 0x1013b8 <_printf_float+0x228>
  10132e: f9 1a        	addi	s5, s5, -2
  101330: 93 fa fa 0f  	andi	s5, s5, 255
  101334: 93 07 50 06  	li	a5, 101
  101338: 63 e5 57 05  	bltu	a5, s5, 0x101382 <_printf_float+0x1f2>
  10133c: fd 15        	addi	a1, a1, -1
  10133e: 56 86        	mv	a2, s5
  101340: 13 05 04 05  	addi	a0, s0, 80
  101344: 2e da        	sw	a1, 52(sp)
  101346: 7d 33        	jal	0x1010f4 <__exponent>
  101348: 62 57        	lw	a4, 56(sp)
  10134a: 85 46        	li	a3, 1
  10134c: 2a 8b        	mv	s6, a0
  10134e: b3 07 a7 00  	add	a5, a4, a0
  101352: 1c c8        	sw	a5, 16(s0)
  101354: 63 c5 e6 00  	blt	a3, a4, 0x10135e <_printf_float+0x1ce>
  101358: 18 40        	lw	a4, 0(s0)
  10135a: 05 8b        	andi	a4, a4, 1
  10135c: 19 c3        	beqz	a4, 0x101362 <_printf_float+0x1d2>
  10135e: 85 07        	addi	a5, a5, 1
  101360: 1c c8        	sw	a5, 16(s0)
  101362: 83 47 31 03  	lbu	a5, 51(sp)
  101366: e3 82 07 f0  	beqz	a5, 0x10126a <_printf_float+0xda>
  10136a: 93 07 d0 02  	li	a5, 45
  10136e: a3 01 f4 04  	sb	a5, 67(s0)
  101372: e5 bd        	j	0x10126a <_printf_float+0xda>
  101374: 13 07 70 04  	li	a4, 71
  101378: e3 1f ed f6  	bne	s10, a4, 0x1012f6 <_printf_float+0x166>
  10137c: ad ff        	bnez	a5, 0x1012f6 <_printf_float+0x166>
  10137e: 85 47        	li	a5, 1
  101380: 95 bf        	j	0x1012f4 <_printf_float+0x164>
  101382: 93 07 60 06  	li	a5, 102
  101386: 63 9b fa 02  	bne	s5, a5, 0x1013bc <_printf_float+0x22c>
  10138a: 5c 40        	lw	a5, 4(s0)
  10138c: 63 5b b0 00  	blez	a1, 0x1013a2 <_printf_float+0x212>
  101390: 0c c8        	sw	a1, 16(s0)
  101392: 81 e7        	bnez	a5, 0x10139a <_printf_float+0x20a>
  101394: 18 40        	lw	a4, 0(s0)
  101396: 05 8b        	andi	a4, a4, 1
  101398: 09 cf        	beqz	a4, 0x1013b2 <_printf_float+0x222>
  10139a: 85 07        	addi	a5, a5, 1
  10139c: ae 97        	add	a5, a5, a1
  10139e: 1c c8        	sw	a5, 16(s0)
  1013a0: 09 a8        	j	0x1013b2 <_printf_float+0x222>
  1013a2: 89 e7        	bnez	a5, 0x1013ac <_printf_float+0x21c>
  1013a4: 18 40        	lw	a4, 0(s0)
  1013a6: 85 46        	li	a3, 1
  1013a8: 05 8b        	andi	a4, a4, 1
  1013aa: 19 c3        	beqz	a4, 0x1013b0 <_printf_float+0x220>
  1013ac: 93 86 27 00  	addi	a3, a5, 2
  1013b0: 14 c8        	sw	a3, 16(s0)
  1013b2: 2c cc        	sw	a1, 88(s0)
  1013b4: 01 4b        	li	s6, 0
  1013b6: 75 b7        	j	0x101362 <_printf_float+0x1d2>
  1013b8: 93 0a 70 06  	li	s5, 103
  1013bc: e2 57        	lw	a5, 56(sp)
  1013be: 63 c9 f5 00  	blt	a1, a5, 0x1013d0 <_printf_float+0x240>
  1013c2: 1c 40        	lw	a5, 0(s0)
  1013c4: 0c c8        	sw	a1, 16(s0)
  1013c6: 85 8b        	andi	a5, a5, 1
  1013c8: ed d7        	beqz	a5, 0x1013b2 <_printf_float+0x222>
  1013ca: 93 87 15 00  	addi	a5, a1, 1
  1013ce: c1 bf        	j	0x10139e <_printf_float+0x20e>
  1013d0: 05 47        	li	a4, 1
  1013d2: 63 44 b0 00  	bgtz	a1, 0x1013da <_printf_float+0x24a>
  1013d6: 09 47        	li	a4, 2
  1013d8: 0d 8f        	sub	a4, a4, a1
  1013da: ba 97        	add	a5, a5, a4
  1013dc: c9 b7        	j	0x10139e <_printf_float+0x20e>
  1013de: 1c 40        	lw	a5, 0(s0)
  1013e0: 13 f7 07 40  	andi	a4, a5, 1024
  1013e4: 15 e3        	bnez	a4, 0x101408 <_printf_float+0x278>
  1013e6: 14 48        	lw	a3, 16(s0)
  1013e8: 52 86        	mv	a2, s4
  1013ea: ca 85        	mv	a1, s2
  1013ec: 26 85        	mv	a0, s1
  1013ee: 82 99        	jalr	s3
  1013f0: e3 06 95 e9  	beq	a0, s9, 0x10127c <_printf_float+0xec>
  1013f4: 1c 40        	lw	a5, 0(s0)
  1013f6: 89 8b        	andi	a5, a5, 2
  1013f8: 63 94 07 24  	bnez	a5, 0x101640 <_printf_float+0x4b0>
  1013fc: f2 57        	lw	a5, 60(sp)
  1013fe: 48 44        	lw	a0, 12(s0)
  101400: e3 5f f5 e6  	bge	a0, a5, 0x10127e <_printf_float+0xee>
  101404: 3e 85        	mv	a0, a5
  101406: a5 bd        	j	0x10127e <_printf_float+0xee>
  101408: 13 07 50 06  	li	a4, 101
  10140c: 63 79 57 19  	bgeu	a4, s5, 0x10159e <_printf_float+0x40e>
  101410: 28 44        	lw	a0, 72(s0)
  101412: 6c 44        	lw	a1, 76(s0)
  101414: 01 46        	li	a2, 0
  101416: 81 46        	li	a3, 0
  101418: ef 80 a0 72  	jal	0x109b42 <__nedf2>
  10141c: 29 e9        	bnez	a0, 0x10146e <_printf_float+0x2de>
  10141e: 85 46        	li	a3, 1
  101420: 13 86 01 a0  	addi	a2, gp, -1536
  101424: ca 85        	mv	a1, s2
  101426: 26 85        	mv	a0, s1
  101428: 82 99        	jalr	s3
  10142a: e3 09 95 e5  	beq	a0, s9, 0x10127c <_printf_float+0xec>
  10142e: 52 57        	lw	a4, 52(sp)
  101430: e2 57        	lw	a5, 56(sp)
  101432: 63 45 f7 00  	blt	a4, a5, 0x10143c <_printf_float+0x2ac>
  101436: 1c 40        	lw	a5, 0(s0)
  101438: 85 8b        	andi	a5, a5, 1
  10143a: cd df        	beqz	a5, 0x1013f4 <_printf_float+0x264>
  10143c: de 86        	mv	a3, s7
  10143e: 62 86        	mv	a2, s8
  101440: ca 85        	mv	a1, s2
  101442: 26 85        	mv	a0, s1
  101444: 82 99        	jalr	s3
  101446: fd 57        	li	a5, -1
  101448: e3 0a f5 e2  	beq	a0, a5, 0x10127c <_printf_float+0xec>
  10144c: 01 4a        	li	s4, 0
  10144e: 93 0a a4 01  	addi	s5, s0, 26
  101452: 7d 5b        	li	s6, -1
  101454: e2 57        	lw	a5, 56(sp)
  101456: fd 17        	addi	a5, a5, -1
  101458: e3 5e fa f8  	bge	s4, a5, 0x1013f4 <_printf_float+0x264>
  10145c: 85 46        	li	a3, 1
  10145e: 56 86        	mv	a2, s5
  101460: ca 85        	mv	a1, s2
  101462: 26 85        	mv	a0, s1
  101464: 82 99        	jalr	s3
  101466: e3 0b 65 e1  	beq	a0, s6, 0x10127c <_printf_float+0xec>
  10146a: 05 0a        	addi	s4, s4, 1
  10146c: e5 b7        	j	0x101454 <_printf_float+0x2c4>
  10146e: d2 57        	lw	a5, 52(sp)
  101470: 63 44 f0 06  	bgtz	a5, 0x1014d8 <_printf_float+0x348>
  101474: 85 46        	li	a3, 1
  101476: 13 86 01 a0  	addi	a2, gp, -1536
  10147a: ca 85        	mv	a1, s2
  10147c: 26 85        	mv	a0, s1
  10147e: 82 99        	jalr	s3
  101480: e3 0e 95 df  	beq	a0, s9, 0x10127c <_printf_float+0xec>
  101484: d2 57        	lw	a5, 52(sp)
  101486: 62 57        	lw	a4, 56(sp)
  101488: d9 8f        	or	a5, a5, a4
  10148a: 81 e7        	bnez	a5, 0x101492 <_printf_float+0x302>
  10148c: 1c 40        	lw	a5, 0(s0)
  10148e: 85 8b        	andi	a5, a5, 1
  101490: b5 d3        	beqz	a5, 0x1013f4 <_printf_float+0x264>
  101492: de 86        	mv	a3, s7
  101494: 62 86        	mv	a2, s8
  101496: ca 85        	mv	a1, s2
  101498: 26 85        	mv	a0, s1
  10149a: 82 99        	jalr	s3
  10149c: fd 57        	li	a5, -1
  10149e: e3 0f f5 dc  	beq	a0, a5, 0x10127c <_printf_float+0xec>
  1014a2: 81 4a        	li	s5, 0
  1014a4: 13 0b a4 01  	addi	s6, s0, 26
  1014a8: fd 5b        	li	s7, -1
  1014aa: d2 57        	lw	a5, 52(sp)
  1014ac: b3 07 f0 40  	neg	a5, a5
  1014b0: 63 cb fa 00  	blt	s5, a5, 0x1014c6 <_printf_float+0x336>
  1014b4: e2 56        	lw	a3, 56(sp)
  1014b6: 52 86        	mv	a2, s4
  1014b8: ca 85        	mv	a1, s2
  1014ba: 26 85        	mv	a0, s1
  1014bc: 82 99        	jalr	s3
  1014be: fd 57        	li	a5, -1
  1014c0: e3 1a f5 f2  	bne	a0, a5, 0x1013f4 <_printf_float+0x264>
  1014c4: 65 bb        	j	0x10127c <_printf_float+0xec>
  1014c6: 85 46        	li	a3, 1
  1014c8: 5a 86        	mv	a2, s6
  1014ca: ca 85        	mv	a1, s2
  1014cc: 26 85        	mv	a0, s1
  1014ce: 82 99        	jalr	s3
  1014d0: e3 06 75 db  	beq	a0, s7, 0x10127c <_printf_float+0xec>
  1014d4: 85 0a        	addi	s5, s5, 1
  1014d6: d1 bf        	j	0x1014aa <_printf_float+0x31a>
  1014d8: 3c 4c        	lw	a5, 88(s0)
  1014da: e2 5a        	lw	s5, 56(sp)
  1014dc: 63 d3 57 01  	bge	a5, s5, 0x1014e2 <_printf_float+0x352>
  1014e0: be 8a        	mv	s5, a5
  1014e2: 63 49 50 07  	bgtz	s5, 0x101554 <_printf_float+0x3c4>
  1014e6: 01 4b        	li	s6, 0
  1014e8: 13 0d a4 01  	addi	s10, s0, 26
  1014ec: fd 5d        	li	s11, -1
  1014ee: 83 2c 84 05  	lw	s9, 88(s0)
  1014f2: d6 87        	mv	a5, s5
  1014f4: 63 d3 0a 00  	bgez	s5, 0x1014fa <_printf_float+0x36a>
  1014f8: 81 47        	li	a5, 0
  1014fa: b3 87 fc 40  	sub	a5, s9, a5
  1014fe: 63 44 fb 06  	blt	s6, a5, 0x101566 <_printf_float+0x3d6>
  101502: 52 57        	lw	a4, 52(sp)
  101504: e2 57        	lw	a5, 56(sp)
  101506: 63 49 f7 06  	blt	a4, a5, 0x101578 <_printf_float+0x3e8>
  10150a: 1c 40        	lw	a5, 0(s0)
  10150c: 85 8b        	andi	a5, a5, 1
  10150e: ad e7        	bnez	a5, 0x101578 <_printf_float+0x3e8>
  101510: e2 5a        	lw	s5, 56(sp)
  101512: 52 57        	lw	a4, 52(sp)
  101514: b3 87 9a 41  	sub	a5, s5, s9
  101518: b3 8a ea 40  	sub	s5, s5, a4
  10151c: 63 d3 57 01  	bge	a5, s5, 0x101522 <_printf_float+0x392>
  101520: be 8a        	mv	s5, a5
  101522: 63 44 50 07  	bgtz	s5, 0x10158a <_printf_float+0x3fa>
  101526: 01 4a        	li	s4, 0
  101528: 13 0b a4 01  	addi	s6, s0, 26
  10152c: fd 5b        	li	s7, -1
  10152e: 52 57        	lw	a4, 52(sp)
  101530: e2 57        	lw	a5, 56(sp)
  101532: 99 8f        	sub	a5, a5, a4
  101534: 56 87        	mv	a4, s5
  101536: 63 d3 0a 00  	bgez	s5, 0x10153c <_printf_float+0x3ac>
  10153a: 01 47        	li	a4, 0
  10153c: 99 8f        	sub	a5, a5, a4
  10153e: e3 5b fa ea  	bge	s4, a5, 0x1013f4 <_printf_float+0x264>
  101542: 85 46        	li	a3, 1
  101544: 5a 86        	mv	a2, s6
  101546: ca 85        	mv	a1, s2
  101548: 26 85        	mv	a0, s1
  10154a: 82 99        	jalr	s3
  10154c: e3 08 75 d3  	beq	a0, s7, 0x10127c <_printf_float+0xec>
  101550: 05 0a        	addi	s4, s4, 1
  101552: f1 bf        	j	0x10152e <_printf_float+0x39e>
  101554: d6 86        	mv	a3, s5
  101556: 52 86        	mv	a2, s4
  101558: ca 85        	mv	a1, s2
  10155a: 26 85        	mv	a0, s1
  10155c: 82 99        	jalr	s3
  10155e: fd 57        	li	a5, -1
  101560: e3 13 f5 f8  	bne	a0, a5, 0x1014e6 <_printf_float+0x356>
  101564: 21 bb        	j	0x10127c <_printf_float+0xec>
  101566: 85 46        	li	a3, 1
  101568: 6a 86        	mv	a2, s10
  10156a: ca 85        	mv	a1, s2
  10156c: 26 85        	mv	a0, s1
  10156e: 82 99        	jalr	s3
  101570: e3 06 b5 d1  	beq	a0, s11, 0x10127c <_printf_float+0xec>
  101574: 05 0b        	addi	s6, s6, 1
  101576: a5 bf        	j	0x1014ee <_printf_float+0x35e>
  101578: de 86        	mv	a3, s7
  10157a: 62 86        	mv	a2, s8
  10157c: ca 85        	mv	a1, s2
  10157e: 26 85        	mv	a0, s1
  101580: 82 99        	jalr	s3
  101582: fd 57        	li	a5, -1
  101584: e3 16 f5 f8  	bne	a0, a5, 0x101510 <_printf_float+0x380>
  101588: d5 b9        	j	0x10127c <_printf_float+0xec>
  10158a: d6 86        	mv	a3, s5
  10158c: 33 06 9a 01  	add	a2, s4, s9
  101590: ca 85        	mv	a1, s2
  101592: 26 85        	mv	a0, s1
  101594: 82 99        	jalr	s3
  101596: fd 57        	li	a5, -1
  101598: e3 17 f5 f8  	bne	a0, a5, 0x101526 <_printf_float+0x396>
  10159c: c5 b1        	j	0x10127c <_printf_float+0xec>
  10159e: e2 56        	lw	a3, 56(sp)
  1015a0: 05 47        	li	a4, 1
  1015a2: 63 44 d7 00  	blt	a4, a3, 0x1015aa <_printf_float+0x41a>
  1015a6: 85 8b        	andi	a5, a5, 1
  1015a8: b5 c7        	beqz	a5, 0x101614 <_printf_float+0x484>
  1015aa: 85 46        	li	a3, 1
  1015ac: 52 86        	mv	a2, s4
  1015ae: ca 85        	mv	a1, s2
  1015b0: 26 85        	mv	a0, s1
  1015b2: 82 99        	jalr	s3
  1015b4: fd 5a        	li	s5, -1
  1015b6: e3 03 55 cd  	beq	a0, s5, 0x10127c <_printf_float+0xec>
  1015ba: de 86        	mv	a3, s7
  1015bc: 62 86        	mv	a2, s8
  1015be: ca 85        	mv	a1, s2
  1015c0: 26 85        	mv	a0, s1
  1015c2: 82 99        	jalr	s3
  1015c4: e3 0c 55 cb  	beq	a0, s5, 0x10127c <_printf_float+0xec>
  1015c8: 28 44        	lw	a0, 72(s0)
  1015ca: 6c 44        	lw	a1, 76(s0)
  1015cc: 01 46        	li	a2, 0
  1015ce: 81 46        	li	a3, 0
  1015d0: ef 80 20 57  	jal	0x109b42 <__nedf2>
  1015d4: 1d c9        	beqz	a0, 0x10160a <_printf_float+0x47a>
  1015d6: e2 56        	lw	a3, 56(sp)
  1015d8: 13 06 1a 00  	addi	a2, s4, 1
  1015dc: ca 85        	mv	a1, s2
  1015de: fd 16        	addi	a3, a3, -1
  1015e0: 26 85        	mv	a0, s1
  1015e2: 82 99        	jalr	s3
  1015e4: e3 0c 55 c9  	beq	a0, s5, 0x10127c <_printf_float+0xec>
  1015e8: da 86        	mv	a3, s6
  1015ea: 13 06 04 05  	addi	a2, s0, 80
  1015ee: e9 b5        	j	0x1014b8 <_printf_float+0x328>
  1015f0: 85 46        	li	a3, 1
  1015f2: 56 86        	mv	a2, s5
  1015f4: ca 85        	mv	a1, s2
  1015f6: 26 85        	mv	a0, s1
  1015f8: 82 99        	jalr	s3
  1015fa: e3 01 75 c9  	beq	a0, s7, 0x10127c <_printf_float+0xec>
  1015fe: 05 0a        	addi	s4, s4, 1
  101600: e2 57        	lw	a5, 56(sp)
  101602: fd 17        	addi	a5, a5, -1
  101604: e3 46 fa fe  	blt	s4, a5, 0x1015f0 <_printf_float+0x460>
  101608: c5 b7        	j	0x1015e8 <_printf_float+0x458>
  10160a: 01 4a        	li	s4, 0
  10160c: 93 0a a4 01  	addi	s5, s0, 26
  101610: fd 5b        	li	s7, -1
  101612: fd b7        	j	0x101600 <_printf_float+0x470>
  101614: 85 46        	li	a3, 1
  101616: 52 86        	mv	a2, s4
  101618: ca 85        	mv	a1, s2
  10161a: 26 85        	mv	a0, s1
  10161c: 82 99        	jalr	s3
  10161e: e3 15 95 fd  	bne	a0, s9, 0x1015e8 <_printf_float+0x458>
  101622: a9 b9        	j	0x10127c <_printf_float+0xec>
  101624: 85 46        	li	a3, 1
  101626: 56 86        	mv	a2, s5
  101628: ca 85        	mv	a1, s2
  10162a: 26 85        	mv	a0, s1
  10162c: 82 99        	jalr	s3
  10162e: e3 07 65 c5  	beq	a0, s6, 0x10127c <_printf_float+0xec>
  101632: 05 0a        	addi	s4, s4, 1
  101634: 5c 44        	lw	a5, 12(s0)
  101636: 72 57        	lw	a4, 60(sp)
  101638: 99 8f        	sub	a5, a5, a4
  10163a: e3 45 fa fe  	blt	s4, a5, 0x101624 <_printf_float+0x494>
  10163e: 7d bb        	j	0x1013fc <_printf_float+0x26c>
  101640: 01 4a        	li	s4, 0
  101642: 93 0a 94 01  	addi	s5, s0, 25
  101646: 7d 5b        	li	s6, -1
  101648: f5 b7        	j	0x101634 <_printf_float+0x4a4>

0010164a <__sfputc_r>:
  10164a: 1c 46        	lw	a5, 8(a2)
  10164c: fd 17        	addi	a5, a5, -1
  10164e: 1c c6        	sw	a5, 8(a2)
  101650: 63 da 07 00  	bgez	a5, 0x101664 <__sfputc_r+0x1a>
  101654: 18 4e        	lw	a4, 24(a2)
  101656: 63 c5 e7 00  	blt	a5, a4, 0x101660 <__sfputc_r+0x16>
  10165a: a9 47        	li	a5, 10
  10165c: 63 94 f5 00  	bne	a1, a5, 0x101664 <__sfputc_r+0x1a>
  101660: 6f 20 60 02  	j	0x103686 <__swbuf_r>
  101664: 1c 42        	lw	a5, 0(a2)
  101666: 2e 85        	mv	a0, a1
  101668: 13 87 17 00  	addi	a4, a5, 1
  10166c: 18 c2        	sw	a4, 0(a2)
  10166e: 23 80 b7 00  	sb	a1, 0(a5)
  101672: 82 80        	ret

00101674 <__sfputs_r>:
  101674: 01 11        	addi	sp, sp, -32
  101676: 22 cc        	sw	s0, 24(sp)
  101678: 26 ca        	sw	s1, 20(sp)
  10167a: 4a c8        	sw	s2, 16(sp)
  10167c: 4e c6        	sw	s3, 12(sp)
  10167e: 52 c4        	sw	s4, 8(sp)
  101680: 06 ce        	sw	ra, 28(sp)
  101682: 2a 89        	mv	s2, a0
  101684: ae 89        	mv	s3, a1
  101686: 32 84        	mv	s0, a2
  101688: b3 04 d6 00  	add	s1, a2, a3
  10168c: 7d 5a        	li	s4, -1
  10168e: 63 14 94 00  	bne	s0, s1, 0x101696 <__sfputs_r+0x22>
  101692: 01 45        	li	a0, 0
  101694: 09 a8        	j	0x1016a6 <__sfputs_r+0x32>
  101696: 83 45 04 00  	lbu	a1, 0(s0)
  10169a: 4e 86        	mv	a2, s3
  10169c: 4a 85        	mv	a0, s2
  10169e: 75 37        	jal	0x10164a <__sfputc_r>
  1016a0: 05 04        	addi	s0, s0, 1
  1016a2: e3 16 45 ff  	bne	a0, s4, 0x10168e <__sfputs_r+0x1a>
  1016a6: f2 40        	lw	ra, 28(sp)
  1016a8: 62 44        	lw	s0, 24(sp)
  1016aa: d2 44        	lw	s1, 20(sp)
  1016ac: 42 49        	lw	s2, 16(sp)
  1016ae: b2 49        	lw	s3, 12(sp)
  1016b0: 22 4a        	lw	s4, 8(sp)
  1016b2: 05 61        	addi	sp, sp, 32
  1016b4: 82 80        	ret

001016b6 <__sprint_r>:
  1016b6: 1c 46        	lw	a5, 8(a2)
  1016b8: 41 11        	addi	sp, sp, -16
  1016ba: 22 c4        	sw	s0, 8(sp)
  1016bc: 06 c6        	sw	ra, 12(sp)
  1016be: 32 84        	mv	s0, a2
  1016c0: 81 eb        	bnez	a5, 0x1016d0 <__sprint_r+0x1a>
  1016c2: 23 22 06 00  	sw	zero, 4(a2)
  1016c6: 01 45        	li	a0, 0
  1016c8: b2 40        	lw	ra, 12(sp)
  1016ca: 22 44        	lw	s0, 8(sp)
  1016cc: 41 01        	addi	sp, sp, 16
  1016ce: 82 80        	ret
  1016d0: ef 10 40 2e  	jal	0x1029b4 <__sfvwrite_r>
  1016d4: 23 24 04 00  	sw	zero, 8(s0)
  1016d8: 23 22 04 00  	sw	zero, 4(s0)
  1016dc: f5 b7        	j	0x1016c8 <__sprint_r+0x12>

001016de <_vfprintf_r>:
  1016de: 71 71        	addi	sp, sp, -176
  1016e0: 22 d5        	sw	s0, 168(sp)
  1016e2: 26 d3        	sw	s1, 164(sp)
  1016e4: 4a d1        	sw	s2, 160(sp)
  1016e6: 4e cf        	sw	s3, 156(sp)
  1016e8: 06 d7        	sw	ra, 172(sp)
  1016ea: 52 cd        	sw	s4, 152(sp)
  1016ec: 56 cb        	sw	s5, 148(sp)
  1016ee: 5a c9        	sw	s6, 144(sp)
  1016f0: 5e c7        	sw	s7, 140(sp)
  1016f2: 62 c5        	sw	s8, 136(sp)
  1016f4: 66 c3        	sw	s9, 132(sp)
  1016f6: 6a c1        	sw	s10, 128(sp)
  1016f8: ee de        	sw	s11, 124(sp)
  1016fa: aa 89        	mv	s3, a0
  1016fc: ae 84        	mv	s1, a1
  1016fe: 32 89        	mv	s2, a2
  101700: 36 84        	mv	s0, a3
  101702: 09 c5        	beqz	a0, 0x10170c <_vfprintf_r+0x2e>
  101704: 1c 55        	lw	a5, 40(a0)
  101706: 99 e3        	bnez	a5, 0x10170c <_vfprintf_r+0x2e>
  101708: ef 00 90 66  	jal	0x102570 <__sinit>
  10170c: 93 87 41 b3  	addi	a5, gp, -1228
  101710: 63 91 f4 0e  	bne	s1, a5, 0x1017f2 <_vfprintf_r+0x114>
  101714: 83 a4 49 00  	lw	s1, 4(s3)
  101718: 83 d7 c4 00  	lhu	a5, 12(s1)
  10171c: a1 8b        	andi	a5, a5, 8
  10171e: 63 88 07 0e  	beqz	a5, 0x10180e <_vfprintf_r+0x130>
  101722: 9c 48        	lw	a5, 16(s1)
  101724: 63 85 07 0e  	beqz	a5, 0x10180e <_vfprintf_r+0x130>
  101728: 93 07 00 02  	li	a5, 32
  10172c: a3 04 f1 02  	sb	a5, 41(sp)
  101730: b7 1a 10 00  	lui	s5, 257
  101734: 93 07 00 03  	li	a5, 48
  101738: 02 d2        	sw	zero, 36(sp)
  10173a: 23 05 f1 02  	sb	a5, 42(sp)
  10173e: 22 c6        	sw	s0, 12(sp)
  101740: 93 0c 50 02  	li	s9, 37
  101744: 37 1c 10 00  	lui	s8, 257
  101748: 93 8a 0a 19  	addi	s5, s5, 400
  10174c: 4a 84        	mv	s0, s2
  10174e: 83 47 04 00  	lbu	a5, 0(s0)
  101752: 99 c3        	beqz	a5, 0x101758 <_vfprintf_r+0x7a>
  101754: 63 93 97 0f  	bne	a5, s9, 0x10183a <_vfprintf_r+0x15c>
  101758: b3 0d 24 41  	sub	s11, s0, s2
  10175c: 63 0d 24 01  	beq	s0, s2, 0x101776 <_vfprintf_r+0x98>
  101760: ee 86        	mv	a3, s11
  101762: 4a 86        	mv	a2, s2
  101764: a6 85        	mv	a1, s1
  101766: 4e 85        	mv	a0, s3
  101768: 31 37        	jal	0x101674 <__sfputs_r>
  10176a: fd 57        	li	a5, -1
  10176c: 63 00 f5 1e  	beq	a0, a5, 0x10194c <_vfprintf_r+0x26e>
  101770: 92 57        	lw	a5, 36(sp)
  101772: ee 97        	add	a5, a5, s11
  101774: 3e d2        	sw	a5, 36(sp)
  101776: 83 47 04 00  	lbu	a5, 0(s0)
  10177a: 63 89 07 1c  	beqz	a5, 0x10194c <_vfprintf_r+0x26e>
  10177e: fd 57        	li	a5, -1
  101780: 13 09 14 00  	addi	s2, s0, 1
  101784: 02 c8        	sw	zero, 16(sp)
  101786: 02 ce        	sw	zero, 28(sp)
  101788: 3e ca        	sw	a5, 20(sp)
  10178a: 02 cc        	sw	zero, 24(sp)
  10178c: a3 09 01 04  	sb	zero, 83(sp)
  101790: 82 d4        	sw	zero, 104(sp)
  101792: 85 4d        	li	s11, 1
  101794: 83 45 09 00  	lbu	a1, 0(s2)
  101798: 15 46        	li	a2, 5
  10179a: 13 85 41 a0  	addi	a0, gp, -1532
  10179e: ef 20 c0 1f  	jal	0x10399a <memchr>
  1017a2: c2 47        	lw	a5, 16(sp)
  1017a4: 13 04 19 00  	addi	s0, s2, 1
  1017a8: 59 e9        	bnez	a0, 0x10183e <_vfprintf_r+0x160>
  1017aa: 13 f7 07 01  	andi	a4, a5, 16
  1017ae: 09 c7        	beqz	a4, 0x1017b8 <_vfprintf_r+0xda>
  1017b0: 13 07 00 02  	li	a4, 32
  1017b4: a3 09 e1 04  	sb	a4, 83(sp)
  1017b8: 13 f7 87 00  	andi	a4, a5, 8
  1017bc: 09 c7        	beqz	a4, 0x1017c6 <_vfprintf_r+0xe8>
  1017be: 13 07 b0 02  	li	a4, 43
  1017c2: a3 09 e1 04  	sb	a4, 83(sp)
  1017c6: 83 46 09 00  	lbu	a3, 0(s2)
  1017ca: 13 07 a0 02  	li	a4, 42
  1017ce: 63 81 e6 08  	beq	a3, a4, 0x101850 <_vfprintf_r+0x172>
  1017d2: f2 47        	lw	a5, 28(sp)
  1017d4: 4a 84        	mv	s0, s2
  1017d6: 81 46        	li	a3, 0
  1017d8: 25 46        	li	a2, 9
  1017da: 29 45        	li	a0, 10
  1017dc: 03 47 04 00  	lbu	a4, 0(s0)
  1017e0: 93 05 14 00  	addi	a1, s0, 1
  1017e4: 13 07 07 fd  	addi	a4, a4, -48
  1017e8: 63 79 e6 0a  	bgeu	a2, a4, 0x10189a <_vfprintf_r+0x1bc>
  1017ec: b5 ca        	beqz	a3, 0x101860 <_vfprintf_r+0x182>
  1017ee: 3e ce        	sw	a5, 28(sp)
  1017f0: 85 a8        	j	0x101860 <_vfprintf_r+0x182>
  1017f2: 93 87 41 b5  	addi	a5, gp, -1196
  1017f6: 63 95 f4 00  	bne	s1, a5, 0x101800 <_vfprintf_r+0x122>
  1017fa: 83 a4 89 00  	lw	s1, 8(s3)
  1017fe: 29 bf        	j	0x101718 <_vfprintf_r+0x3a>
  101800: 93 87 41 b1  	addi	a5, gp, -1260
  101804: e3 9a f4 f0  	bne	s1, a5, 0x101718 <_vfprintf_r+0x3a>
  101808: 83 a4 c9 00  	lw	s1, 12(s3)
  10180c: 31 b7        	j	0x101718 <_vfprintf_r+0x3a>
  10180e: a6 85        	mv	a1, s1
  101810: 4e 85        	mv	a0, s3
  101812: ef 10 90 73  	jal	0x10374a <__swsetup_r>
  101816: e3 09 05 f0  	beqz	a0, 0x101728 <_vfprintf_r+0x4a>
  10181a: 7d 55        	li	a0, -1
  10181c: ba 50        	lw	ra, 172(sp)
  10181e: 2a 54        	lw	s0, 168(sp)
  101820: 9a 54        	lw	s1, 164(sp)
  101822: 0a 59        	lw	s2, 160(sp)
  101824: fa 49        	lw	s3, 156(sp)
  101826: 6a 4a        	lw	s4, 152(sp)
  101828: da 4a        	lw	s5, 148(sp)
  10182a: 4a 4b        	lw	s6, 144(sp)
  10182c: ba 4b        	lw	s7, 140(sp)
  10182e: 2a 4c        	lw	s8, 136(sp)
  101830: 9a 4c        	lw	s9, 132(sp)
  101832: 0a 4d        	lw	s10, 128(sp)
  101834: f6 5d        	lw	s11, 124(sp)
  101836: 4d 61        	addi	sp, sp, 176
  101838: 82 80        	ret
  10183a: 05 04        	addi	s0, s0, 1
  10183c: 09 bf        	j	0x10174e <_vfprintf_r+0x70>
  10183e: 13 87 41 a0  	addi	a4, gp, -1532
  101842: 19 8d        	sub	a0, a0, a4
  101844: 33 95 ad 00  	sll	a0, s11, a0
  101848: c9 8f        	or	a5, a5, a0
  10184a: 3e c8        	sw	a5, 16(sp)
  10184c: 22 89        	mv	s2, s0
  10184e: 99 b7        	j	0x101794 <_vfprintf_r+0xb6>
  101850: 32 47        	lw	a4, 12(sp)
  101852: 93 06 47 00  	addi	a3, a4, 4
  101856: 18 43        	lw	a4, 0(a4)
  101858: 36 c6        	sw	a3, 12(sp)
  10185a: 63 49 07 02  	bltz	a4, 0x10188c <_vfprintf_r+0x1ae>
  10185e: 3a ce        	sw	a4, 28(sp)
  101860: 03 47 04 00  	lbu	a4, 0(s0)
  101864: 93 07 e0 02  	li	a5, 46
  101868: 63 10 f7 06  	bne	a4, a5, 0x1018c8 <_vfprintf_r+0x1ea>
  10186c: 03 47 14 00  	lbu	a4, 1(s0)
  101870: 93 07 a0 02  	li	a5, 42
  101874: 63 1b f7 02  	bne	a4, a5, 0x1018aa <_vfprintf_r+0x1cc>
  101878: b2 47        	lw	a5, 12(sp)
  10187a: 09 04        	addi	s0, s0, 2
  10187c: 13 87 47 00  	addi	a4, a5, 4
  101880: 9c 43        	lw	a5, 0(a5)
  101882: 3a c6        	sw	a4, 12(sp)
  101884: 63 c1 07 02  	bltz	a5, 0x1018a6 <_vfprintf_r+0x1c8>
  101888: 3e ca        	sw	a5, 20(sp)
  10188a: 3d a8        	j	0x1018c8 <_vfprintf_r+0x1ea>
  10188c: 33 07 e0 40  	neg	a4, a4
  101890: 93 e7 27 00  	ori	a5, a5, 2
  101894: 3a ce        	sw	a4, 28(sp)
  101896: 3e c8        	sw	a5, 16(sp)
  101898: e1 b7        	j	0x101860 <_vfprintf_r+0x182>
  10189a: b3 87 a7 02  	mul	a5, a5, a0
  10189e: 2e 84        	mv	s0, a1
  1018a0: 85 46        	li	a3, 1
  1018a2: ba 97        	add	a5, a5, a4
  1018a4: 25 bf        	j	0x1017dc <_vfprintf_r+0xfe>
  1018a6: fd 57        	li	a5, -1
  1018a8: c5 b7        	j	0x101888 <_vfprintf_r+0x1aa>
  1018aa: 05 04        	addi	s0, s0, 1
  1018ac: 02 ca        	sw	zero, 20(sp)
  1018ae: 81 46        	li	a3, 0
  1018b0: 81 47        	li	a5, 0
  1018b2: 25 46        	li	a2, 9
  1018b4: 29 45        	li	a0, 10
  1018b6: 03 47 04 00  	lbu	a4, 0(s0)
  1018ba: 93 05 14 00  	addi	a1, s0, 1
  1018be: 13 07 07 fd  	addi	a4, a4, -48
  1018c2: 63 7f e6 04  	bgeu	a2, a4, 0x101920 <_vfprintf_r+0x242>
  1018c6: e9 f2        	bnez	a3, 0x101888 <_vfprintf_r+0x1aa>
  1018c8: 83 45 04 00  	lbu	a1, 0(s0)
  1018cc: 0d 46        	li	a2, 3
  1018ce: 13 85 c1 a0  	addi	a0, gp, -1524
  1018d2: ef 20 80 0c  	jal	0x10399a <memchr>
  1018d6: 01 cd        	beqz	a0, 0x1018ee <_vfprintf_r+0x210>
  1018d8: 93 87 c1 a0  	addi	a5, gp, -1524
  1018dc: 1d 8d        	sub	a0, a0, a5
  1018de: 93 07 00 04  	li	a5, 64
  1018e2: b3 97 a7 00  	sll	a5, a5, a0
  1018e6: 42 45        	lw	a0, 16(sp)
  1018e8: 05 04        	addi	s0, s0, 1
  1018ea: 5d 8d        	or	a0, a0, a5
  1018ec: 2a c8        	sw	a0, 16(sp)
  1018ee: 83 45 04 00  	lbu	a1, 0(s0)
  1018f2: 19 46        	li	a2, 6
  1018f4: 13 85 01 a1  	addi	a0, gp, -1520
  1018f8: 13 09 14 00  	addi	s2, s0, 1
  1018fc: 23 04 b1 02  	sb	a1, 40(sp)
  101900: ef 20 a0 09  	jal	0x10399a <memchr>
  101904: 21 cd        	beqz	a0, 0x10195c <_vfprintf_r+0x27e>
  101906: 63 97 0a 02  	bnez	s5, 0x101934 <_vfprintf_r+0x256>
  10190a: 42 47        	lw	a4, 16(sp)
  10190c: b2 47        	lw	a5, 12(sp)
  10190e: 13 77 07 10  	andi	a4, a4, 256
  101912: 09 cf        	beqz	a4, 0x10192c <_vfprintf_r+0x24e>
  101914: 91 07        	addi	a5, a5, 4
  101916: 3e c6        	sw	a5, 12(sp)
  101918: 92 57        	lw	a5, 36(sp)
  10191a: d2 97        	add	a5, a5, s4
  10191c: 3e d2        	sw	a5, 36(sp)
  10191e: 3d b5        	j	0x10174c <_vfprintf_r+0x6e>
  101920: b3 87 a7 02  	mul	a5, a5, a0
  101924: 2e 84        	mv	s0, a1
  101926: 85 46        	li	a3, 1
  101928: ba 97        	add	a5, a5, a4
  10192a: 71 b7        	j	0x1018b6 <_vfprintf_r+0x1d8>
  10192c: 9d 07        	addi	a5, a5, 7
  10192e: e1 9b        	andi	a5, a5, -8
  101930: a1 07        	addi	a5, a5, 8
  101932: d5 b7        	j	0x101916 <_vfprintf_r+0x238>
  101934: 78 00        	addi	a4, sp, 12
  101936: 93 06 4c 67  	addi	a3, s8, 1652
  10193a: 26 86        	mv	a2, s1
  10193c: 0c 08        	addi	a1, sp, 16
  10193e: 4e 85        	mv	a0, s3
  101940: ef f0 1f 85  	jal	0x101190 <_printf_float>
  101944: fd 57        	li	a5, -1
  101946: 2a 8a        	mv	s4, a0
  101948: e3 18 f5 fc  	bne	a0, a5, 0x101918 <_vfprintf_r+0x23a>
  10194c: 83 d7 c4 00  	lhu	a5, 12(s1)
  101950: 93 f7 07 04  	andi	a5, a5, 64
  101954: e3 93 07 ec  	bnez	a5, 0x10181a <_vfprintf_r+0x13c>
  101958: 12 55        	lw	a0, 36(sp)
  10195a: c9 b5        	j	0x10181c <_vfprintf_r+0x13e>
  10195c: 78 00        	addi	a4, sp, 12
  10195e: 93 06 4c 67  	addi	a3, s8, 1652
  101962: 26 86        	mv	a2, s1
  101964: 0c 08        	addi	a1, sp, 16
  101966: 4e 85        	mv	a0, s3
  101968: 31 2a        	jal	0x101a84 <_printf_i>
  10196a: e9 bf        	j	0x101944 <_vfprintf_r+0x266>

0010196c <vfprintf>:
  10196c: b2 86        	mv	a3, a2
  10196e: 2e 86        	mv	a2, a1
  101970: aa 85        	mv	a1, a0
  101972: 03 a5 41 8a  	lw	a0, -1884(gp)
  101976: a5 b3        	j	0x1016de <_vfprintf_r>

00101978 <_printf_common>:
  101978: 79 71        	addi	sp, sp, -48
  10197a: 52 cc        	sw	s4, 24(sp)
  10197c: 9c 49        	lw	a5, 16(a1)
  10197e: 3a 8a        	mv	s4, a4
  101980: 98 45        	lw	a4, 8(a1)
  101982: 22 d4        	sw	s0, 40(sp)
  101984: 26 d2        	sw	s1, 36(sp)
  101986: 4e ce        	sw	s3, 28(sp)
  101988: 56 ca        	sw	s5, 20(sp)
  10198a: 06 d6        	sw	ra, 44(sp)
  10198c: 4a d0        	sw	s2, 32(sp)
  10198e: 5a c8        	sw	s6, 16(sp)
  101990: 5e c6        	sw	s7, 12(sp)
  101992: aa 89        	mv	s3, a0
  101994: 2e 84        	mv	s0, a1
  101996: b2 84        	mv	s1, a2
  101998: b6 8a        	mv	s5, a3
  10199a: 63 d3 e7 00  	bge	a5, a4, 0x1019a0 <_printf_common+0x28>
  10199e: ba 87        	mv	a5, a4
  1019a0: 9c c0        	sw	a5, 0(s1)
  1019a2: 03 47 34 04  	lbu	a4, 67(s0)
  1019a6: 19 c3        	beqz	a4, 0x1019ac <_printf_common+0x34>
  1019a8: 85 07        	addi	a5, a5, 1
  1019aa: 9c c0        	sw	a5, 0(s1)
  1019ac: 1c 40        	lw	a5, 0(s0)
  1019ae: 93 f7 07 02  	andi	a5, a5, 32
  1019b2: 81 c7        	beqz	a5, 0x1019ba <_printf_common+0x42>
  1019b4: 9c 40        	lw	a5, 0(s1)
  1019b6: 89 07        	addi	a5, a5, 2
  1019b8: 9c c0        	sw	a5, 0(s1)
  1019ba: 03 29 04 00  	lw	s2, 0(s0)
  1019be: 13 79 69 00  	andi	s2, s2, 6
  1019c2: 63 1a 09 00  	bnez	s2, 0x1019d6 <_printf_common+0x5e>
  1019c6: 13 0b 94 01  	addi	s6, s0, 25
  1019ca: fd 5b        	li	s7, -1
  1019cc: 5c 44        	lw	a5, 12(s0)
  1019ce: 98 40        	lw	a4, 0(s1)
  1019d0: 99 8f        	sub	a5, a5, a4
  1019d2: 63 4c f9 04  	blt	s2, a5, 0x101a2a <_printf_common+0xb2>
  1019d6: 83 47 34 04  	lbu	a5, 67(s0)
  1019da: b3 36 f0 00  	snez	a3, a5
  1019de: 1c 40        	lw	a5, 0(s0)
  1019e0: 93 f7 07 02  	andi	a5, a5, 32
  1019e4: a5 eb        	bnez	a5, 0x101a54 <_printf_common+0xdc>
  1019e6: 13 06 34 04  	addi	a2, s0, 67
  1019ea: d6 85        	mv	a1, s5
  1019ec: 4e 85        	mv	a0, s3
  1019ee: 02 9a        	jalr	s4
  1019f0: fd 57        	li	a5, -1
  1019f2: 63 03 f5 04  	beq	a0, a5, 0x101a38 <_printf_common+0xc0>
  1019f6: 1c 40        	lw	a5, 0(s0)
  1019f8: 11 46        	li	a2, 4
  1019fa: 98 40        	lw	a4, 0(s1)
  1019fc: 99 8b        	andi	a5, a5, 6
  1019fe: 54 44        	lw	a3, 12(s0)
  101a00: 81 44        	li	s1, 0
  101a02: 63 97 c7 00  	bne	a5, a2, 0x101a10 <_printf_common+0x98>
  101a06: b3 84 e6 40  	sub	s1, a3, a4
  101a0a: 63 d3 04 00  	bgez	s1, 0x101a10 <_printf_common+0x98>
  101a0e: 81 44        	li	s1, 0
  101a10: 1c 44        	lw	a5, 8(s0)
  101a12: 18 48        	lw	a4, 16(s0)
  101a14: 63 54 f7 00  	bge	a4, a5, 0x101a1c <_printf_common+0xa4>
  101a18: 99 8f        	sub	a5, a5, a4
  101a1a: be 94        	add	s1, s1, a5
  101a1c: 01 49        	li	s2, 0
  101a1e: 69 04        	addi	s0, s0, 26
  101a20: 7d 5b        	li	s6, -1
  101a22: 63 98 24 05  	bne	s1, s2, 0x101a72 <_printf_common+0xfa>
  101a26: 01 45        	li	a0, 0
  101a28: 09 a8        	j	0x101a3a <_printf_common+0xc2>
  101a2a: 85 46        	li	a3, 1
  101a2c: 5a 86        	mv	a2, s6
  101a2e: d6 85        	mv	a1, s5
  101a30: 4e 85        	mv	a0, s3
  101a32: 02 9a        	jalr	s4
  101a34: 63 1e 75 01  	bne	a0, s7, 0x101a50 <_printf_common+0xd8>
  101a38: 7d 55        	li	a0, -1
  101a3a: b2 50        	lw	ra, 44(sp)
  101a3c: 22 54        	lw	s0, 40(sp)
  101a3e: 92 54        	lw	s1, 36(sp)
  101a40: 02 59        	lw	s2, 32(sp)
  101a42: f2 49        	lw	s3, 28(sp)
  101a44: 62 4a        	lw	s4, 24(sp)
  101a46: d2 4a        	lw	s5, 20(sp)
  101a48: 42 4b        	lw	s6, 16(sp)
  101a4a: b2 4b        	lw	s7, 12(sp)
  101a4c: 45 61        	addi	sp, sp, 48
  101a4e: 82 80        	ret
  101a50: 05 09        	addi	s2, s2, 1
  101a52: ad bf        	j	0x1019cc <_printf_common+0x54>
  101a54: 33 07 d4 00  	add	a4, s0, a3
  101a58: 13 06 00 03  	li	a2, 48
  101a5c: a3 01 c7 04  	sb	a2, 67(a4)
  101a60: 03 47 54 04  	lbu	a4, 69(s0)
  101a64: 93 87 16 00  	addi	a5, a3, 1
  101a68: a2 97        	add	a5, a5, s0
  101a6a: 89 06        	addi	a3, a3, 2
  101a6c: a3 81 e7 04  	sb	a4, 67(a5)
  101a70: 9d bf        	j	0x1019e6 <_printf_common+0x6e>
  101a72: 85 46        	li	a3, 1
  101a74: 22 86        	mv	a2, s0
  101a76: d6 85        	mv	a1, s5
  101a78: 4e 85        	mv	a0, s3
  101a7a: 02 9a        	jalr	s4
  101a7c: e3 0e 65 fb  	beq	a0, s6, 0x101a38 <_printf_common+0xc0>
  101a80: 05 09        	addi	s2, s2, 1
  101a82: 45 b7        	j	0x101a22 <_printf_common+0xaa>

00101a84 <_printf_i>:
  101a84: 79 71        	addi	sp, sp, -48
  101a86: 22 d4        	sw	s0, 40(sp)
  101a88: 26 d2        	sw	s1, 36(sp)
  101a8a: 4a d0        	sw	s2, 32(sp)
  101a8c: 4e ce        	sw	s3, 28(sp)
  101a8e: 06 d6        	sw	ra, 44(sp)
  101a90: 52 cc        	sw	s4, 24(sp)
  101a92: 56 ca        	sw	s5, 20(sp)
  101a94: 5a c8        	sw	s6, 16(sp)
  101a96: 83 c8 85 01  	lbu	a7, 24(a1)
  101a9a: 93 07 80 07  	li	a5, 120
  101a9e: aa 84        	mv	s1, a0
  101aa0: 2e 84        	mv	s0, a1
  101aa2: 32 89        	mv	s2, a2
  101aa4: b6 89        	mv	s3, a3
  101aa6: 63 ee 17 01  	bltu	a5, a7, 0x101ac2 <_printf_i+0x3e>
  101aaa: 93 07 20 06  	li	a5, 98
  101aae: 93 86 35 04  	addi	a3, a1, 67
  101ab2: 63 ed 17 01  	bltu	a5, a7, 0x101acc <_printf_i+0x48>
  101ab6: 63 88 08 1a  	beqz	a7, 0x101c66 <_printf_i+0x1e2>
  101aba: 93 07 80 05  	li	a5, 88
  101abe: 63 83 f8 12  	beq	a7, a5, 0x101be4 <_printf_i+0x160>
  101ac2: 93 0a 24 04  	addi	s5, s0, 66
  101ac6: 23 01 14 05  	sb	a7, 66(s0)
  101aca: 3d a0        	j	0x101af8 <_printf_i+0x74>
  101acc: 93 87 d8 f9  	addi	a5, a7, -99
  101ad0: 93 f7 f7 0f  	andi	a5, a5, 255
  101ad4: 55 46        	li	a2, 21
  101ad6: e3 66 f6 fe  	bltu	a2, a5, 0x101ac2 <_printf_i+0x3e>
  101ada: 8a 07        	slli	a5, a5, 2
  101adc: 13 86 01 a4  	addi	a2, gp, -1472
  101ae0: b2 97        	add	a5, a5, a2
  101ae2: 9c 43        	lw	a5, 0(a5)
  101ae4: 82 87        	jr	a5
  101ae6: 1c 43        	lw	a5, 0(a4)
  101ae8: 93 8a 25 04  	addi	s5, a1, 66
  101aec: 93 86 47 00  	addi	a3, a5, 4
  101af0: 9c 43        	lw	a5, 0(a5)
  101af2: 14 c3        	sw	a3, 0(a4)
  101af4: 23 81 f5 04  	sb	a5, 66(a1)
  101af8: 85 47        	li	a5, 1
  101afa: 51 aa        	j	0x101c8e <_printf_i+0x20a>
  101afc: 9c 41        	lw	a5, 0(a1)
  101afe: 08 43        	lw	a0, 0(a4)
  101b00: 13 f6 07 08  	andi	a2, a5, 128
  101b04: 93 05 45 00  	addi	a1, a0, 4
  101b08: 19 ce        	beqz	a2, 0x101b26 <_printf_i+0xa2>
  101b0a: 1c 41        	lw	a5, 0(a0)
  101b0c: 0c c3        	sw	a1, 0(a4)
  101b0e: 63 d8 07 00  	bgez	a5, 0x101b1e <_printf_i+0x9a>
  101b12: 13 07 d0 02  	li	a4, 45
  101b16: b3 07 f0 40  	neg	a5, a5
  101b1a: a3 01 e4 04  	sb	a4, 67(s0)
  101b1e: 13 88 81 a1  	addi	a6, gp, -1512
  101b22: 29 47        	li	a4, 10
  101b24: 91 a0        	j	0x101b68 <_printf_i+0xe4>
  101b26: 13 f6 07 04  	andi	a2, a5, 64
  101b2a: 1c 41        	lw	a5, 0(a0)
  101b2c: 0c c3        	sw	a1, 0(a4)
  101b2e: 65 d2        	beqz	a2, 0x101b0e <_printf_i+0x8a>
  101b30: c2 07        	slli	a5, a5, 16
  101b32: c1 87        	srai	a5, a5, 16
  101b34: e9 bf        	j	0x101b0e <_printf_i+0x8a>
  101b36: 90 41        	lw	a2, 0(a1)
  101b38: 1c 43        	lw	a5, 0(a4)
  101b3a: 13 75 06 08  	andi	a0, a2, 128
  101b3e: 93 85 47 00  	addi	a1, a5, 4
  101b42: 01 c5        	beqz	a0, 0x101b4a <_printf_i+0xc6>
  101b44: 0c c3        	sw	a1, 0(a4)
  101b46: 9c 43        	lw	a5, 0(a5)
  101b48: 39 a0        	j	0x101b56 <_printf_i+0xd2>
  101b4a: 13 76 06 04  	andi	a2, a2, 64
  101b4e: 0c c3        	sw	a1, 0(a4)
  101b50: 7d da        	beqz	a2, 0x101b46 <_printf_i+0xc2>
  101b52: 83 d7 07 00  	lhu	a5, 0(a5)
  101b56: 13 07 f0 06  	li	a4, 111
  101b5a: 13 88 81 a1  	addi	a6, gp, -1512
  101b5e: 63 8e e8 0c  	beq	a7, a4, 0x101c3a <_printf_i+0x1b6>
  101b62: 29 47        	li	a4, 10
  101b64: a3 01 04 04  	sb	zero, 67(s0)
  101b68: 50 40        	lw	a2, 4(s0)
  101b6a: 10 c4        	sw	a2, 8(s0)
  101b6c: 63 45 06 00  	bltz	a2, 0x101b76 <_printf_i+0xf2>
  101b70: 0c 40        	lw	a1, 0(s0)
  101b72: ed 99        	andi	a1, a1, -5
  101b74: 0c c0        	sw	a1, 0(s0)
  101b76: 99 e3        	bnez	a5, 0x101b7c <_printf_i+0xf8>
  101b78: b6 8a        	mv	s5, a3
  101b7a: 19 ce        	beqz	a2, 0x101b98 <_printf_i+0x114>
  101b7c: b6 8a        	mv	s5, a3
  101b7e: 33 f6 e7 02  	remu	a2, a5, a4
  101b82: fd 1a        	addi	s5, s5, -1
  101b84: 42 96        	add	a2, a2, a6
  101b86: 03 46 06 00  	lbu	a2, 0(a2)
  101b8a: 23 80 ca 00  	sb	a2, 0(s5)
  101b8e: 3e 86        	mv	a2, a5
  101b90: b3 d7 e7 02  	divu	a5, a5, a4
  101b94: e3 75 e6 fe  	bgeu	a2, a4, 0x101b7e <_printf_i+0xfa>
  101b98: a1 47        	li	a5, 8
  101b9a: 63 1e f7 00  	bne	a4, a5, 0x101bb6 <_printf_i+0x132>
  101b9e: 1c 40        	lw	a5, 0(s0)
  101ba0: 85 8b        	andi	a5, a5, 1
  101ba2: 91 cb        	beqz	a5, 0x101bb6 <_printf_i+0x132>
  101ba4: 58 40        	lw	a4, 4(s0)
  101ba6: 1c 48        	lw	a5, 16(s0)
  101ba8: 63 c7 e7 00  	blt	a5, a4, 0x101bb6 <_printf_i+0x132>
  101bac: 93 07 00 03  	li	a5, 48
  101bb0: a3 8f fa fe  	sb	a5, -1(s5)
  101bb4: fd 1a        	addi	s5, s5, -1
  101bb6: b3 86 56 41  	sub	a3, a3, s5
  101bba: 14 c8        	sw	a3, 16(s0)
  101bbc: 4e 87        	mv	a4, s3
  101bbe: ca 86        	mv	a3, s2
  101bc0: 70 00        	addi	a2, sp, 12
  101bc2: a2 85        	mv	a1, s0
  101bc4: 26 85        	mv	a0, s1
  101bc6: 4d 3b        	jal	0x101978 <_printf_common>
  101bc8: 7d 5a        	li	s4, -1
  101bca: 63 16 45 0d  	bne	a0, s4, 0x101c96 <_printf_i+0x212>
  101bce: 7d 55        	li	a0, -1
  101bd0: b2 50        	lw	ra, 44(sp)
  101bd2: 22 54        	lw	s0, 40(sp)
  101bd4: 92 54        	lw	s1, 36(sp)
  101bd6: 02 59        	lw	s2, 32(sp)
  101bd8: f2 49        	lw	s3, 28(sp)
  101bda: 62 4a        	lw	s4, 24(sp)
  101bdc: d2 4a        	lw	s5, 20(sp)
  101bde: 42 4b        	lw	s6, 16(sp)
  101be0: 45 61        	addi	sp, sp, 48
  101be2: 82 80        	ret
  101be4: a3 82 15 05  	sb	a7, 69(a1)
  101be8: 13 88 81 a1  	addi	a6, gp, -1512
  101bec: 10 40        	lw	a2, 0(s0)
  101bee: 0c 43        	lw	a1, 0(a4)
  101bf0: 13 75 06 08  	andi	a0, a2, 128
  101bf4: 9c 41        	lw	a5, 0(a1)
  101bf6: 91 05        	addi	a1, a1, 4
  101bf8: 15 c9        	beqz	a0, 0x101c2c <_printf_i+0x1a8>
  101bfa: 0c c3        	sw	a1, 0(a4)
  101bfc: 13 77 16 00  	andi	a4, a2, 1
  101c00: 01 c7        	beqz	a4, 0x101c08 <_printf_i+0x184>
  101c02: 13 66 06 02  	ori	a2, a2, 32
  101c06: 10 c0        	sw	a2, 0(s0)
  101c08: 41 47        	li	a4, 16
  101c0a: a9 ff        	bnez	a5, 0x101b64 <_printf_i+0xe0>
  101c0c: 10 40        	lw	a2, 0(s0)
  101c0e: 13 76 f6 fd  	andi	a2, a2, -33
  101c12: 10 c0        	sw	a2, 0(s0)
  101c14: 81 bf        	j	0x101b64 <_printf_i+0xe0>
  101c16: 9c 41        	lw	a5, 0(a1)
  101c18: 93 e7 07 02  	ori	a5, a5, 32
  101c1c: 9c c1        	sw	a5, 0(a1)
  101c1e: 93 07 80 07  	li	a5, 120
  101c22: a3 02 f4 04  	sb	a5, 69(s0)
  101c26: 13 88 c1 a2  	addi	a6, gp, -1492
  101c2a: c9 b7        	j	0x101bec <_printf_i+0x168>
  101c2c: 13 75 06 04  	andi	a0, a2, 64
  101c30: 0c c3        	sw	a1, 0(a4)
  101c32: 69 d5        	beqz	a0, 0x101bfc <_printf_i+0x178>
  101c34: c2 07        	slli	a5, a5, 16
  101c36: c1 83        	srli	a5, a5, 16
  101c38: d1 b7        	j	0x101bfc <_printf_i+0x178>
  101c3a: 21 47        	li	a4, 8
  101c3c: 25 b7        	j	0x101b64 <_printf_i+0xe0>
  101c3e: 90 41        	lw	a2, 0(a1)
  101c40: 1c 43        	lw	a5, 0(a4)
  101c42: cc 49        	lw	a1, 20(a1)
  101c44: 13 78 06 08  	andi	a6, a2, 128
  101c48: 13 85 47 00  	addi	a0, a5, 4
  101c4c: 63 06 08 00  	beqz	a6, 0x101c58 <_printf_i+0x1d4>
  101c50: 08 c3        	sw	a0, 0(a4)
  101c52: 9c 43        	lw	a5, 0(a5)
  101c54: 8c c3        	sw	a1, 0(a5)
  101c56: 01 a8        	j	0x101c66 <_printf_i+0x1e2>
  101c58: 08 c3        	sw	a0, 0(a4)
  101c5a: 13 76 06 04  	andi	a2, a2, 64
  101c5e: 9c 43        	lw	a5, 0(a5)
  101c60: 75 da        	beqz	a2, 0x101c54 <_printf_i+0x1d0>
  101c62: 23 90 b7 00  	sh	a1, 0(a5)
  101c66: 23 28 04 00  	sw	zero, 16(s0)
  101c6a: b6 8a        	mv	s5, a3
  101c6c: 81 bf        	j	0x101bbc <_printf_i+0x138>
  101c6e: 1c 43        	lw	a5, 0(a4)
  101c70: d0 41        	lw	a2, 4(a1)
  101c72: 81 45        	li	a1, 0
  101c74: 93 86 47 00  	addi	a3, a5, 4
  101c78: 14 c3        	sw	a3, 0(a4)
  101c7a: 83 aa 07 00  	lw	s5, 0(a5)
  101c7e: 56 85        	mv	a0, s5
  101c80: ef 10 b0 51  	jal	0x10399a <memchr>
  101c84: 01 c5        	beqz	a0, 0x101c8c <_printf_i+0x208>
  101c86: 33 05 55 41  	sub	a0, a0, s5
  101c8a: 48 c0        	sw	a0, 4(s0)
  101c8c: 5c 40        	lw	a5, 4(s0)
  101c8e: 1c c8        	sw	a5, 16(s0)
  101c90: a3 01 04 04  	sb	zero, 67(s0)
  101c94: 25 b7        	j	0x101bbc <_printf_i+0x138>
  101c96: 14 48        	lw	a3, 16(s0)
  101c98: 56 86        	mv	a2, s5
  101c9a: ca 85        	mv	a1, s2
  101c9c: 26 85        	mv	a0, s1
  101c9e: 82 99        	jalr	s3
  101ca0: e3 07 45 f3  	beq	a0, s4, 0x101bce <_printf_i+0x14a>
  101ca4: 1c 40        	lw	a5, 0(s0)
  101ca6: 89 8b        	andi	a5, a5, 2
  101ca8: 8d e7        	bnez	a5, 0x101cd2 <_printf_i+0x24e>
  101caa: b2 47        	lw	a5, 12(sp)
  101cac: 48 44        	lw	a0, 12(s0)
  101cae: e3 51 f5 f2  	bge	a0, a5, 0x101bd0 <_printf_i+0x14c>
  101cb2: 3e 85        	mv	a0, a5
  101cb4: 31 bf        	j	0x101bd0 <_printf_i+0x14c>
  101cb6: 85 46        	li	a3, 1
  101cb8: 56 86        	mv	a2, s5
  101cba: ca 85        	mv	a1, s2
  101cbc: 26 85        	mv	a0, s1
  101cbe: 82 99        	jalr	s3
  101cc0: e3 07 65 f1  	beq	a0, s6, 0x101bce <_printf_i+0x14a>
  101cc4: 05 0a        	addi	s4, s4, 1
  101cc6: 5c 44        	lw	a5, 12(s0)
  101cc8: 32 47        	lw	a4, 12(sp)
  101cca: 99 8f        	sub	a5, a5, a4
  101ccc: e3 45 fa fe  	blt	s4, a5, 0x101cb6 <_printf_i+0x232>
  101cd0: e9 bf        	j	0x101caa <_printf_i+0x226>
  101cd2: 01 4a        	li	s4, 0
  101cd4: 93 0a 94 01  	addi	s5, s0, 25
  101cd8: 7d 5b        	li	s6, -1
  101cda: f5 b7        	j	0x101cc6 <_printf_i+0x242>

00101cdc <_scanf_float>:
  101cdc: 9c 45        	lw	a5, 8(a1)
  101cde: 1d 71        	addi	sp, sp, -96
  101ce0: a2 cc        	sw	s0, 88(sp)
  101ce2: ce c6        	sw	s3, 76(sp)
  101ce4: d2 c4        	sw	s4, 72(sp)
  101ce6: d6 c2        	sw	s5, 68(sp)
  101ce8: b2 89        	mv	s3, a2
  101cea: 86 ce        	sw	ra, 92(sp)
  101cec: a6 ca        	sw	s1, 84(sp)
  101cee: ca c8        	sw	s2, 80(sp)
  101cf0: da c0        	sw	s6, 64(sp)
  101cf2: 5e de        	sw	s7, 60(sp)
  101cf4: 62 dc        	sw	s8, 56(sp)
  101cf6: 66 da        	sw	s9, 52(sp)
  101cf8: 6a d8        	sw	s10, 48(sp)
  101cfa: 6e d6        	sw	s11, 44(sp)
  101cfc: 13 86 f7 ff  	addi	a2, a5, -1
  101d00: 13 07 c0 15  	li	a4, 348
  101d04: b6 8a        	mv	s5, a3
  101d06: 2a 8a        	mv	s4, a0
  101d08: 2e 84        	mv	s0, a1
  101d0a: 81 46        	li	a3, 0
  101d0c: 63 77 c7 00  	bgeu	a4, a2, 0x101d1a <_scanf_float+0x3e>
  101d10: 93 86 37 ea  	addi	a3, a5, -349
  101d14: 93 07 d0 15  	li	a5, 349
  101d18: 9c c5        	sw	a5, 8(a1)
  101d1a: 1c 40        	lw	a5, 0(s0)
  101d1c: 13 0b c4 01  	addi	s6, s0, 28
  101d20: 93 e7 07 78  	ori	a5, a5, 1920
  101d24: 1c c0        	sw	a5, 0(s0)
  101d26: da 84        	mv	s1, s6
  101d28: 01 49        	li	s2, 0
  101d2a: 81 4d        	li	s11, 0
  101d2c: 01 4c        	li	s8, 0
  101d2e: 81 4c        	li	s9, 0
  101d30: 01 4d        	li	s10, 0
  101d32: 81 4b        	li	s7, 0
  101d34: 13 03 e0 04  	li	t1, 78
  101d38: 13 0e 00 40  	li	t3, 1024
  101d3c: 13 86 01 aa  	addi	a2, gp, -1376
  101d40: 13 88 01 aa  	addi	a6, gp, -1376
  101d44: 93 88 81 ad  	addi	a7, gp, -1320
  101d48: 0c 44        	lw	a1, 8(s0)
  101d4a: 95 c1        	beqz	a1, 0x101d6e <_scanf_float+0x92>
  101d4c: 83 a7 09 00  	lw	a5, 0(s3)
  101d50: 83 c7 07 00  	lbu	a5, 0(a5)
  101d54: 63 63 f3 08  	bltu	t1, a5, 0x101dda <_scanf_float+0xfe>
  101d58: 13 07 00 04  	li	a4, 64
  101d5c: 63 61 f7 06  	bltu	a4, a5, 0x101dbe <_scanf_float+0xe2>
  101d60: 13 87 57 fd  	addi	a4, a5, -43
  101d64: 13 77 f7 0f  	andi	a4, a4, 255
  101d68: 39 45        	li	a0, 14
  101d6a: 63 74 e5 06  	bgeu	a0, a4, 0x101dd2 <_scanf_float+0xf6>
  101d6e: 63 06 0d 00  	beqz	s10, 0x101d7a <_scanf_float+0x9e>
  101d72: 1c 40        	lw	a5, 0(s0)
  101d74: 93 f7 f7 ef  	andi	a5, a5, -257
  101d78: 1c c0        	sw	a5, 0(s0)
  101d7a: fd 1d        	addi	s11, s11, -1
  101d7c: 85 47        	li	a5, 1
  101d7e: 63 e2 b7 21  	bltu	a5, s11, 0x101f82 <_scanf_float+0x2a6>
  101d82: 63 64 9b 1e  	bltu	s6, s1, 0x101f6a <_scanf_float+0x28e>
  101d86: 05 49        	li	s2, 1
  101d88: f6 40        	lw	ra, 92(sp)
  101d8a: 66 44        	lw	s0, 88(sp)
  101d8c: d6 44        	lw	s1, 84(sp)
  101d8e: b6 49        	lw	s3, 76(sp)
  101d90: 26 4a        	lw	s4, 72(sp)
  101d92: 96 4a        	lw	s5, 68(sp)
  101d94: 06 4b        	lw	s6, 64(sp)
  101d96: f2 5b        	lw	s7, 60(sp)
  101d98: 62 5c        	lw	s8, 56(sp)
  101d9a: d2 5c        	lw	s9, 52(sp)
  101d9c: 42 5d        	lw	s10, 48(sp)
  101d9e: b2 5d        	lw	s11, 44(sp)
  101da0: 4a 85        	mv	a0, s2
  101da2: 46 49        	lw	s2, 80(sp)
  101da4: 25 61        	addi	sp, sp, 96
  101da6: 82 80        	ret
  101da8: 13 87 f7 f9  	addi	a4, a5, -97
  101dac: 13 77 f7 0f  	andi	a4, a4, 255
  101db0: b5 45        	li	a1, 13
  101db2: e3 ee e5 fa  	bltu	a1, a4, 0x101d6e <_scanf_float+0x92>
  101db6: 0a 07        	slli	a4, a4, 2
  101db8: 32 97        	add	a4, a4, a2
  101dba: 18 43        	lw	a4, 0(a4)
  101dbc: 02 87        	jr	a4
  101dbe: 13 87 f7 fb  	addi	a4, a5, -65
  101dc2: 13 77 f7 0f  	andi	a4, a4, 255
  101dc6: b5 45        	li	a1, 13
  101dc8: e3 e3 e5 fa  	bltu	a1, a4, 0x101d6e <_scanf_float+0x92>
  101dcc: 0a 07        	slli	a4, a4, 2
  101dce: 42 97        	add	a4, a4, a6
  101dd0: ed b7        	j	0x101dba <_scanf_float+0xde>
  101dd2: 0a 07        	slli	a4, a4, 2
  101dd4: 46 97        	add	a4, a4, a7
  101dd6: 18 43        	lw	a4, 0(a4)
  101dd8: 02 87        	jr	a4
  101dda: 13 07 e0 06  	li	a4, 110
  101dde: 63 63 f7 02  	bltu	a4, a5, 0x101e04 <_scanf_float+0x128>
  101de2: 13 07 00 06  	li	a4, 96
  101de6: e3 61 f7 fc  	bltu	a4, a5, 0x101da8 <_scanf_float+0xcc>
  101dea: 13 07 40 05  	li	a4, 84
  101dee: 63 81 e7 10  	beq	a5, a4, 0x101ef0 <_scanf_float+0x214>
  101df2: 13 07 90 05  	li	a4, 89
  101df6: e3 9c e7 f6  	bne	a5, a4, 0x101d6e <_scanf_float+0x92>
  101dfa: 1d 47        	li	a4, 7
  101dfc: e3 19 e9 f6  	bne	s2, a4, 0x101d6e <_scanf_float+0x92>
  101e00: 21 49        	li	s2, 8
  101e02: b1 a8        	j	0x101e5e <_scanf_float+0x182>
  101e04: 13 07 40 07  	li	a4, 116
  101e08: 63 84 e7 0e  	beq	a5, a4, 0x101ef0 <_scanf_float+0x214>
  101e0c: 13 07 90 07  	li	a4, 121
  101e10: dd b7        	j	0x101df6 <_scanf_float+0x11a>
  101e12: 18 40        	lw	a4, 0(s0)
  101e14: 13 75 07 10  	andi	a0, a4, 256
  101e18: 05 cd        	beqz	a0, 0x101e50 <_scanf_float+0x174>
  101e1a: 13 77 f7 f7  	andi	a4, a4, -129
  101e1e: 18 c0        	sw	a4, 0(s0)
  101e20: 05 0d        	addi	s10, s10, 1
  101e22: 81 c6        	beqz	a3, 0x101e2a <_scanf_float+0x14e>
  101e24: 85 05        	addi	a1, a1, 1
  101e26: fd 16        	addi	a3, a3, -1
  101e28: 0c c4        	sw	a1, 8(s0)
  101e2a: 1c 44        	lw	a5, 8(s0)
  101e2c: fd 17        	addi	a5, a5, -1
  101e2e: 1c c4        	sw	a5, 8(s0)
  101e30: 1c 48        	lw	a5, 16(s0)
  101e32: 85 07        	addi	a5, a5, 1
  101e34: 1c c8        	sw	a5, 16(s0)
  101e36: 83 a7 49 00  	lw	a5, 4(s3)
  101e3a: fd 17        	addi	a5, a5, -1
  101e3c: 23 a2 f9 00  	sw	a5, 4(s3)
  101e40: 63 51 f0 10  	blez	a5, 0x101f42 <_scanf_float+0x266>
  101e44: 83 a7 09 00  	lw	a5, 0(s3)
  101e48: 85 07        	addi	a5, a5, 1
  101e4a: 23 a0 f9 00  	sw	a5, 0(s3)
  101e4e: ed bd        	j	0x101d48 <_scanf_float+0x6c>
  101e50: 33 87 2d 01  	add	a4, s11, s2
  101e54: 09 ff        	bnez	a4, 0x101d6e <_scanf_float+0x92>
  101e56: 18 40        	lw	a4, 0(s0)
  101e58: 13 77 f7 e7  	andi	a4, a4, -385
  101e5c: 18 c0        	sw	a4, 0(s0)
  101e5e: 23 80 f4 00  	sb	a5, 0(s1)
  101e62: 85 04        	addi	s1, s1, 1
  101e64: d9 b7        	j	0x101e2a <_scanf_float+0x14e>
  101e66: 18 40        	lw	a4, 0(s0)
  101e68: 93 75 07 08  	andi	a1, a4, 128
  101e6c: 89 d1        	beqz	a1, 0x101d6e <_scanf_float+0x92>
  101e6e: 13 77 f7 f7  	andi	a4, a4, -129
  101e72: ed b7        	j	0x101e5c <_scanf_float+0x180>
  101e74: 63 90 0d 02  	bnez	s11, 0x101e94 <_scanf_float+0x1b8>
  101e78: 63 11 0d 02  	bnez	s10, 0x101e9a <_scanf_float+0x1be>
  101e7c: 18 40        	lw	a4, 0(s0)
  101e7e: 93 05 00 70  	li	a1, 1792
  101e82: 13 75 07 70  	andi	a0, a4, 1792
  101e86: 63 1a b5 00  	bne	a0, a1, 0x101e9a <_scanf_float+0x1be>
  101e8a: 13 77 f7 87  	andi	a4, a4, -1921
  101e8e: 18 c0        	sw	a4, 0(s0)
  101e90: 85 4d        	li	s11, 1
  101e92: f1 b7        	j	0x101e5e <_scanf_float+0x182>
  101e94: 09 47        	li	a4, 2
  101e96: 63 84 ed 0a  	beq	s11, a4, 0x101f3e <_scanf_float+0x262>
  101e9a: 05 47        	li	a4, 1
  101e9c: 63 05 e9 00  	beq	s2, a4, 0x101ea6 <_scanf_float+0x1ca>
  101ea0: 11 47        	li	a4, 4
  101ea2: e3 16 e9 ec  	bne	s2, a4, 0x101d6e <_scanf_float+0x92>
  101ea6: 05 09        	addi	s2, s2, 1
  101ea8: 13 79 f9 0f  	andi	s2, s2, 255
  101eac: 4d bf        	j	0x101e5e <_scanf_float+0x182>
  101eae: 05 47        	li	a4, 1
  101eb0: e3 9f ed ea  	bne	s11, a4, 0x101d6e <_scanf_float+0x92>
  101eb4: 89 4d        	li	s11, 2
  101eb6: 65 b7        	j	0x101e5e <_scanf_float+0x182>
  101eb8: 63 10 09 02  	bnez	s2, 0x101ed8 <_scanf_float+0x1fc>
  101ebc: e3 1b 0d ea  	bnez	s10, 0x101d72 <_scanf_float+0x96>
  101ec0: 18 40        	lw	a4, 0(s0)
  101ec2: 93 05 00 70  	li	a1, 1792
  101ec6: 13 75 07 70  	andi	a0, a4, 1792
  101eca: e3 18 b5 ea  	bne	a0, a1, 0x101d7a <_scanf_float+0x9e>
  101ece: 13 77 f7 87  	andi	a4, a4, -1921
  101ed2: 18 c0        	sw	a4, 0(s0)
  101ed4: 05 49        	li	s2, 1
  101ed6: 61 b7        	j	0x101e5e <_scanf_float+0x182>
  101ed8: 13 07 d9 ff  	addi	a4, s2, -3
  101edc: 13 77 d7 0f  	andi	a4, a4, 253
  101ee0: e3 17 07 e8  	bnez	a4, 0x101d6e <_scanf_float+0x92>
  101ee4: c9 b7        	j	0x101ea6 <_scanf_float+0x1ca>
  101ee6: 09 47        	li	a4, 2
  101ee8: e3 13 e9 e8  	bne	s2, a4, 0x101d6e <_scanf_float+0x92>
  101eec: 0d 49        	li	s2, 3
  101eee: 85 bf        	j	0x101e5e <_scanf_float+0x182>
  101ef0: 19 47        	li	a4, 6
  101ef2: e3 1e e9 e6  	bne	s2, a4, 0x101d6e <_scanf_float+0x92>
  101ef6: 1d 49        	li	s2, 7
  101ef8: 9d b7        	j	0x101e5e <_scanf_float+0x182>
  101efa: 18 40        	lw	a4, 0(s0)
  101efc: 93 75 07 20  	andi	a1, a4, 512
  101f00: e3 87 05 e6  	beqz	a1, 0x101d6e <_scanf_float+0x92>
  101f04: 13 77 f7 d7  	andi	a4, a4, -641
  101f08: 18 c0        	sw	a4, 0(s0)
  101f0a: ea 8b        	mv	s7, s10
  101f0c: 89 bf        	j	0x101e5e <_scanf_float+0x182>
  101f0e: 18 40        	lw	a4, 0(s0)
  101f10: 93 75 07 50  	andi	a1, a4, 1280
  101f14: 63 88 c5 01  	beq	a1, t3, 0x101f24 <_scanf_float+0x248>
  101f18: 93 75 07 40  	andi	a1, a4, 1024
  101f1c: e3 89 05 e4  	beqz	a1, 0x101d6e <_scanf_float+0x92>
  101f20: e3 0d 0d e4  	beqz	s10, 0x101d7a <_scanf_float+0x9e>
  101f24: 93 75 07 20  	andi	a1, a4, 512
  101f28: 81 e5        	bnez	a1, 0x101f30 <_scanf_float+0x254>
  101f2a: b3 0c 7d 41  	sub	s9, s10, s7
  101f2e: 26 8c        	mv	s8, s1
  101f30: 13 77 f7 87  	andi	a4, a4, -1921
  101f34: 13 67 07 18  	ori	a4, a4, 384
  101f38: 18 c0        	sw	a4, 0(s0)
  101f3a: 01 4d        	li	s10, 0
  101f3c: 0d b7        	j	0x101e5e <_scanf_float+0x182>
  101f3e: 8d 4d        	li	s11, 3
  101f40: 39 bf        	j	0x101e5e <_scanf_float+0x182>
  101f42: 83 27 04 18  	lw	a5, 384(s0)
  101f46: ce 85        	mv	a1, s3
  101f48: 52 85        	mv	a0, s4
  101f4a: 36 c6        	sw	a3, 12(sp)
  101f4c: 82 97        	jalr	a5
  101f4e: 13 86 01 aa  	addi	a2, gp, -1376
  101f52: 13 88 01 aa  	addi	a6, gp, -1376
  101f56: b2 46        	lw	a3, 12(sp)
  101f58: 13 03 e0 04  	li	t1, 78
  101f5c: 13 0e 00 40  	li	t3, 1024
  101f60: 93 88 81 ad  	addi	a7, gp, -1320
  101f64: e3 02 05 de  	beqz	a0, 0x101d48 <_scanf_float+0x6c>
  101f68: 19 b5        	j	0x101d6e <_scanf_float+0x92>
  101f6a: 83 27 c4 17  	lw	a5, 380(s0)
  101f6e: 83 c5 f4 ff  	lbu	a1, -1(s1)
  101f72: 4e 86        	mv	a2, s3
  101f74: 52 85        	mv	a0, s4
  101f76: 82 97        	jalr	a5
  101f78: 1c 48        	lw	a5, 16(s0)
  101f7a: fd 14        	addi	s1, s1, -1
  101f7c: fd 17        	addi	a5, a5, -1
  101f7e: 1c c8        	sw	a5, 16(s0)
  101f80: 09 b5        	j	0x101d82 <_scanf_float+0xa6>
  101f82: 93 07 f9 ff  	addi	a5, s2, -1
  101f86: 19 47        	li	a4, 6
  101f88: 63 66 f7 02  	bltu	a4, a5, 0x101fb4 <_scanf_float+0x2d8>
  101f8c: 89 47        	li	a5, 2
  101f8e: a6 8d        	mv	s11, s1
  101f90: 63 f1 27 09  	bgeu	a5, s2, 0x102012 <_scanf_float+0x336>
  101f94: 33 07 99 40  	sub	a4, s2, s1
  101f98: 13 77 f7 0f  	andi	a4, a4, 255
  101f9c: 8d 46        	li	a3, 3
  101f9e: b3 87 ed 00  	add	a5, s11, a4
  101fa2: 93 f7 f7 0f  	andi	a5, a5, 255
  101fa6: 63 ec f6 02  	bltu	a3, a5, 0x101fde <_scanf_float+0x302>
  101faa: 75 19        	addi	s2, s2, -3
  101fac: 13 79 f9 0f  	andi	s2, s2, 255
  101fb0: b3 84 24 41  	sub	s1, s1, s2
  101fb4: 1c 40        	lw	a5, 0(s0)
  101fb6: 13 f7 07 10  	andi	a4, a5, 256
  101fba: 45 c3        	beqz	a4, 0x10205a <_scanf_float+0x37e>
  101fbc: 93 f7 07 40  	andi	a5, a5, 1024
  101fc0: a1 cf        	beqz	a5, 0x102018 <_scanf_float+0x33c>
  101fc2: e3 72 9b dc  	bgeu	s6, s1, 0x101d86 <_scanf_float+0xaa>
  101fc6: 83 27 c4 17  	lw	a5, 380(s0)
  101fca: 83 c5 f4 ff  	lbu	a1, -1(s1)
  101fce: 4e 86        	mv	a2, s3
  101fd0: 52 85        	mv	a0, s4
  101fd2: 82 97        	jalr	a5
  101fd4: 1c 48        	lw	a5, 16(s0)
  101fd6: fd 14        	addi	s1, s1, -1
  101fd8: fd 17        	addi	a5, a5, -1
  101fda: 1c c8        	sw	a5, 16(s0)
  101fdc: dd b7        	j	0x101fc2 <_scanf_float+0x2e6>
  101fde: 83 27 c4 17  	lw	a5, 380(s0)
  101fe2: 83 c5 fd ff  	lbu	a1, -1(s11)
  101fe6: 4e 86        	mv	a2, s3
  101fe8: 52 85        	mv	a0, s4
  101fea: 3a c6        	sw	a4, 12(sp)
  101fec: 82 97        	jalr	a5
  101fee: 1c 48        	lw	a5, 16(s0)
  101ff0: fd 1d        	addi	s11, s11, -1
  101ff2: 32 47        	lw	a4, 12(sp)
  101ff4: fd 17        	addi	a5, a5, -1
  101ff6: 1c c8        	sw	a5, 16(s0)
  101ff8: 8d 46        	li	a3, 3
  101ffa: 55 b7        	j	0x101f9e <_scanf_float+0x2c2>
  101ffc: 83 27 c4 17  	lw	a5, 380(s0)
  102000: 83 c5 f4 ff  	lbu	a1, -1(s1)
  102004: 4e 86        	mv	a2, s3
  102006: 52 85        	mv	a0, s4
  102008: 82 97        	jalr	a5
  10200a: 1c 48        	lw	a5, 16(s0)
  10200c: fd 14        	addi	s1, s1, -1
  10200e: fd 17        	addi	a5, a5, -1
  102010: 1c c8        	sw	a5, 16(s0)
  102012: e3 65 9b fe  	bltu	s6, s1, 0x101ffc <_scanf_float+0x320>
  102016: 85 bb        	j	0x101d86 <_scanf_float+0xaa>
  102018: 1c 48        	lw	a5, 16(s0)
  10201a: 83 c5 f4 ff  	lbu	a1, -1(s1)
  10201e: 13 89 f4 ff  	addi	s2, s1, -1
  102022: fd 17        	addi	a5, a5, -1
  102024: 1c c8        	sw	a5, 16(s0)
  102026: 93 07 50 06  	li	a5, 101
  10202a: 63 82 f5 02  	beq	a1, a5, 0x10204e <_scanf_float+0x372>
  10202e: 93 07 50 04  	li	a5, 69
  102032: 63 8e f5 00  	beq	a1, a5, 0x10204e <_scanf_float+0x372>
  102036: 83 27 c4 17  	lw	a5, 380(s0)
  10203a: 4e 86        	mv	a2, s3
  10203c: 52 85        	mv	a0, s4
  10203e: 82 97        	jalr	a5
  102040: 1c 48        	lw	a5, 16(s0)
  102042: 83 c5 e4 ff  	lbu	a1, -2(s1)
  102046: 13 89 e4 ff  	addi	s2, s1, -2
  10204a: fd 17        	addi	a5, a5, -1
  10204c: 1c c8        	sw	a5, 16(s0)
  10204e: 83 27 c4 17  	lw	a5, 380(s0)
  102052: 4e 86        	mv	a2, s3
  102054: 52 85        	mv	a0, s4
  102056: 82 97        	jalr	a5
  102058: ca 84        	mv	s1, s2
  10205a: 03 29 04 00  	lw	s2, 0(s0)
  10205e: 13 79 09 01  	andi	s2, s2, 16
  102062: 63 1a 09 0c  	bnez	s2, 0x102136 <_scanf_float+0x45a>
  102066: 23 80 04 00  	sb	zero, 0(s1)
  10206a: 1c 40        	lw	a5, 0(s0)
  10206c: 13 07 00 40  	li	a4, 1024
  102070: 93 f7 07 60  	andi	a5, a5, 1536
  102074: 63 9e e7 02  	bne	a5, a4, 0x1020b0 <_scanf_float+0x3d4>
  102078: 33 86 ab 41  	sub	a2, s7, s10
  10207c: 63 96 ab 05  	bne	s7, s10, 0x1020c8 <_scanf_float+0x3ec>
  102080: 01 46        	li	a2, 0
  102082: da 85        	mv	a1, s6
  102084: 52 85        	mv	a0, s4
  102086: ef 40 e0 38  	jal	0x106414 <_strtod_r>
  10208a: 18 40        	lw	a4, 0(s0)
  10208c: 83 a7 0a 00  	lw	a5, 0(s5)
  102090: aa 89        	mv	s3, a0
  102092: 93 76 27 00  	andi	a3, a4, 2
  102096: ae 84        	mv	s1, a1
  102098: a1 c6        	beqz	a3, 0x1020e0 <_scanf_float+0x404>
  10209a: 13 87 47 00  	addi	a4, a5, 4
  10209e: 23 a0 ea 00  	sw	a4, 0(s5)
  1020a2: 94 43        	lw	a3, 0(a5)
  1020a4: 88 c2        	sw	a0, 0(a3)
  1020a6: cc c2        	sw	a1, 4(a3)
  1020a8: 5c 44        	lw	a5, 12(s0)
  1020aa: 85 07        	addi	a5, a5, 1
  1020ac: 5c c4        	sw	a5, 12(s0)
  1020ae: e9 b9        	j	0x101d88 <_scanf_float+0xac>
  1020b0: e3 88 0c fc  	beqz	s9, 0x102080 <_scanf_float+0x3a4>
  1020b4: 01 46        	li	a2, 0
  1020b6: a9 46        	li	a3, 10
  1020b8: 93 05 1c 00  	addi	a1, s8, 1
  1020bc: 52 85        	mv	a0, s4
  1020be: ef 40 80 65  	jal	0x106716 <_strtol_r>
  1020c2: 33 06 95 41  	sub	a2, a0, s9
  1020c6: e2 84        	mv	s1, s8
  1020c8: 93 07 f4 16  	addi	a5, s0, 367
  1020cc: 63 e4 f4 00  	bltu	s1, a5, 0x1020d4 <_scanf_float+0x3f8>
  1020d0: 93 04 e4 16  	addi	s1, s0, 366
  1020d4: 93 85 81 a9  	addi	a1, gp, -1384
  1020d8: 26 85        	mv	a0, s1
  1020da: ef 10 a0 36  	jal	0x103444 <sprintf>
  1020de: 4d b7        	j	0x102080 <_scanf_float+0x3a4>
  1020e0: 93 86 47 00  	addi	a3, a5, 4
  1020e4: 23 a0 da 00  	sw	a3, 0(s5)
  1020e8: 11 8b        	andi	a4, a4, 4
  1020ea: 03 aa 07 00  	lw	s4, 0(a5)
  1020ee: 1d c3        	beqz	a4, 0x102114 <_scanf_float+0x438>
  1020f0: aa 85        	mv	a1, a0
  1020f2: 26 86        	mv	a2, s1
  1020f4: 08 08        	addi	a0, sp, 16
  1020f6: ef 80 b0 7e  	jal	0x10b0e0 <__extenddftf2>
  1020fa: 42 46        	lw	a2, 16(sp)
  1020fc: d2 46        	lw	a3, 20(sp)
  1020fe: 62 47        	lw	a4, 24(sp)
  102100: f2 47        	lw	a5, 28(sp)
  102102: 23 20 ca 00  	sw	a2, 0(s4)
  102106: 23 22 da 00  	sw	a3, 4(s4)
  10210a: 23 24 ea 00  	sw	a4, 8(s4)
  10210e: 23 26 fa 00  	sw	a5, 12(s4)
  102112: 59 bf        	j	0x1020a8 <_scanf_float+0x3cc>
  102114: 2a 86        	mv	a2, a0
  102116: ae 86        	mv	a3, a1
  102118: ef 80 90 27  	jal	0x10ab90 <__unorddf2>
  10211c: 01 c9        	beqz	a0, 0x10212c <_scanf_float+0x450>
  10211e: 13 85 41 07  	addi	a0, gp, 116
  102122: ef 10 30 3e  	jal	0x103d04 <nanf>
  102126: 27 20 aa 00  	fsw	fa0, 0(s4)
  10212a: bd bf        	j	0x1020a8 <_scanf_float+0x3cc>
  10212c: 4e 85        	mv	a0, s3
  10212e: a6 85        	mv	a1, s1
  102130: ef 90 20 12  	jal	0x10b252 <__truncdfsf2>
  102134: cd bf        	j	0x102126 <_scanf_float+0x44a>
  102136: 01 49        	li	s2, 0
  102138: 81 b9        	j	0x101d88 <_scanf_float+0xac>

0010213a <_fclose_r>:
  10213a: 41 11        	addi	sp, sp, -16
  10213c: 06 c6        	sw	ra, 12(sp)
  10213e: 22 c4        	sw	s0, 8(sp)
  102140: 26 c2        	sw	s1, 4(sp)
  102142: 4a c0        	sw	s2, 0(sp)
  102144: 89 e9        	bnez	a1, 0x102156 <_fclose_r+0x1c>
  102146: 01 49        	li	s2, 0
  102148: b2 40        	lw	ra, 12(sp)
  10214a: 22 44        	lw	s0, 8(sp)
  10214c: 92 44        	lw	s1, 4(sp)
  10214e: 4a 85        	mv	a0, s2
  102150: 02 49        	lw	s2, 0(sp)
  102152: 41 01        	addi	sp, sp, 16
  102154: 82 80        	ret
  102156: aa 84        	mv	s1, a0
  102158: 2e 84        	mv	s0, a1
  10215a: 01 c5        	beqz	a0, 0x102162 <_fclose_r+0x28>
  10215c: 1c 55        	lw	a5, 40(a0)
  10215e: 91 e3        	bnez	a5, 0x102162 <_fclose_r+0x28>
  102160: 01 29        	jal	0x102570 <__sinit>
  102162: 93 87 41 b3  	addi	a5, gp, -1228
  102166: 63 12 f4 06  	bne	s0, a5, 0x1021ca <_fclose_r+0x90>
  10216a: c0 40        	lw	s0, 4(s1)
  10216c: 83 17 c4 00  	lh	a5, 12(s0)
  102170: f9 db        	beqz	a5, 0x102146 <_fclose_r+0xc>
  102172: a2 85        	mv	a1, s0
  102174: 26 85        	mv	a0, s1
  102176: 95 28        	jal	0x1021ea <__sflush_r>
  102178: 1c 58        	lw	a5, 48(s0)
  10217a: 2a 89        	mv	s2, a0
  10217c: 99 c7        	beqz	a5, 0x10218a <_fclose_r+0x50>
  10217e: 0c 50        	lw	a1, 32(s0)
  102180: 26 85        	mv	a0, s1
  102182: 82 97        	jalr	a5
  102184: 63 53 05 00  	bgez	a0, 0x10218a <_fclose_r+0x50>
  102188: 7d 59        	li	s2, -1
  10218a: 83 57 c4 00  	lhu	a5, 12(s0)
  10218e: 93 f7 07 08  	andi	a5, a5, 128
  102192: 89 c7        	beqz	a5, 0x10219c <_fclose_r+0x62>
  102194: 0c 48        	lw	a1, 16(s0)
  102196: 26 85        	mv	a0, s1
  102198: ef 20 50 1b  	jal	0x104b4c <_free_r>
  10219c: 4c 58        	lw	a1, 52(s0)
  10219e: 91 c9        	beqz	a1, 0x1021b2 <_fclose_r+0x78>
  1021a0: 93 07 44 04  	addi	a5, s0, 68
  1021a4: 63 85 f5 00  	beq	a1, a5, 0x1021ae <_fclose_r+0x74>
  1021a8: 26 85        	mv	a0, s1
  1021aa: ef 20 30 1a  	jal	0x104b4c <_free_r>
  1021ae: 23 2a 04 02  	sw	zero, 52(s0)
  1021b2: 2c 44        	lw	a1, 72(s0)
  1021b4: 91 c5        	beqz	a1, 0x1021c0 <_fclose_r+0x86>
  1021b6: 26 85        	mv	a0, s1
  1021b8: ef 20 50 19  	jal	0x104b4c <_free_r>
  1021bc: 23 24 04 04  	sw	zero, 72(s0)
  1021c0: c1 21        	jal	0x102680 <__sfp_lock_acquire>
  1021c2: 23 16 04 00  	sh	zero, 12(s0)
  1021c6: 75 29        	jal	0x102682 <__sfp_lock_release>
  1021c8: 41 b7        	j	0x102148 <_fclose_r+0xe>
  1021ca: 93 87 41 b5  	addi	a5, gp, -1196
  1021ce: 63 14 f4 00  	bne	s0, a5, 0x1021d6 <_fclose_r+0x9c>
  1021d2: 80 44        	lw	s0, 8(s1)
  1021d4: 61 bf        	j	0x10216c <_fclose_r+0x32>
  1021d6: 93 87 41 b1  	addi	a5, gp, -1260
  1021da: e3 19 f4 f8  	bne	s0, a5, 0x10216c <_fclose_r+0x32>
  1021de: c0 44        	lw	s0, 12(s1)
  1021e0: 71 b7        	j	0x10216c <_fclose_r+0x32>

001021e2 <fclose>:
  1021e2: aa 85        	mv	a1, a0
  1021e4: 03 a5 41 8a  	lw	a0, -1884(gp)
  1021e8: 89 bf        	j	0x10213a <_fclose_r>

001021ea <__sflush_r>:
  1021ea: 83 d7 c5 00  	lhu	a5, 12(a1)
  1021ee: 01 11        	addi	sp, sp, -32
  1021f0: 22 cc        	sw	s0, 24(sp)
  1021f2: 26 ca        	sw	s1, 20(sp)
  1021f4: 06 ce        	sw	ra, 28(sp)
  1021f6: 4a c8        	sw	s2, 16(sp)
  1021f8: 4e c6        	sw	s3, 12(sp)
  1021fa: 13 f7 87 00  	andi	a4, a5, 8
  1021fe: aa 84        	mv	s1, a0
  102200: 2e 84        	mv	s0, a1
  102202: 7d e3        	bnez	a4, 0x1022e8 <__sflush_r+0xfe>
  102204: d8 41        	lw	a4, 4(a1)
  102206: 63 47 e0 00  	bgtz	a4, 0x102214 <__sflush_r+0x2a>
  10220a: b8 41        	lw	a4, 64(a1)
  10220c: 63 44 e0 00  	bgtz	a4, 0x102214 <__sflush_r+0x2a>
  102210: 01 45        	li	a0, 0
  102212: 7d a8        	j	0x1022d0 <__sflush_r+0xe6>
  102214: 58 54        	lw	a4, 44(s0)
  102216: 6d df        	beqz	a4, 0x102210 <__sflush_r+0x26>
  102218: 85 66        	lui	a3, 1
  10221a: 03 a9 04 00  	lw	s2, 0(s1)
  10221e: f5 8f        	and	a5, a5, a3
  102220: 23 a0 04 00  	sw	zero, 0(s1)
  102224: ad cf        	beqz	a5, 0x10229e <__sflush_r+0xb4>
  102226: 68 48        	lw	a0, 84(s0)
  102228: 83 57 c4 00  	lhu	a5, 12(s0)
  10222c: 91 8b        	andi	a5, a5, 4
  10222e: 99 c7        	beqz	a5, 0x10223c <__sflush_r+0x52>
  102230: 5c 40        	lw	a5, 4(s0)
  102232: 1d 8d        	sub	a0, a0, a5
  102234: 5c 58        	lw	a5, 52(s0)
  102236: 99 c3        	beqz	a5, 0x10223c <__sflush_r+0x52>
  102238: 3c 40        	lw	a5, 64(s0)
  10223a: 1d 8d        	sub	a0, a0, a5
  10223c: 5c 54        	lw	a5, 44(s0)
  10223e: 0c 50        	lw	a1, 32(s0)
  102240: 2a 86        	mv	a2, a0
  102242: 81 46        	li	a3, 0
  102244: 26 85        	mv	a0, s1
  102246: 82 97        	jalr	a5
  102248: fd 57        	li	a5, -1
  10224a: 03 57 c4 00  	lhu	a4, 12(s0)
  10224e: 63 1d f5 00  	bne	a0, a5, 0x102268 <__sflush_r+0x7e>
  102252: 94 40        	lw	a3, 0(s1)
  102254: f5 47        	li	a5, 29
  102256: 63 e4 d7 08  	bltu	a5, a3, 0x1022de <__sflush_r+0xf4>
  10225a: b7 07 40 20  	lui	a5, 132096
  10225e: 85 07        	addi	a5, a5, 1
  102260: b3 d7 d7 00  	srl	a5, a5, a3
  102264: 85 8b        	andi	a5, a5, 1
  102266: a5 cf        	beqz	a5, 0x1022de <__sflush_r+0xf4>
  102268: 1c 48        	lw	a5, 16(s0)
  10226a: 23 22 04 00  	sw	zero, 4(s0)
  10226e: 1c c0        	sw	a5, 0(s0)
  102270: 85 67        	lui	a5, 1
  102272: 7d 8f        	and	a4, a4, a5
  102274: 19 c7        	beqz	a4, 0x102282 <__sflush_r+0x98>
  102276: fd 57        	li	a5, -1
  102278: 63 14 f5 00  	bne	a0, a5, 0x102280 <__sflush_r+0x96>
  10227c: 9c 40        	lw	a5, 0(s1)
  10227e: 91 e3        	bnez	a5, 0x102282 <__sflush_r+0x98>
  102280: 68 c8        	sw	a0, 84(s0)
  102282: 4c 58        	lw	a1, 52(s0)
  102284: 23 a0 24 01  	sw	s2, 0(s1)
  102288: c1 d5        	beqz	a1, 0x102210 <__sflush_r+0x26>
  10228a: 93 07 44 04  	addi	a5, s0, 68
  10228e: 63 85 f5 00  	beq	a1, a5, 0x102298 <__sflush_r+0xae>
  102292: 26 85        	mv	a0, s1
  102294: ef 20 90 0b  	jal	0x104b4c <_free_r>
  102298: 23 2a 04 02  	sw	zero, 52(s0)
  10229c: 95 bf        	j	0x102210 <__sflush_r+0x26>
  10229e: 0c 50        	lw	a1, 32(s0)
  1022a0: 85 46        	li	a3, 1
  1022a2: 01 46        	li	a2, 0
  1022a4: 26 85        	mv	a0, s1
  1022a6: 02 97        	jalr	a4
  1022a8: fd 57        	li	a5, -1
  1022aa: e3 1f f5 f6  	bne	a0, a5, 0x102228 <__sflush_r+0x3e>
  1022ae: 9c 40        	lw	a5, 0(s1)
  1022b0: a5 df        	beqz	a5, 0x102228 <__sflush_r+0x3e>
  1022b2: 75 47        	li	a4, 29
  1022b4: 63 85 e7 00  	beq	a5, a4, 0x1022be <__sflush_r+0xd4>
  1022b8: 59 47        	li	a4, 22
  1022ba: 63 95 e7 00  	bne	a5, a4, 0x1022c4 <__sflush_r+0xda>
  1022be: 23 a0 24 01  	sw	s2, 0(s1)
  1022c2: b9 b7        	j	0x102210 <__sflush_r+0x26>
  1022c4: 83 57 c4 00  	lhu	a5, 12(s0)
  1022c8: 93 e7 07 04  	ori	a5, a5, 64
  1022cc: 23 16 f4 00  	sh	a5, 12(s0)
  1022d0: f2 40        	lw	ra, 28(sp)
  1022d2: 62 44        	lw	s0, 24(sp)
  1022d4: d2 44        	lw	s1, 20(sp)
  1022d6: 42 49        	lw	s2, 16(sp)
  1022d8: b2 49        	lw	s3, 12(sp)
  1022da: 05 61        	addi	sp, sp, 32
  1022dc: 82 80        	ret
  1022de: 13 67 07 04  	ori	a4, a4, 64
  1022e2: 23 16 e4 00  	sh	a4, 12(s0)
  1022e6: ed b7        	j	0x1022d0 <__sflush_r+0xe6>
  1022e8: 83 a9 05 01  	lw	s3, 16(a1)
  1022ec: e3 82 09 f2  	beqz	s3, 0x102210 <__sflush_r+0x26>
  1022f0: 03 a9 05 00  	lw	s2, 0(a1)
  1022f4: 8d 8b        	andi	a5, a5, 3
  1022f6: 23 a0 35 01  	sw	s3, 0(a1)
  1022fa: 33 09 39 41  	sub	s2, s2, s3
  1022fe: 01 47        	li	a4, 0
  102300: 91 e3        	bnez	a5, 0x102304 <__sflush_r+0x11a>
  102302: d8 49        	lw	a4, 20(a1)
  102304: 18 c4        	sw	a4, 8(s0)
  102306: e3 55 20 f1  	blez	s2, 0x102210 <__sflush_r+0x26>
  10230a: 1c 54        	lw	a5, 40(s0)
  10230c: 0c 50        	lw	a1, 32(s0)
  10230e: ca 86        	mv	a3, s2
  102310: 4e 86        	mv	a2, s3
  102312: 26 85        	mv	a0, s1
  102314: 82 97        	jalr	a5
  102316: 63 4a a0 00  	bgtz	a0, 0x10232a <__sflush_r+0x140>
  10231a: 83 57 c4 00  	lhu	a5, 12(s0)
  10231e: 7d 55        	li	a0, -1
  102320: 93 e7 07 04  	ori	a5, a5, 64
  102324: 23 16 f4 00  	sh	a5, 12(s0)
  102328: 65 b7        	j	0x1022d0 <__sflush_r+0xe6>
  10232a: aa 99        	add	s3, s3, a0
  10232c: 33 09 a9 40  	sub	s2, s2, a0
  102330: d9 bf        	j	0x102306 <__sflush_r+0x11c>

00102332 <_fflush_r>:
  102332: 9c 49        	lw	a5, 16(a1)
  102334: a9 cb        	beqz	a5, 0x102386 <_fflush_r+0x54>
  102336: 01 11        	addi	sp, sp, -32
  102338: 22 cc        	sw	s0, 24(sp)
  10233a: 06 ce        	sw	ra, 28(sp)
  10233c: 2a 84        	mv	s0, a0
  10233e: 11 c5        	beqz	a0, 0x10234a <_fflush_r+0x18>
  102340: 1c 55        	lw	a5, 40(a0)
  102342: 81 e7        	bnez	a5, 0x10234a <_fflush_r+0x18>
  102344: 2e c6        	sw	a1, 12(sp)
  102346: 2d 24        	jal	0x102570 <__sinit>
  102348: b2 45        	lw	a1, 12(sp)
  10234a: 93 87 41 b3  	addi	a5, gp, -1228
  10234e: 63 9b f5 00  	bne	a1, a5, 0x102364 <_fflush_r+0x32>
  102352: 4c 40        	lw	a1, 4(s0)
  102354: 83 97 c5 00  	lh	a5, 12(a1)
  102358: 95 c3        	beqz	a5, 0x10237c <_fflush_r+0x4a>
  10235a: 22 85        	mv	a0, s0
  10235c: 62 44        	lw	s0, 24(sp)
  10235e: f2 40        	lw	ra, 28(sp)
  102360: 05 61        	addi	sp, sp, 32
  102362: 61 b5        	j	0x1021ea <__sflush_r>
  102364: 93 87 41 b5  	addi	a5, gp, -1196
  102368: 63 94 f5 00  	bne	a1, a5, 0x102370 <_fflush_r+0x3e>
  10236c: 0c 44        	lw	a1, 8(s0)
  10236e: dd b7        	j	0x102354 <_fflush_r+0x22>
  102370: 93 87 41 b1  	addi	a5, gp, -1260
  102374: e3 90 f5 fe  	bne	a1, a5, 0x102354 <_fflush_r+0x22>
  102378: 4c 44        	lw	a1, 12(s0)
  10237a: e9 bf        	j	0x102354 <_fflush_r+0x22>
  10237c: f2 40        	lw	ra, 28(sp)
  10237e: 62 44        	lw	s0, 24(sp)
  102380: 01 45        	li	a0, 0
  102382: 05 61        	addi	sp, sp, 32
  102384: 82 80        	ret
  102386: 01 45        	li	a0, 0
  102388: 82 80        	ret

0010238a <fflush>:
  10238a: aa 85        	mv	a1, a0
  10238c: 09 e9        	bnez	a0, 0x10239e <fflush+0x14>
  10238e: 03 a5 01 89  	lw	a0, -1904(gp)
  102392: b7 25 10 00  	lui	a1, 258
  102396: 93 85 25 33  	addi	a1, a1, 818
  10239a: 6f 00 b0 0f  	j	0x102c94 <_fwalk_reent>
  10239e: 03 a5 41 8a  	lw	a0, -1884(gp)
  1023a2: 41 bf        	j	0x102332 <_fflush_r>

001023a4 <_fgetc_r>:
  1023a4: 01 11        	addi	sp, sp, -32
  1023a6: 22 cc        	sw	s0, 24(sp)
  1023a8: 06 ce        	sw	ra, 28(sp)
  1023aa: 2a 84        	mv	s0, a0
  1023ac: 11 c5        	beqz	a0, 0x1023b8 <_fgetc_r+0x14>
  1023ae: 1c 55        	lw	a5, 40(a0)
  1023b0: 81 e7        	bnez	a5, 0x1023b8 <_fgetc_r+0x14>
  1023b2: 2e c6        	sw	a1, 12(sp)
  1023b4: 75 2a        	jal	0x102570 <__sinit>
  1023b6: b2 45        	lw	a1, 12(sp)
  1023b8: 93 87 41 b3  	addi	a5, gp, -1228
  1023bc: 63 9e f5 00  	bne	a1, a5, 0x1023d8 <_fgetc_r+0x34>
  1023c0: 4c 40        	lw	a1, 4(s0)
  1023c2: dc 41        	lw	a5, 4(a1)
  1023c4: fd 17        	addi	a5, a5, -1
  1023c6: dc c1        	sw	a5, 4(a1)
  1023c8: 63 d4 07 02  	bgez	a5, 0x1023f0 <_fgetc_r+0x4c>
  1023cc: 22 85        	mv	a0, s0
  1023ce: 62 44        	lw	s0, 24(sp)
  1023d0: f2 40        	lw	ra, 28(sp)
  1023d2: 05 61        	addi	sp, sp, 32
  1023d4: 6f 00 70 75  	j	0x10332a <__srget_r>
  1023d8: 93 87 41 b5  	addi	a5, gp, -1196
  1023dc: 63 94 f5 00  	bne	a1, a5, 0x1023e4 <_fgetc_r+0x40>
  1023e0: 0c 44        	lw	a1, 8(s0)
  1023e2: c5 b7        	j	0x1023c2 <_fgetc_r+0x1e>
  1023e4: 93 87 41 b1  	addi	a5, gp, -1260
  1023e8: e3 9d f5 fc  	bne	a1, a5, 0x1023c2 <_fgetc_r+0x1e>
  1023ec: 4c 44        	lw	a1, 12(s0)
  1023ee: d1 bf        	j	0x1023c2 <_fgetc_r+0x1e>
  1023f0: 9c 41        	lw	a5, 0(a1)
  1023f2: f2 40        	lw	ra, 28(sp)
  1023f4: 62 44        	lw	s0, 24(sp)
  1023f6: 13 87 17 00  	addi	a4, a5, 1
  1023fa: 98 c1        	sw	a4, 0(a1)
  1023fc: 03 c5 07 00  	lbu	a0, 0(a5)
  102400: 05 61        	addi	sp, sp, 32
  102402: 82 80        	ret

00102404 <fgetc>:
  102404: aa 85        	mv	a1, a0
  102406: 03 a5 41 8a  	lw	a0, -1884(gp)
  10240a: 69 bf        	j	0x1023a4 <_fgetc_r>

0010240c <_fgets_r>:
  10240c: 01 11        	addi	sp, sp, -32
  10240e: 06 ce        	sw	ra, 28(sp)
  102410: 22 cc        	sw	s0, 24(sp)
  102412: 26 ca        	sw	s1, 20(sp)
  102414: 4a c8        	sw	s2, 16(sp)
  102416: 4e c6        	sw	s3, 12(sp)
  102418: 52 c4        	sw	s4, 8(sp)
  10241a: 56 c2        	sw	s5, 4(sp)
  10241c: 5a c0        	sw	s6, 0(sp)
  10241e: 85 47        	li	a5, 1
  102420: 63 ce c7 00  	blt	a5, a2, 0x10243c <_fgets_r+0x30>
  102424: 81 4a        	li	s5, 0
  102426: f2 40        	lw	ra, 28(sp)
  102428: 62 44        	lw	s0, 24(sp)
  10242a: d2 44        	lw	s1, 20(sp)
  10242c: 42 49        	lw	s2, 16(sp)
  10242e: b2 49        	lw	s3, 12(sp)
  102430: 22 4a        	lw	s4, 8(sp)
  102432: 02 4b        	lw	s6, 0(sp)
  102434: 56 85        	mv	a0, s5
  102436: 92 4a        	lw	s5, 4(sp)
  102438: 05 61        	addi	sp, sp, 32
  10243a: 82 80        	ret
  10243c: aa 89        	mv	s3, a0
  10243e: ae 8a        	mv	s5, a1
  102440: b2 84        	mv	s1, a2
  102442: 36 84        	mv	s0, a3
  102444: 01 c5        	beqz	a0, 0x10244c <_fgets_r+0x40>
  102446: 1c 55        	lw	a5, 40(a0)
  102448: 91 e3        	bnez	a5, 0x10244c <_fgets_r+0x40>
  10244a: 1d 22        	jal	0x102570 <__sinit>
  10244c: 93 87 41 b3  	addi	a5, gp, -1228
  102450: 63 12 f4 02  	bne	s0, a5, 0x102474 <_fgets_r+0x68>
  102454: 03 a4 49 00  	lw	s0, 4(s3)
  102458: fd 14        	addi	s1, s1, -1
  10245a: 56 89        	mv	s2, s5
  10245c: 5c 40        	lw	a5, 4(s0)
  10245e: 95 eb        	bnez	a5, 0x102492 <_fgets_r+0x86>
  102460: a2 85        	mv	a1, s0
  102462: 4e 85        	mv	a0, s3
  102464: ef 00 10 58  	jal	0x1031e4 <__srefill_r>
  102468: 05 c5        	beqz	a0, 0x102490 <_fgets_r+0x84>
  10246a: e3 0d 59 fb  	beq	s2, s5, 0x102424 <_fgets_r+0x18>
  10246e: 23 00 09 00  	sb	zero, 0(s2)
  102472: 55 bf        	j	0x102426 <_fgets_r+0x1a>
  102474: 93 87 41 b5  	addi	a5, gp, -1196
  102478: 63 15 f4 00  	bne	s0, a5, 0x102482 <_fgets_r+0x76>
  10247c: 03 a4 89 00  	lw	s0, 8(s3)
  102480: e1 bf        	j	0x102458 <_fgets_r+0x4c>
  102482: 93 87 41 b1  	addi	a5, gp, -1260
  102486: e3 19 f4 fc  	bne	s0, a5, 0x102458 <_fgets_r+0x4c>
  10248a: 03 a4 c9 00  	lw	s0, 12(s3)
  10248e: e9 b7        	j	0x102458 <_fgets_r+0x4c>
  102490: 5c 40        	lw	a5, 4(s0)
  102492: 03 2b 04 00  	lw	s6, 0(s0)
  102496: 26 8a        	mv	s4, s1
  102498: 63 f3 97 00  	bgeu	a5, s1, 0x10249e <_fgets_r+0x92>
  10249c: 3e 8a        	mv	s4, a5
  10249e: 52 86        	mv	a2, s4
  1024a0: a9 45        	li	a1, 10
  1024a2: 5a 85        	mv	a0, s6
  1024a4: ef 10 60 4f  	jal	0x10399a <memchr>
  1024a8: 5c 40        	lw	a5, 4(s0)
  1024aa: 11 cd        	beqz	a0, 0x1024c6 <_fgets_r+0xba>
  1024ac: 05 05        	addi	a0, a0, 1
  1024ae: b3 04 65 41  	sub	s1, a0, s6
  1024b2: 85 8f        	sub	a5, a5, s1
  1024b4: 08 c0        	sw	a0, 0(s0)
  1024b6: 5c c0        	sw	a5, 4(s0)
  1024b8: 4a 85        	mv	a0, s2
  1024ba: 26 86        	mv	a2, s1
  1024bc: da 85        	mv	a1, s6
  1024be: ef 10 70 00  	jal	0x103cc4 <memcpy>
  1024c2: 26 99        	add	s2, s2, s1
  1024c4: 6d b7        	j	0x10246e <_fgets_r+0x62>
  1024c6: b3 87 47 41  	sub	a5, a5, s4
  1024ca: 5c c0        	sw	a5, 4(s0)
  1024cc: 1c 40        	lw	a5, 0(s0)
  1024ce: 4a 85        	mv	a0, s2
  1024d0: 52 86        	mv	a2, s4
  1024d2: d2 97        	add	a5, a5, s4
  1024d4: 1c c0        	sw	a5, 0(s0)
  1024d6: da 85        	mv	a1, s6
  1024d8: b3 84 44 41  	sub	s1, s1, s4
  1024dc: ef 10 80 7e  	jal	0x103cc4 <memcpy>
  1024e0: 52 99        	add	s2, s2, s4
  1024e2: ad fc        	bnez	s1, 0x10245c <_fgets_r+0x50>
  1024e4: 69 b7        	j	0x10246e <_fgets_r+0x62>

001024e6 <fgets>:
  1024e6: b2 86        	mv	a3, a2
  1024e8: 2e 86        	mv	a2, a1
  1024ea: aa 85        	mv	a1, a0
  1024ec: 03 a5 41 8a  	lw	a0, -1884(gp)
  1024f0: 31 bf        	j	0x10240c <_fgets_r>

001024f2 <__fp_lock>:
  1024f2: 01 45        	li	a0, 0
  1024f4: 82 80        	ret

001024f6 <std>:
  1024f6: 41 11        	addi	sp, sp, -16
  1024f8: 22 c4        	sw	s0, 8(sp)
  1024fa: 06 c6        	sw	ra, 12(sp)
  1024fc: 2a 84        	mv	s0, a0
  1024fe: 23 16 b5 00  	sh	a1, 12(a0)
  102502: 23 17 c5 00  	sh	a2, 14(a0)
  102506: 23 20 05 00  	sw	zero, 0(a0)
  10250a: 23 22 05 00  	sw	zero, 4(a0)
  10250e: 23 24 05 00  	sw	zero, 8(a0)
  102512: 23 22 05 06  	sw	zero, 100(a0)
  102516: 23 28 05 00  	sw	zero, 16(a0)
  10251a: 23 2a 05 00  	sw	zero, 20(a0)
  10251e: 23 2c 05 00  	sw	zero, 24(a0)
  102522: 21 46        	li	a2, 8
  102524: 81 45        	li	a1, 0
  102526: 13 05 c5 05  	addi	a0, a0, 92
  10252a: ef 10 a0 78  	jal	0x103cb4 <memset>
  10252e: b7 37 10 00  	lui	a5, 259
  102532: 93 87 07 53  	addi	a5, a5, 1328
  102536: 5c d0        	sw	a5, 36(s0)
  102538: b7 37 10 00  	lui	a5, 259
  10253c: 93 87 47 56  	addi	a5, a5, 1380
  102540: 1c d4        	sw	a5, 40(s0)
  102542: b7 37 10 00  	lui	a5, 259
  102546: 93 87 27 5b  	addi	a5, a5, 1458
  10254a: 5c d4        	sw	a5, 44(s0)
  10254c: b7 37 10 00  	lui	a5, 259
  102550: 93 87 87 5e  	addi	a5, a5, 1512
  102554: b2 40        	lw	ra, 12(sp)
  102556: 00 d0        	sw	s0, 32(s0)
  102558: 1c d8        	sw	a5, 48(s0)
  10255a: 22 44        	lw	s0, 8(sp)
  10255c: 41 01        	addi	sp, sp, 16
  10255e: 82 80        	ret

00102560 <cleanup_stdio>:
  102560: b7 25 10 00  	lui	a1, 258
  102564: 93 85 25 33  	addi	a1, a1, 818
  102568: 6f 00 c0 72  	j	0x102c94 <_fwalk_reent>

0010256c <__fp_unlock>:
  10256c: 01 45        	li	a0, 0
  10256e: 82 80        	ret

00102570 <__sinit>:
  102570: 1c 55        	lw	a5, 40(a0)
  102572: b9 e7        	bnez	a5, 0x1025c0 <__sinit+0x50>
  102574: 41 11        	addi	sp, sp, -16
  102576: b7 27 10 00  	lui	a5, 258
  10257a: 06 c6        	sw	ra, 12(sp)
  10257c: 22 c4        	sw	s0, 8(sp)
  10257e: 93 87 07 56  	addi	a5, a5, 1376
  102582: 1c d5        	sw	a5, 40(a0)
  102584: 23 24 05 04  	sw	zero, 72(a0)
  102588: 23 26 05 04  	sw	zero, 76(a0)
  10258c: 23 28 05 04  	sw	zero, 80(a0)
  102590: 2a 84        	mv	s0, a0
  102592: 05 28        	jal	0x1025c2 <__sfp>
  102594: 48 c0        	sw	a0, 4(s0)
  102596: 22 85        	mv	a0, s0
  102598: 2d 20        	jal	0x1025c2 <__sfp>
  10259a: 08 c4        	sw	a0, 8(s0)
  10259c: 22 85        	mv	a0, s0
  10259e: 15 20        	jal	0x1025c2 <__sfp>
  1025a0: 48 c4        	sw	a0, 12(s0)
  1025a2: 48 40        	lw	a0, 4(s0)
  1025a4: 01 46        	li	a2, 0
  1025a6: 91 45        	li	a1, 4
  1025a8: b9 37        	jal	0x1024f6 <std>
  1025aa: 08 44        	lw	a0, 8(s0)
  1025ac: 05 46        	li	a2, 1
  1025ae: a5 45        	li	a1, 9
  1025b0: 99 37        	jal	0x1024f6 <std>
  1025b2: 48 44        	lw	a0, 12(s0)
  1025b4: 22 44        	lw	s0, 8(sp)
  1025b6: b2 40        	lw	ra, 12(sp)
  1025b8: 09 46        	li	a2, 2
  1025ba: c9 45        	li	a1, 18
  1025bc: 41 01        	addi	sp, sp, 16
  1025be: 25 bf        	j	0x1024f6 <std>
  1025c0: 82 80        	ret

001025c2 <__sfp>:
  1025c2: 01 11        	addi	sp, sp, -32
  1025c4: 26 ca        	sw	s1, 20(sp)
  1025c6: 83 a4 01 89  	lw	s1, -1904(gp)
  1025ca: 4a c8        	sw	s2, 16(sp)
  1025cc: 06 ce        	sw	ra, 28(sp)
  1025ce: 9c 54        	lw	a5, 40(s1)
  1025d0: 22 cc        	sw	s0, 24(sp)
  1025d2: 4e c6        	sw	s3, 12(sp)
  1025d4: 2a 89        	mv	s2, a0
  1025d6: 99 e3        	bnez	a5, 0x1025dc <__sfp+0x1a>
  1025d8: 26 85        	mv	a0, s1
  1025da: 59 3f        	jal	0x102570 <__sinit>
  1025dc: 93 84 84 04  	addi	s1, s1, 72
  1025e0: 91 49        	li	s3, 4
  1025e2: 80 44        	lw	s0, 8(s1)
  1025e4: dc 40        	lw	a5, 4(s1)
  1025e6: fd 17        	addi	a5, a5, -1
  1025e8: 63 d1 07 02  	bgez	a5, 0x10260a <__sfp+0x48>
  1025ec: 9c 40        	lw	a5, 0(s1)
  1025ee: d9 e7        	bnez	a5, 0x10267c <__sfp+0xba>
  1025f0: 93 05 c0 1a  	li	a1, 428
  1025f4: 4a 85        	mv	a0, s2
  1025f6: ef e0 1f 87  	jal	0x100e66 <_malloc_r>
  1025fa: 2a 84        	mv	s0, a0
  1025fc: 25 e5        	bnez	a0, 0x102664 <__sfp+0xa2>
  1025fe: 23 a0 04 00  	sw	zero, 0(s1)
  102602: b1 47        	li	a5, 12
  102604: 23 20 f9 00  	sw	a5, 0(s2)
  102608: 99 a0        	j	0x10264e <__sfp+0x8c>
  10260a: 03 17 c4 00  	lh	a4, 12(s0)
  10260e: 21 eb        	bnez	a4, 0x10265e <__sfp+0x9c>
  102610: c1 77        	lui	a5, 1048560
  102612: 85 07        	addi	a5, a5, 1
  102614: 23 22 04 06  	sw	zero, 100(s0)
  102618: 23 20 04 00  	sw	zero, 0(s0)
  10261c: 23 22 04 00  	sw	zero, 4(s0)
  102620: 23 24 04 00  	sw	zero, 8(s0)
  102624: 5c c4        	sw	a5, 12(s0)
  102626: 23 28 04 00  	sw	zero, 16(s0)
  10262a: 23 2a 04 00  	sw	zero, 20(s0)
  10262e: 23 2c 04 00  	sw	zero, 24(s0)
  102632: 21 46        	li	a2, 8
  102634: 81 45        	li	a1, 0
  102636: 13 05 c4 05  	addi	a0, s0, 92
  10263a: ef 10 a0 67  	jal	0x103cb4 <memset>
  10263e: 23 2a 04 02  	sw	zero, 52(s0)
  102642: 23 2c 04 02  	sw	zero, 56(s0)
  102646: 23 24 04 04  	sw	zero, 72(s0)
  10264a: 23 26 04 04  	sw	zero, 76(s0)
  10264e: f2 40        	lw	ra, 28(sp)
  102650: 22 85        	mv	a0, s0
  102652: 62 44        	lw	s0, 24(sp)
  102654: d2 44        	lw	s1, 20(sp)
  102656: 42 49        	lw	s2, 16(sp)
  102658: b2 49        	lw	s3, 12(sp)
  10265a: 05 61        	addi	sp, sp, 32
  10265c: 82 80        	ret
  10265e: 13 04 84 06  	addi	s0, s0, 104
  102662: 51 b7        	j	0x1025e6 <__sfp+0x24>
  102664: 23 20 05 00  	sw	zero, 0(a0)
  102668: 23 22 35 01  	sw	s3, 4(a0)
  10266c: 31 05        	addi	a0, a0, 12
  10266e: 08 c4        	sw	a0, 8(s0)
  102670: 13 06 00 1a  	li	a2, 416
  102674: 81 45        	li	a1, 0
  102676: ef 10 e0 63  	jal	0x103cb4 <memset>
  10267a: 80 c0        	sw	s0, 0(s1)
  10267c: 84 40        	lw	s1, 0(s1)
  10267e: 95 b7        	j	0x1025e2 <__sfp+0x20>

00102680 <__sfp_lock_acquire>:
  102680: 82 80        	ret

00102682 <__sfp_lock_release>:
  102682: 82 80        	ret

00102684 <__sinit_lock_acquire>:
  102684: 82 80        	ret

00102686 <__sinit_lock_release>:
  102686: 82 80        	ret

00102688 <__fp_lock_all>:
  102688: 03 a5 41 8a  	lw	a0, -1884(gp)
  10268c: b7 25 10 00  	lui	a1, 258
  102690: 93 85 25 4f  	addi	a1, a1, 1266
  102694: 01 a5        	j	0x102c94 <_fwalk_reent>

00102696 <__fp_unlock_all>:
  102696: 03 a5 41 8a  	lw	a0, -1884(gp)
  10269a: b7 25 10 00  	lui	a1, 258
  10269e: 93 85 c5 56  	addi	a1, a1, 1388
  1026a2: cd ab        	j	0x102c94 <_fwalk_reent>

001026a4 <_fopen_r>:
  1026a4: 79 71        	addi	sp, sp, -48
  1026a6: 4e ce        	sw	s3, 28(sp)
  1026a8: ae 89        	mv	s3, a1
  1026aa: b2 85        	mv	a1, a2
  1026ac: 70 00        	addi	a2, sp, 12
  1026ae: 4a d0        	sw	s2, 32(sp)
  1026b0: 06 d6        	sw	ra, 44(sp)
  1026b2: 22 d4        	sw	s0, 40(sp)
  1026b4: 26 d2        	sw	s1, 36(sp)
  1026b6: 2a 89        	mv	s2, a0
  1026b8: ef 50 60 08  	jal	0x10773e <__sflags>
  1026bc: 11 e9        	bnez	a0, 0x1026d0 <_fopen_r+0x2c>
  1026be: 01 44        	li	s0, 0
  1026c0: b2 50        	lw	ra, 44(sp)
  1026c2: 22 85        	mv	a0, s0
  1026c4: 22 54        	lw	s0, 40(sp)
  1026c6: 92 54        	lw	s1, 36(sp)
  1026c8: 02 59        	lw	s2, 32(sp)
  1026ca: f2 49        	lw	s3, 28(sp)
  1026cc: 45 61        	addi	sp, sp, 48
  1026ce: 82 80        	ret
  1026d0: aa 84        	mv	s1, a0
  1026d2: 4a 85        	mv	a0, s2
  1026d4: fd 35        	jal	0x1025c2 <__sfp>
  1026d6: 2a 84        	mv	s0, a0
  1026d8: 7d d1        	beqz	a0, 0x1026be <_fopen_r+0x1a>
  1026da: 32 46        	lw	a2, 12(sp)
  1026dc: 93 06 60 1b  	li	a3, 438
  1026e0: ce 85        	mv	a1, s3
  1026e2: 4a 85        	mv	a0, s2
  1026e4: ef 10 e0 43  	jal	0x103b22 <_open_r>
  1026e8: 63 57 05 00  	bgez	a0, 0x1026f6 <_fopen_r+0x52>
  1026ec: 51 3f        	jal	0x102680 <__sfp_lock_acquire>
  1026ee: 23 16 04 00  	sh	zero, 12(s0)
  1026f2: 41 3f        	jal	0x102682 <__sfp_lock_release>
  1026f4: e9 b7        	j	0x1026be <_fopen_r+0x1a>
  1026f6: b7 37 10 00  	lui	a5, 259
  1026fa: 93 87 07 53  	addi	a5, a5, 1328
  1026fe: 5c d0        	sw	a5, 36(s0)
  102700: b7 37 10 00  	lui	a5, 259
  102704: 93 87 47 56  	addi	a5, a5, 1380
  102708: 1c d4        	sw	a5, 40(s0)
  10270a: b7 37 10 00  	lui	a5, 259
  10270e: 93 87 27 5b  	addi	a5, a5, 1458
  102712: 5c d4        	sw	a5, 44(s0)
  102714: b7 37 10 00  	lui	a5, 259
  102718: 93 87 87 5e  	addi	a5, a5, 1512
  10271c: 23 16 94 00  	sh	s1, 12(s0)
  102720: 23 17 a4 00  	sh	a0, 14(s0)
  102724: 00 d0        	sw	s0, 32(s0)
  102726: 1c d8        	sw	a5, 48(s0)
  102728: 93 f4 04 10  	andi	s1, s1, 256
  10272c: d1 d8        	beqz	s1, 0x1026c0 <_fopen_r+0x1c>
  10272e: 89 46        	li	a3, 2
  102730: 01 46        	li	a2, 0
  102732: a2 85        	mv	a1, s0
  102734: 4a 85        	mv	a0, s2
  102736: b5 24        	jal	0x1029a2 <_fseek_r>
  102738: 61 b7        	j	0x1026c0 <_fopen_r+0x1c>

0010273a <fopen>:
  10273a: 2e 86        	mv	a2, a1
  10273c: aa 85        	mv	a1, a0
  10273e: 03 a5 41 8a  	lw	a0, -1884(gp)
  102742: 8d b7        	j	0x1026a4 <_fopen_r>

00102744 <_fprintf_r>:
  102744: 39 71        	addi	sp, sp, -64
  102746: 36 d6        	sw	a3, 44(sp)
  102748: 74 10        	addi	a3, sp, 44
  10274a: 06 ce        	sw	ra, 28(sp)
  10274c: 3a d8        	sw	a4, 48(sp)
  10274e: 3e da        	sw	a5, 52(sp)
  102750: 42 dc        	sw	a6, 56(sp)
  102752: 46 de        	sw	a7, 60(sp)
  102754: 36 c6        	sw	a3, 12(sp)
  102756: ef e0 9f f8  	jal	0x1016de <_vfprintf_r>
  10275a: f2 40        	lw	ra, 28(sp)
  10275c: 21 61        	addi	sp, sp, 64
  10275e: 82 80        	ret

00102760 <fprintf>:
  102760: 39 71        	addi	sp, sp, -64
  102762: 3e da        	sw	a5, 52(sp)
  102764: 32 d4        	sw	a2, 40(sp)
  102766: 2e 86        	mv	a2, a1
  102768: aa 85        	mv	a1, a0
  10276a: 03 a5 41 8a  	lw	a0, -1884(gp)
  10276e: 36 d6        	sw	a3, 44(sp)
  102770: 34 10        	addi	a3, sp, 40
  102772: 06 ce        	sw	ra, 28(sp)
  102774: 3a d8        	sw	a4, 48(sp)
  102776: 42 dc        	sw	a6, 56(sp)
  102778: 46 de        	sw	a7, 60(sp)
  10277a: 36 c6        	sw	a3, 12(sp)
  10277c: ef e0 3f f6  	jal	0x1016de <_vfprintf_r>
  102780: f2 40        	lw	ra, 28(sp)
  102782: 21 61        	addi	sp, sp, 64
  102784: 82 80        	ret

00102786 <_fputc_r>:
  102786: 01 11        	addi	sp, sp, -32
  102788: 22 cc        	sw	s0, 24(sp)
  10278a: 06 ce        	sw	ra, 28(sp)
  10278c: 2a 84        	mv	s0, a0
  10278e: 01 c9        	beqz	a0, 0x10279e <_fputc_r+0x18>
  102790: 1c 55        	lw	a5, 40(a0)
  102792: 91 e7        	bnez	a5, 0x10279e <_fputc_r+0x18>
  102794: 32 c6        	sw	a2, 12(sp)
  102796: 2e c4        	sw	a1, 8(sp)
  102798: e1 3b        	jal	0x102570 <__sinit>
  10279a: 32 46        	lw	a2, 12(sp)
  10279c: a2 45        	lw	a1, 8(sp)
  10279e: 93 87 41 b3  	addi	a5, gp, -1228
  1027a2: 63 19 f6 00  	bne	a2, a5, 0x1027b4 <_fputc_r+0x2e>
  1027a6: 50 40        	lw	a2, 4(s0)
  1027a8: 22 85        	mv	a0, s0
  1027aa: 62 44        	lw	s0, 24(sp)
  1027ac: f2 40        	lw	ra, 28(sp)
  1027ae: 05 61        	addi	sp, sp, 32
  1027b0: 6f 00 70 07  	j	0x103026 <_putc_r>
  1027b4: 93 87 41 b5  	addi	a5, gp, -1196
  1027b8: 63 14 f6 00  	bne	a2, a5, 0x1027c0 <_fputc_r+0x3a>
  1027bc: 10 44        	lw	a2, 8(s0)
  1027be: ed b7        	j	0x1027a8 <_fputc_r+0x22>
  1027c0: 93 87 41 b1  	addi	a5, gp, -1260
  1027c4: e3 12 f6 fe  	bne	a2, a5, 0x1027a8 <_fputc_r+0x22>
  1027c8: 50 44        	lw	a2, 12(s0)
  1027ca: f9 bf        	j	0x1027a8 <_fputc_r+0x22>

001027cc <fputc>:
  1027cc: 2e 86        	mv	a2, a1
  1027ce: aa 85        	mv	a1, a0
  1027d0: 03 a5 41 8a  	lw	a0, -1884(gp)
  1027d4: 4d bf        	j	0x102786 <_fputc_r>

001027d6 <_fputs_r>:
  1027d6: 01 11        	addi	sp, sp, -32
  1027d8: 22 cc        	sw	s0, 24(sp)
  1027da: 26 ca        	sw	s1, 20(sp)
  1027dc: 4a c8        	sw	s2, 16(sp)
  1027de: 06 ce        	sw	ra, 28(sp)
  1027e0: 4e c6        	sw	s3, 12(sp)
  1027e2: 52 c4        	sw	s4, 8(sp)
  1027e4: aa 84        	mv	s1, a0
  1027e6: 2e 89        	mv	s2, a1
  1027e8: 32 84        	mv	s0, a2
  1027ea: 01 c5        	beqz	a0, 0x1027f2 <_fputs_r+0x1c>
  1027ec: 1c 55        	lw	a5, 40(a0)
  1027ee: 91 e3        	bnez	a5, 0x1027f2 <_fputs_r+0x1c>
  1027f0: 41 33        	jal	0x102570 <__sinit>
  1027f2: 93 87 41 b3  	addi	a5, gp, -1228
  1027f6: 63 10 f4 02  	bne	s0, a5, 0x102816 <_fputs_r+0x40>
  1027fa: c0 40        	lw	s0, 4(s1)
  1027fc: 83 57 c4 00  	lhu	a5, 12(s0)
  102800: a1 8b        	andi	a5, a5, 8
  102802: 95 c7        	beqz	a5, 0x10282e <_fputs_r+0x58>
  102804: 1c 48        	lw	a5, 16(s0)
  102806: 85 c7        	beqz	a5, 0x10282e <_fputs_r+0x58>
  102808: fd 59        	li	s3, -1
  10280a: 29 4a        	li	s4, 10
  10280c: 83 45 09 00  	lbu	a1, 0(s2)
  102810: 8d ed        	bnez	a1, 0x10284a <_fputs_r+0x74>
  102812: 01 45        	li	a0, 0
  102814: 1d a0        	j	0x10283a <_fputs_r+0x64>
  102816: 93 87 41 b5  	addi	a5, gp, -1196
  10281a: 63 14 f4 00  	bne	s0, a5, 0x102822 <_fputs_r+0x4c>
  10281e: 80 44        	lw	s0, 8(s1)
  102820: f1 bf        	j	0x1027fc <_fputs_r+0x26>
  102822: 93 87 41 b1  	addi	a5, gp, -1260
  102826: e3 1b f4 fc  	bne	s0, a5, 0x1027fc <_fputs_r+0x26>
  10282a: c0 44        	lw	s0, 12(s1)
  10282c: c1 bf        	j	0x1027fc <_fputs_r+0x26>
  10282e: a2 85        	mv	a1, s0
  102830: 26 85        	mv	a0, s1
  102832: ef 00 90 71  	jal	0x10374a <__swsetup_r>
  102836: 69 d9        	beqz	a0, 0x102808 <_fputs_r+0x32>
  102838: 7d 55        	li	a0, -1
  10283a: f2 40        	lw	ra, 28(sp)
  10283c: 62 44        	lw	s0, 24(sp)
  10283e: d2 44        	lw	s1, 20(sp)
  102840: 42 49        	lw	s2, 16(sp)
  102842: b2 49        	lw	s3, 12(sp)
  102844: 22 4a        	lw	s4, 8(sp)
  102846: 05 61        	addi	sp, sp, 32
  102848: 82 80        	ret
  10284a: 1c 44        	lw	a5, 8(s0)
  10284c: 05 09        	addi	s2, s2, 1
  10284e: fd 17        	addi	a5, a5, -1
  102850: 1c c4        	sw	a5, 8(s0)
  102852: 63 d7 07 00  	bgez	a5, 0x102860 <_fputs_r+0x8a>
  102856: 18 4c        	lw	a4, 24(s0)
  102858: 63 cb e7 00  	blt	a5, a4, 0x10286e <_fputs_r+0x98>
  10285c: 63 89 45 01  	beq	a1, s4, 0x10286e <_fputs_r+0x98>
  102860: 1c 40        	lw	a5, 0(s0)
  102862: 13 87 17 00  	addi	a4, a5, 1
  102866: 18 c0        	sw	a4, 0(s0)
  102868: 23 80 b7 00  	sb	a1, 0(a5)
  10286c: 45 b7        	j	0x10280c <_fputs_r+0x36>
  10286e: 22 86        	mv	a2, s0
  102870: 26 85        	mv	a0, s1
  102872: ef 00 50 61  	jal	0x103686 <__swbuf_r>
  102876: e3 1b 35 f9  	bne	a0, s3, 0x10280c <_fputs_r+0x36>
  10287a: 7d bf        	j	0x102838 <_fputs_r+0x62>

0010287c <fputs>:
  10287c: 2e 86        	mv	a2, a1
  10287e: aa 85        	mv	a1, a0
  102880: 03 a5 41 8a  	lw	a0, -1884(gp)
  102884: 89 bf        	j	0x1027d6 <_fputs_r>

00102886 <_fread_r>:
  102886: 79 71        	addi	sp, sp, -48
  102888: 52 cc        	sw	s4, 24(sp)
  10288a: 33 8a c6 02  	mul	s4, a3, a2
  10288e: 06 d6        	sw	ra, 44(sp)
  102890: 22 d4        	sw	s0, 40(sp)
  102892: 26 d2        	sw	s1, 36(sp)
  102894: 4a d0        	sw	s2, 32(sp)
  102896: 4e ce        	sw	s3, 28(sp)
  102898: 56 ca        	sw	s5, 20(sp)
  10289a: 5a c8        	sw	s6, 16(sp)
  10289c: 5e c6        	sw	s7, 12(sp)
  10289e: 62 c4        	sw	s8, 8(sp)
  1028a0: 63 0a 0a 08  	beqz	s4, 0x102934 <_fread_r+0xae>
  1028a4: 2a 89        	mv	s2, a0
  1028a6: ae 8a        	mv	s5, a1
  1028a8: b2 8b        	mv	s7, a2
  1028aa: 36 8b        	mv	s6, a3
  1028ac: 3a 84        	mv	s0, a4
  1028ae: 01 c5        	beqz	a0, 0x1028b6 <_fread_r+0x30>
  1028b0: 1c 55        	lw	a5, 40(a0)
  1028b2: 91 e3        	bnez	a5, 0x1028b6 <_fread_r+0x30>
  1028b4: 75 39        	jal	0x102570 <__sinit>
  1028b6: 93 87 41 b3  	addi	a5, gp, -1228
  1028ba: 63 1b f4 02  	bne	s0, a5, 0x1028f0 <_fread_r+0x6a>
  1028be: 03 24 49 00  	lw	s0, 4(s2)
  1028c2: 5c 40        	lw	a5, 4(s0)
  1028c4: 63 d4 07 00  	bgez	a5, 0x1028cc <_fread_r+0x46>
  1028c8: 23 22 04 00  	sw	zero, 4(s0)
  1028cc: d2 89        	mv	s3, s4
  1028ce: 44 40        	lw	s1, 4(s0)
  1028d0: 0c 40        	lw	a1, 0(s0)
  1028d2: 63 ed 34 03  	bltu	s1, s3, 0x10290c <_fread_r+0x86>
  1028d6: 4e 86        	mv	a2, s3
  1028d8: 56 85        	mv	a0, s5
  1028da: ef 10 a0 3e  	jal	0x103cc4 <memcpy>
  1028de: 5c 40        	lw	a5, 4(s0)
  1028e0: 04 40        	lw	s1, 0(s0)
  1028e2: 5a 8a        	mv	s4, s6
  1028e4: b3 87 37 41  	sub	a5, a5, s3
  1028e8: ce 94        	add	s1, s1, s3
  1028ea: 5c c0        	sw	a5, 4(s0)
  1028ec: 04 c0        	sw	s1, 0(s0)
  1028ee: 99 a0        	j	0x102934 <_fread_r+0xae>
  1028f0: 93 87 41 b5  	addi	a5, gp, -1196
  1028f4: 63 15 f4 00  	bne	s0, a5, 0x1028fe <_fread_r+0x78>
  1028f8: 03 24 89 00  	lw	s0, 8(s2)
  1028fc: d9 b7        	j	0x1028c2 <_fread_r+0x3c>
  1028fe: 93 87 41 b1  	addi	a5, gp, -1260
  102902: e3 10 f4 fc  	bne	s0, a5, 0x1028c2 <_fread_r+0x3c>
  102906: 03 24 c9 00  	lw	s0, 12(s2)
  10290a: 65 bf        	j	0x1028c2 <_fread_r+0x3c>
  10290c: 56 85        	mv	a0, s5
  10290e: 26 86        	mv	a2, s1
  102910: ef 10 40 3b  	jal	0x103cc4 <memcpy>
  102914: 1c 40        	lw	a5, 0(s0)
  102916: a2 85        	mv	a1, s0
  102918: 4a 85        	mv	a0, s2
  10291a: a6 97        	add	a5, a5, s1
  10291c: 1c c0        	sw	a5, 0(s0)
  10291e: a6 9a        	add	s5, s5, s1
  102920: 33 8c 99 40  	sub	s8, s3, s1
  102924: ef 00 10 0c  	jal	0x1031e4 <__srefill_r>
  102928: 1d c1        	beqz	a0, 0x10294e <_fread_r+0xc8>
  10292a: d2 94        	add	s1, s1, s4
  10292c: b3 84 34 41  	sub	s1, s1, s3
  102930: 33 da 74 03  	divu	s4, s1, s7
  102934: b2 50        	lw	ra, 44(sp)
  102936: 22 54        	lw	s0, 40(sp)
  102938: 92 54        	lw	s1, 36(sp)
  10293a: 02 59        	lw	s2, 32(sp)
  10293c: f2 49        	lw	s3, 28(sp)
  10293e: d2 4a        	lw	s5, 20(sp)
  102940: 42 4b        	lw	s6, 16(sp)
  102942: b2 4b        	lw	s7, 12(sp)
  102944: 22 4c        	lw	s8, 8(sp)
  102946: 52 85        	mv	a0, s4
  102948: 62 4a        	lw	s4, 24(sp)
  10294a: 45 61        	addi	sp, sp, 48
  10294c: 82 80        	ret
  10294e: e2 89        	mv	s3, s8
  102950: bd bf        	j	0x1028ce <_fread_r+0x48>

00102952 <fread>:
  102952: 36 87        	mv	a4, a3
  102954: b2 86        	mv	a3, a2
  102956: 2e 86        	mv	a2, a1
  102958: aa 85        	mv	a1, a0
  10295a: 03 a5 41 8a  	lw	a0, -1884(gp)
  10295e: 25 b7        	j	0x102886 <_fread_r>

00102960 <fscanf>:
  102960: 39 71        	addi	sp, sp, -64
  102962: 3e da        	sw	a5, 52(sp)
  102964: 32 d4        	sw	a2, 40(sp)
  102966: 2e 86        	mv	a2, a1
  102968: aa 85        	mv	a1, a0
  10296a: 03 a5 41 8a  	lw	a0, -1884(gp)
  10296e: 36 d6        	sw	a3, 44(sp)
  102970: 34 10        	addi	a3, sp, 40
  102972: 06 ce        	sw	ra, 28(sp)
  102974: 3a d8        	sw	a4, 48(sp)
  102976: 42 dc        	sw	a6, 56(sp)
  102978: 46 de        	sw	a7, 60(sp)
  10297a: 36 c6        	sw	a3, 12(sp)
  10297c: ef 40 30 24  	jal	0x1073be <_vfscanf_r>
  102980: f2 40        	lw	ra, 28(sp)
  102982: 21 61        	addi	sp, sp, 64
  102984: 82 80        	ret

00102986 <_fscanf_r>:
  102986: 39 71        	addi	sp, sp, -64
  102988: 36 d6        	sw	a3, 44(sp)
  10298a: 74 10        	addi	a3, sp, 44
  10298c: 06 ce        	sw	ra, 28(sp)
  10298e: 3a d8        	sw	a4, 48(sp)
  102990: 3e da        	sw	a5, 52(sp)
  102992: 42 dc        	sw	a6, 56(sp)
  102994: 46 de        	sw	a7, 60(sp)
  102996: 36 c6        	sw	a3, 12(sp)
  102998: ef 40 70 22  	jal	0x1073be <_vfscanf_r>
  10299c: f2 40        	lw	ra, 28(sp)
  10299e: 21 61        	addi	sp, sp, 64
  1029a0: 82 80        	ret

001029a2 <_fseek_r>:
  1029a2: 6f 00 90 6a  	j	0x10384a <_fseeko_r>

001029a6 <fseek>:
  1029a6: b2 86        	mv	a3, a2
  1029a8: 2e 86        	mv	a2, a1
  1029aa: aa 85        	mv	a1, a0
  1029ac: 03 a5 41 8a  	lw	a0, -1884(gp)
  1029b0: 6f 00 b0 69  	j	0x10384a <_fseeko_r>

001029b4 <__sfvwrite_r>:
  1029b4: 1c 46        	lw	a5, 8(a2)
  1029b6: 81 e7        	bnez	a5, 0x1029be <__sfvwrite_r+0xa>
  1029b8: 81 47        	li	a5, 0
  1029ba: 3e 85        	mv	a0, a5
  1029bc: 82 80        	ret
  1029be: 83 d7 c5 00  	lhu	a5, 12(a1)
  1029c2: 5d 71        	addi	sp, sp, -80
  1029c4: a2 c4        	sw	s0, 72(sp)
  1029c6: ca c0        	sw	s2, 64(sp)
  1029c8: 52 dc        	sw	s4, 56(sp)
  1029ca: 86 c6        	sw	ra, 76(sp)
  1029cc: a6 c2        	sw	s1, 68(sp)
  1029ce: 4e de        	sw	s3, 60(sp)
  1029d0: 56 da        	sw	s5, 52(sp)
  1029d2: 5a d8        	sw	s6, 48(sp)
  1029d4: 5e d6        	sw	s7, 44(sp)
  1029d6: 62 d4        	sw	s8, 40(sp)
  1029d8: 66 d2        	sw	s9, 36(sp)
  1029da: 6a d0        	sw	s10, 32(sp)
  1029dc: 6e ce        	sw	s11, 28(sp)
  1029de: a1 8b        	andi	a5, a5, 8
  1029e0: 2a 89        	mv	s2, a0
  1029e2: 2e 84        	mv	s0, a1
  1029e4: 32 8a        	mv	s4, a2
  1029e6: d9 cf        	beqz	a5, 0x102a84 <__sfvwrite_r+0xd0>
  1029e8: 9c 49        	lw	a5, 16(a1)
  1029ea: c9 cf        	beqz	a5, 0x102a84 <__sfvwrite_r+0xd0>
  1029ec: 83 57 c4 00  	lhu	a5, 12(s0)
  1029f0: 83 29 0a 00  	lw	s3, 0(s4)
  1029f4: 13 f7 27 00  	andi	a4, a5, 2
  1029f8: 63 18 07 0e  	bnez	a4, 0x102ae8 <__sfvwrite_r+0x134>
  1029fc: 85 8b        	andi	a5, a5, 1
  1029fe: 63 82 07 16  	beqz	a5, 0x102b62 <__sfvwrite_r+0x1ae>
  102a02: 81 4b        	li	s7, 0
  102a04: 01 45        	li	a0, 0
  102a06: 01 4b        	li	s6, 0
  102a08: 81 4a        	li	s5, 0
  102a0a: 63 86 0a 24  	beqz	s5, 0x102c56 <__sfvwrite_r+0x2a2>
  102a0e: 01 ed        	bnez	a0, 0x102a26 <__sfvwrite_r+0x72>
  102a10: 56 86        	mv	a2, s5
  102a12: a9 45        	li	a1, 10
  102a14: 5a 85        	mv	a0, s6
  102a16: ef 00 50 78  	jal	0x10399a <memchr>
  102a1a: 93 8b 1a 00  	addi	s7, s5, 1
  102a1e: 01 c5        	beqz	a0, 0x102a26 <__sfvwrite_r+0x72>
  102a20: 05 05        	addi	a0, a0, 1
  102a22: b3 0b 65 41  	sub	s7, a0, s6
  102a26: 5e 8c        	mv	s8, s7
  102a28: 63 f3 7a 01  	bgeu	s5, s7, 0x102a2e <__sfvwrite_r+0x7a>
  102a2c: 56 8c        	mv	s8, s5
  102a2e: 08 40        	lw	a0, 0(s0)
  102a30: 1c 48        	lw	a5, 16(s0)
  102a32: 54 48        	lw	a3, 20(s0)
  102a34: 63 f8 a7 22  	bgeu	a5, a0, 0x102c64 <__sfvwrite_r+0x2b0>
  102a38: 04 44        	lw	s1, 8(s0)
  102a3a: b6 94        	add	s1, s1, a3
  102a3c: 63 d4 84 23  	bge	s1, s8, 0x102c64 <__sfvwrite_r+0x2b0>
  102a40: da 85        	mv	a1, s6
  102a42: 26 86        	mv	a2, s1
  102a44: ef 10 a0 24  	jal	0x103c8e <memmove>
  102a48: 1c 40        	lw	a5, 0(s0)
  102a4a: a2 85        	mv	a1, s0
  102a4c: 4a 85        	mv	a0, s2
  102a4e: a6 97        	add	a5, a5, s1
  102a50: 1c c0        	sw	a5, 0(s0)
  102a52: ef f0 1f 8e  	jal	0x102332 <_fflush_r>
  102a56: 63 1e 05 0e  	bnez	a0, 0x102b52 <__sfvwrite_r+0x19e>
  102a5a: b3 8b 9b 40  	sub	s7, s7, s1
  102a5e: 05 45        	li	a0, 1
  102a60: 63 97 0b 00  	bnez	s7, 0x102a6e <__sfvwrite_r+0xba>
  102a64: a2 85        	mv	a1, s0
  102a66: 4a 85        	mv	a0, s2
  102a68: ef f0 bf 8c  	jal	0x102332 <_fflush_r>
  102a6c: 7d e1        	bnez	a0, 0x102b52 <__sfvwrite_r+0x19e>
  102a6e: 03 26 8a 00  	lw	a2, 8(s4)
  102a72: 26 9b        	add	s6, s6, s1
  102a74: b3 8a 9a 40  	sub	s5, s5, s1
  102a78: b3 04 96 40  	sub	s1, a2, s1
  102a7c: 23 24 9a 00  	sw	s1, 8(s4)
  102a80: c9 f4        	bnez	s1, 0x102a0a <__sfvwrite_r+0x56>
  102a82: 91 a0        	j	0x102ac6 <__sfvwrite_r+0x112>
  102a84: a2 85        	mv	a1, s0
  102a86: 4a 85        	mv	a0, s2
  102a88: ef 00 30 4c  	jal	0x10374a <__swsetup_r>
  102a8c: fd 57        	li	a5, -1
  102a8e: 39 dd        	beqz	a0, 0x1029ec <__sfvwrite_r+0x38>
  102a90: 25 a8        	j	0x102ac8 <__sfvwrite_r+0x114>
  102a92: 83 aa 09 00  	lw	s5, 0(s3)
  102a96: 83 a4 49 00  	lw	s1, 4(s3)
  102a9a: a1 09        	addi	s3, s3, 8
  102a9c: fd d8        	beqz	s1, 0x102a92 <__sfvwrite_r+0xde>
  102a9e: a6 86        	mv	a3, s1
  102aa0: 63 73 9b 00  	bgeu	s6, s1, 0x102aa6 <__sfvwrite_r+0xf2>
  102aa4: da 86        	mv	a3, s6
  102aa6: 1c 54        	lw	a5, 40(s0)
  102aa8: 0c 50        	lw	a1, 32(s0)
  102aaa: 56 86        	mv	a2, s5
  102aac: 4a 85        	mv	a0, s2
  102aae: 82 97        	jalr	a5
  102ab0: 63 51 a0 0a  	blez	a0, 0x102b52 <__sfvwrite_r+0x19e>
  102ab4: 83 27 8a 00  	lw	a5, 8(s4)
  102ab8: aa 9a        	add	s5, s5, a0
  102aba: 89 8c        	sub	s1, s1, a0
  102abc: 33 85 a7 40  	sub	a0, a5, a0
  102ac0: 23 24 aa 00  	sw	a0, 8(s4)
  102ac4: 61 fd        	bnez	a0, 0x102a9c <__sfvwrite_r+0xe8>
  102ac6: 81 47        	li	a5, 0
  102ac8: b6 40        	lw	ra, 76(sp)
  102aca: 26 44        	lw	s0, 72(sp)
  102acc: 96 44        	lw	s1, 68(sp)
  102ace: 06 49        	lw	s2, 64(sp)
  102ad0: f2 59        	lw	s3, 60(sp)
  102ad2: 62 5a        	lw	s4, 56(sp)
  102ad4: d2 5a        	lw	s5, 52(sp)
  102ad6: 42 5b        	lw	s6, 48(sp)
  102ad8: b2 5b        	lw	s7, 44(sp)
  102ada: 22 5c        	lw	s8, 40(sp)
  102adc: 92 5c        	lw	s9, 36(sp)
  102ade: 02 5d        	lw	s10, 32(sp)
  102ae0: f2 4d        	lw	s11, 28(sp)
  102ae2: 3e 85        	mv	a0, a5
  102ae4: 61 61        	addi	sp, sp, 80
  102ae6: 82 80        	ret
  102ae8: 37 0b 00 80  	lui	s6, 524288
  102aec: 81 4a        	li	s5, 0
  102aee: 81 44        	li	s1, 0
  102af0: 13 4b 0b c0  	xori	s6, s6, -1024
  102af4: 65 b7        	j	0x102a9c <__sfvwrite_r+0xe8>
  102af6: 83 aa 09 00  	lw	s5, 0(s3)
  102afa: 03 ad 49 00  	lw	s10, 4(s3)
  102afe: a1 09        	addi	s3, s3, 8
  102b00: e3 0b 0d fe  	beqz	s10, 0x102af6 <__sfvwrite_r+0x142>
  102b04: 83 57 c4 00  	lhu	a5, 12(s0)
  102b08: 10 44        	lw	a2, 8(s0)
  102b0a: 08 40        	lw	a0, 0(s0)
  102b0c: 13 f7 07 20  	andi	a4, a5, 512
  102b10: 63 07 07 0e  	beqz	a4, 0x102bfe <__sfvwrite_r+0x24a>
  102b14: 63 69 cd 08  	bltu	s10, a2, 0x102ba6 <__sfvwrite_r+0x1f2>
  102b18: 13 f7 07 48  	andi	a4, a5, 1152
  102b1c: 49 c7        	beqz	a4, 0x102ba6 <__sfvwrite_r+0x1f2>
  102b1e: 83 2d 44 01  	lw	s11, 20(s0)
  102b22: 0c 48        	lw	a1, 16(s0)
  102b24: b3 0d bc 03  	mul	s11, s8, s11
  102b28: b3 04 b5 40  	sub	s1, a0, a1
  102b2c: 13 87 14 00  	addi	a4, s1, 1
  102b30: 6a 97        	add	a4, a4, s10
  102b32: b3 cd 9d 03  	div	s11, s11, s9
  102b36: 63 f3 ed 00  	bgeu	s11, a4, 0x102b3c <__sfvwrite_r+0x188>
  102b3a: ba 8d        	mv	s11, a4
  102b3c: 93 f7 07 40  	andi	a5, a5, 1024
  102b40: d1 cf        	beqz	a5, 0x102bdc <__sfvwrite_r+0x228>
  102b42: ee 85        	mv	a1, s11
  102b44: 4a 85        	mv	a0, s2
  102b46: ef e0 0f b2  	jal	0x100e66 <_malloc_r>
  102b4a: 1d e5        	bnez	a0, 0x102b78 <__sfvwrite_r+0x1c4>
  102b4c: b1 47        	li	a5, 12
  102b4e: 23 20 f9 00  	sw	a5, 0(s2)
  102b52: 83 57 c4 00  	lhu	a5, 12(s0)
  102b56: 93 e7 07 04  	ori	a5, a5, 64
  102b5a: 23 16 f4 00  	sh	a5, 12(s0)
  102b5e: fd 57        	li	a5, -1
  102b60: a5 b7        	j	0x102ac8 <__sfvwrite_r+0x114>
  102b62: 37 0b 00 80  	lui	s6, 524288
  102b66: 93 4b eb ff  	xori	s7, s6, -2
  102b6a: 81 4a        	li	s5, 0
  102b6c: 01 4d        	li	s10, 0
  102b6e: 13 4b fb ff  	not	s6, s6
  102b72: 0d 4c        	li	s8, 3
  102b74: 89 4c        	li	s9, 2
  102b76: 69 b7        	j	0x102b00 <__sfvwrite_r+0x14c>
  102b78: 0c 48        	lw	a1, 16(s0)
  102b7a: 26 86        	mv	a2, s1
  102b7c: 2a c6        	sw	a0, 12(sp)
  102b7e: ef 10 60 14  	jal	0x103cc4 <memcpy>
  102b82: 03 57 c4 00  	lhu	a4, 12(s0)
  102b86: b2 47        	lw	a5, 12(sp)
  102b88: 13 77 f7 b7  	andi	a4, a4, -1153
  102b8c: 13 67 07 08  	ori	a4, a4, 128
  102b90: 23 16 e4 00  	sh	a4, 12(s0)
  102b94: 1c c8        	sw	a5, 16(s0)
  102b96: a6 97        	add	a5, a5, s1
  102b98: b3 84 9d 40  	sub	s1, s11, s1
  102b9c: 1c c0        	sw	a5, 0(s0)
  102b9e: 23 2a b4 01  	sw	s11, 20(s0)
  102ba2: 6a 86        	mv	a2, s10
  102ba4: 04 c4        	sw	s1, 8(s0)
  102ba6: ea 84        	mv	s1, s10
  102ba8: 63 73 cd 00  	bgeu	s10, a2, 0x102bae <__sfvwrite_r+0x1fa>
  102bac: 6a 86        	mv	a2, s10
  102bae: 08 40        	lw	a0, 0(s0)
  102bb0: d6 85        	mv	a1, s5
  102bb2: 32 c6        	sw	a2, 12(sp)
  102bb4: ef 10 a0 0d  	jal	0x103c8e <memmove>
  102bb8: 1c 44        	lw	a5, 8(s0)
  102bba: 32 46        	lw	a2, 12(sp)
  102bbc: 91 8f        	sub	a5, a5, a2
  102bbe: 1c c4        	sw	a5, 8(s0)
  102bc0: 1c 40        	lw	a5, 0(s0)
  102bc2: 3e 96        	add	a2, a2, a5
  102bc4: 10 c0        	sw	a2, 0(s0)
  102bc6: 03 25 8a 00  	lw	a0, 8(s4)
  102bca: a6 9a        	add	s5, s5, s1
  102bcc: 33 0d 9d 40  	sub	s10, s10, s1
  102bd0: b3 04 95 40  	sub	s1, a0, s1
  102bd4: 23 24 9a 00  	sw	s1, 8(s4)
  102bd8: 85 f4        	bnez	s1, 0x102b00 <__sfvwrite_r+0x14c>
  102bda: f5 b5        	j	0x102ac6 <__sfvwrite_r+0x112>
  102bdc: 6e 86        	mv	a2, s11
  102bde: 4a 85        	mv	a0, s2
  102be0: ef e0 ef ba  	jal	0x100f8e <_realloc_r>
  102be4: aa 87        	mv	a5, a0
  102be6: 5d f5        	bnez	a0, 0x102b94 <__sfvwrite_r+0x1e0>
  102be8: 0c 48        	lw	a1, 16(s0)
  102bea: 4a 85        	mv	a0, s2
  102bec: ef 10 10 76  	jal	0x104b4c <_free_r>
  102bf0: 83 57 c4 00  	lhu	a5, 12(s0)
  102bf4: 93 f7 f7 f7  	andi	a5, a5, -129
  102bf8: 23 16 f4 00  	sh	a5, 12(s0)
  102bfc: 81 bf        	j	0x102b4c <__sfvwrite_r+0x198>
  102bfe: 1c 48        	lw	a5, 16(s0)
  102c00: 63 e5 a7 00  	bltu	a5, a0, 0x102c0a <__sfvwrite_r+0x256>
  102c04: 54 48        	lw	a3, 20(s0)
  102c06: 63 77 dd 02  	bgeu	s10, a3, 0x102c34 <__sfvwrite_r+0x280>
  102c0a: b2 84        	mv	s1, a2
  102c0c: 63 73 cd 00  	bgeu	s10, a2, 0x102c12 <__sfvwrite_r+0x25e>
  102c10: ea 84        	mv	s1, s10
  102c12: 26 86        	mv	a2, s1
  102c14: d6 85        	mv	a1, s5
  102c16: ef 10 80 07  	jal	0x103c8e <memmove>
  102c1a: 1c 44        	lw	a5, 8(s0)
  102c1c: 18 40        	lw	a4, 0(s0)
  102c1e: 85 8f        	sub	a5, a5, s1
  102c20: 26 97        	add	a4, a4, s1
  102c22: 1c c4        	sw	a5, 8(s0)
  102c24: 18 c0        	sw	a4, 0(s0)
  102c26: c5 f3        	bnez	a5, 0x102bc6 <__sfvwrite_r+0x212>
  102c28: a2 85        	mv	a1, s0
  102c2a: 4a 85        	mv	a0, s2
  102c2c: ef f0 6f f0  	jal	0x102332 <_fflush_r>
  102c30: 59 d9        	beqz	a0, 0x102bc6 <__sfvwrite_r+0x212>
  102c32: 05 b7        	j	0x102b52 <__sfvwrite_r+0x19e>
  102c34: da 87        	mv	a5, s6
  102c36: 63 e3 ab 01  	bltu	s7, s10, 0x102c3c <__sfvwrite_r+0x288>
  102c3a: ea 87        	mv	a5, s10
  102c3c: b3 c7 d7 02  	div	a5, a5, a3
  102c40: 18 54        	lw	a4, 40(s0)
  102c42: 0c 50        	lw	a1, 32(s0)
  102c44: 56 86        	mv	a2, s5
  102c46: 4a 85        	mv	a0, s2
  102c48: b3 86 d7 02  	mul	a3, a5, a3
  102c4c: 02 97        	jalr	a4
  102c4e: aa 84        	mv	s1, a0
  102c50: e3 4b a0 f6  	bgtz	a0, 0x102bc6 <__sfvwrite_r+0x212>
  102c54: fd bd        	j	0x102b52 <__sfvwrite_r+0x19e>
  102c56: 03 ab 09 00  	lw	s6, 0(s3)
  102c5a: 83 aa 49 00  	lw	s5, 4(s3)
  102c5e: 01 45        	li	a0, 0
  102c60: a1 09        	addi	s3, s3, 8
  102c62: 65 b3        	j	0x102a0a <__sfvwrite_r+0x56>
  102c64: 63 4b dc 00  	blt	s8, a3, 0x102c7a <__sfvwrite_r+0x2c6>
  102c68: 1c 54        	lw	a5, 40(s0)
  102c6a: 0c 50        	lw	a1, 32(s0)
  102c6c: 5a 86        	mv	a2, s6
  102c6e: 4a 85        	mv	a0, s2
  102c70: 82 97        	jalr	a5
  102c72: aa 84        	mv	s1, a0
  102c74: e3 43 a0 de  	bgtz	a0, 0x102a5a <__sfvwrite_r+0xa6>
  102c78: e9 bd        	j	0x102b52 <__sfvwrite_r+0x19e>
  102c7a: 62 86        	mv	a2, s8
  102c7c: da 85        	mv	a1, s6
  102c7e: ef 10 00 01  	jal	0x103c8e <memmove>
  102c82: 1c 44        	lw	a5, 8(s0)
  102c84: e2 84        	mv	s1, s8
  102c86: b3 87 87 41  	sub	a5, a5, s8
  102c8a: 1c c4        	sw	a5, 8(s0)
  102c8c: 1c 40        	lw	a5, 0(s0)
  102c8e: e2 97        	add	a5, a5, s8
  102c90: 1c c0        	sw	a5, 0(s0)
  102c92: e1 b3        	j	0x102a5a <__sfvwrite_r+0xa6>

00102c94 <_fwalk_reent>:
  102c94: 79 71        	addi	sp, sp, -48
  102c96: 22 d4        	sw	s0, 40(sp)
  102c98: 4a d0        	sw	s2, 32(sp)
  102c9a: 4e ce        	sw	s3, 28(sp)
  102c9c: 52 cc        	sw	s4, 24(sp)
  102c9e: 5a c8        	sw	s6, 16(sp)
  102ca0: 5e c6        	sw	s7, 12(sp)
  102ca2: 06 d6        	sw	ra, 44(sp)
  102ca4: 26 d2        	sw	s1, 36(sp)
  102ca6: 56 ca        	sw	s5, 20(sp)
  102ca8: 2a 89        	mv	s2, a0
  102caa: 2e 8a        	mv	s4, a1
  102cac: 13 04 85 04  	addi	s0, a0, 72
  102cb0: 81 49        	li	s3, 0
  102cb2: 05 4b        	li	s6, 1
  102cb4: fd 5b        	li	s7, -1
  102cb6: 04 44        	lw	s1, 8(s0)
  102cb8: 83 2a 44 00  	lw	s5, 4(s0)
  102cbc: fd 1a        	addi	s5, s5, -1
  102cbe: 63 d0 0a 02  	bgez	s5, 0x102cde <_fwalk_reent+0x4a>
  102cc2: 00 40        	lw	s0, 0(s0)
  102cc4: 6d f8        	bnez	s0, 0x102cb6 <_fwalk_reent+0x22>
  102cc6: b2 50        	lw	ra, 44(sp)
  102cc8: 22 54        	lw	s0, 40(sp)
  102cca: 92 54        	lw	s1, 36(sp)
  102ccc: 02 59        	lw	s2, 32(sp)
  102cce: 62 4a        	lw	s4, 24(sp)
  102cd0: d2 4a        	lw	s5, 20(sp)
  102cd2: 42 4b        	lw	s6, 16(sp)
  102cd4: b2 4b        	lw	s7, 12(sp)
  102cd6: 4e 85        	mv	a0, s3
  102cd8: f2 49        	lw	s3, 28(sp)
  102cda: 45 61        	addi	sp, sp, 48
  102cdc: 82 80        	ret
  102cde: 83 d7 c4 00  	lhu	a5, 12(s1)
  102ce2: 63 7b fb 00  	bgeu	s6, a5, 0x102cf8 <_fwalk_reent+0x64>
  102ce6: 83 97 e4 00  	lh	a5, 14(s1)
  102cea: 63 87 77 01  	beq	a5, s7, 0x102cf8 <_fwalk_reent+0x64>
  102cee: a6 85        	mv	a1, s1
  102cf0: 4a 85        	mv	a0, s2
  102cf2: 02 9a        	jalr	s4
  102cf4: b3 e9 a9 00  	or	s3, s3, a0
  102cf8: 93 84 84 06  	addi	s1, s1, 104
  102cfc: c1 b7        	j	0x102cbc <_fwalk_reent+0x28>

00102cfe <_fwrite_r>:
  102cfe: 79 71        	addi	sp, sp, -48
  102d00: 22 d4        	sw	s0, 40(sp)
  102d02: 26 d2        	sw	s1, 36(sp)
  102d04: 4e ce        	sw	s3, 28(sp)
  102d06: 52 cc        	sw	s4, 24(sp)
  102d08: 56 ca        	sw	s5, 20(sp)
  102d0a: 06 d6        	sw	ra, 44(sp)
  102d0c: 4a d0        	sw	s2, 32(sp)
  102d0e: 5a c8        	sw	s6, 16(sp)
  102d10: 5e c6        	sw	s7, 12(sp)
  102d12: 33 8a c6 02  	mul	s4, a3, a2
  102d16: aa 84        	mv	s1, a0
  102d18: ae 8a        	mv	s5, a1
  102d1a: b2 89        	mv	s3, a2
  102d1c: 3a 84        	mv	s0, a4
  102d1e: 09 c5        	beqz	a0, 0x102d28 <_fwrite_r+0x2a>
  102d20: 1c 55        	lw	a5, 40(a0)
  102d22: 99 e3        	bnez	a5, 0x102d28 <_fwrite_r+0x2a>
  102d24: ef f0 df 84  	jal	0x102570 <__sinit>
  102d28: 93 87 41 b3  	addi	a5, gp, -1228
  102d2c: 63 14 f4 04  	bne	s0, a5, 0x102d74 <_fwrite_r+0x76>
  102d30: c0 40        	lw	s0, 4(s1)
  102d32: 83 57 c4 00  	lhu	a5, 12(s0)
  102d36: a1 8b        	andi	a5, a5, 8
  102d38: b1 cb        	beqz	a5, 0x102d8c <_fwrite_r+0x8e>
  102d3a: 1c 48        	lw	a5, 16(s0)
  102d3c: a1 cb        	beqz	a5, 0x102d8c <_fwrite_r+0x8e>
  102d3e: 01 49        	li	s2, 0
  102d40: 7d 5b        	li	s6, -1
  102d42: a9 4b        	li	s7, 10
  102d44: 63 0a 49 05  	beq	s2, s4, 0x102d98 <_fwrite_r+0x9a>
  102d48: b3 87 2a 01  	add	a5, s5, s2
  102d4c: 83 c5 07 00  	lbu	a1, 0(a5)
  102d50: 1c 44        	lw	a5, 8(s0)
  102d52: fd 17        	addi	a5, a5, -1
  102d54: 1c c4        	sw	a5, 8(s0)
  102d56: 63 d7 07 00  	bgez	a5, 0x102d64 <_fwrite_r+0x66>
  102d5a: 18 4c        	lw	a4, 24(s0)
  102d5c: 63 cb e7 04  	blt	a5, a4, 0x102db2 <_fwrite_r+0xb4>
  102d60: 63 89 75 05  	beq	a1, s7, 0x102db2 <_fwrite_r+0xb4>
  102d64: 1c 40        	lw	a5, 0(s0)
  102d66: 13 87 17 00  	addi	a4, a5, 1
  102d6a: 18 c0        	sw	a4, 0(s0)
  102d6c: 23 80 b7 00  	sb	a1, 0(a5)
  102d70: 05 09        	addi	s2, s2, 1
  102d72: c9 bf        	j	0x102d44 <_fwrite_r+0x46>
  102d74: 93 87 41 b5  	addi	a5, gp, -1196
  102d78: 63 14 f4 00  	bne	s0, a5, 0x102d80 <_fwrite_r+0x82>
  102d7c: 80 44        	lw	s0, 8(s1)
  102d7e: 55 bf        	j	0x102d32 <_fwrite_r+0x34>
  102d80: 93 87 41 b1  	addi	a5, gp, -1260
  102d84: e3 17 f4 fa  	bne	s0, a5, 0x102d32 <_fwrite_r+0x34>
  102d88: c0 44        	lw	s0, 12(s1)
  102d8a: 65 b7        	j	0x102d32 <_fwrite_r+0x34>
  102d8c: a2 85        	mv	a1, s0
  102d8e: 26 85        	mv	a0, s1
  102d90: ef 00 b0 1b  	jal	0x10374a <__swsetup_r>
  102d94: 01 49        	li	s2, 0
  102d96: 45 d5        	beqz	a0, 0x102d3e <_fwrite_r+0x40>
  102d98: b2 50        	lw	ra, 44(sp)
  102d9a: 22 54        	lw	s0, 40(sp)
  102d9c: 33 55 39 03  	divu	a0, s2, s3
  102da0: 92 54        	lw	s1, 36(sp)
  102da2: 02 59        	lw	s2, 32(sp)
  102da4: f2 49        	lw	s3, 28(sp)
  102da6: 62 4a        	lw	s4, 24(sp)
  102da8: d2 4a        	lw	s5, 20(sp)
  102daa: 42 4b        	lw	s6, 16(sp)
  102dac: b2 4b        	lw	s7, 12(sp)
  102dae: 45 61        	addi	sp, sp, 48
  102db0: 82 80        	ret
  102db2: 22 86        	mv	a2, s0
  102db4: 26 85        	mv	a0, s1
  102db6: ef 00 10 0d  	jal	0x103686 <__swbuf_r>
  102dba: e3 1b 65 fb  	bne	a0, s6, 0x102d70 <_fwrite_r+0x72>
  102dbe: e9 bf        	j	0x102d98 <_fwrite_r+0x9a>

00102dc0 <fwrite>:
  102dc0: 36 87        	mv	a4, a3
  102dc2: b2 86        	mv	a3, a2
  102dc4: 2e 86        	mv	a2, a1
  102dc6: aa 85        	mv	a1, a0
  102dc8: 03 a5 41 8a  	lw	a0, -1884(gp)
  102dcc: 0d bf        	j	0x102cfe <_fwrite_r>

00102dce <_getc_r>:
  102dce: 01 11        	addi	sp, sp, -32
  102dd0: 22 cc        	sw	s0, 24(sp)
  102dd2: 06 ce        	sw	ra, 28(sp)
  102dd4: 2a 84        	mv	s0, a0
  102dd6: 19 c5        	beqz	a0, 0x102de4 <_getc_r+0x16>
  102dd8: 1c 55        	lw	a5, 40(a0)
  102dda: 89 e7        	bnez	a5, 0x102de4 <_getc_r+0x16>
  102ddc: 2e c6        	sw	a1, 12(sp)
  102dde: ef f0 2f f9  	jal	0x102570 <__sinit>
  102de2: b2 45        	lw	a1, 12(sp)
  102de4: 93 87 41 b3  	addi	a5, gp, -1228
  102de8: 63 9d f5 00  	bne	a1, a5, 0x102e02 <_getc_r+0x34>
  102dec: 4c 40        	lw	a1, 4(s0)
  102dee: dc 41        	lw	a5, 4(a1)
  102df0: fd 17        	addi	a5, a5, -1
  102df2: dc c1        	sw	a5, 4(a1)
  102df4: 63 d3 07 02  	bgez	a5, 0x102e1a <_getc_r+0x4c>
  102df8: 22 85        	mv	a0, s0
  102dfa: 62 44        	lw	s0, 24(sp)
  102dfc: f2 40        	lw	ra, 28(sp)
  102dfe: 05 61        	addi	sp, sp, 32
  102e00: 2d a3        	j	0x10332a <__srget_r>
  102e02: 93 87 41 b5  	addi	a5, gp, -1196
  102e06: 63 94 f5 00  	bne	a1, a5, 0x102e0e <_getc_r+0x40>
  102e0a: 0c 44        	lw	a1, 8(s0)
  102e0c: cd b7        	j	0x102dee <_getc_r+0x20>
  102e0e: 93 87 41 b1  	addi	a5, gp, -1260
  102e12: e3 9e f5 fc  	bne	a1, a5, 0x102dee <_getc_r+0x20>
  102e16: 4c 44        	lw	a1, 12(s0)
  102e18: d9 bf        	j	0x102dee <_getc_r+0x20>
  102e1a: 9c 41        	lw	a5, 0(a1)
  102e1c: f2 40        	lw	ra, 28(sp)
  102e1e: 62 44        	lw	s0, 24(sp)
  102e20: 13 87 17 00  	addi	a4, a5, 1
  102e24: 98 c1        	sw	a4, 0(a1)
  102e26: 03 c5 07 00  	lbu	a0, 0(a5)
  102e2a: 05 61        	addi	sp, sp, 32
  102e2c: 82 80        	ret

00102e2e <getc>:
  102e2e: aa 85        	mv	a1, a0
  102e30: 03 a5 41 8a  	lw	a0, -1884(gp)
  102e34: 29 cd        	beqz	a0, 0x102e8e <getc+0x60>
  102e36: 1c 55        	lw	a5, 40(a0)
  102e38: b9 eb        	bnez	a5, 0x102e8e <getc+0x60>
  102e3a: 01 11        	addi	sp, sp, -32
  102e3c: 2e c6        	sw	a1, 12(sp)
  102e3e: 2a c4        	sw	a0, 8(sp)
  102e40: 06 ce        	sw	ra, 28(sp)
  102e42: ef f0 ef f2  	jal	0x102570 <__sinit>
  102e46: b2 45        	lw	a1, 12(sp)
  102e48: 93 87 41 b3  	addi	a5, gp, -1228
  102e4c: 22 45        	lw	a0, 8(sp)
  102e4e: 63 9b f5 00  	bne	a1, a5, 0x102e64 <getc+0x36>
  102e52: 4c 41        	lw	a1, 4(a0)
  102e54: dc 41        	lw	a5, 4(a1)
  102e56: fd 17        	addi	a5, a5, -1
  102e58: dc c1        	sw	a5, 4(a1)
  102e5a: 63 d1 07 02  	bgez	a5, 0x102e7c <getc+0x4e>
  102e5e: f2 40        	lw	ra, 28(sp)
  102e60: 05 61        	addi	sp, sp, 32
  102e62: e1 a1        	j	0x10332a <__srget_r>
  102e64: 93 87 41 b5  	addi	a5, gp, -1196
  102e68: 63 94 f5 00  	bne	a1, a5, 0x102e70 <getc+0x42>
  102e6c: 0c 45        	lw	a1, 8(a0)
  102e6e: dd b7        	j	0x102e54 <getc+0x26>
  102e70: 93 87 41 b1  	addi	a5, gp, -1260
  102e74: e3 90 f5 fe  	bne	a1, a5, 0x102e54 <getc+0x26>
  102e78: 4c 45        	lw	a1, 12(a0)
  102e7a: e9 bf        	j	0x102e54 <getc+0x26>
  102e7c: 9c 41        	lw	a5, 0(a1)
  102e7e: f2 40        	lw	ra, 28(sp)
  102e80: 13 87 17 00  	addi	a4, a5, 1
  102e84: 98 c1        	sw	a4, 0(a1)
  102e86: 03 c5 07 00  	lbu	a0, 0(a5)
  102e8a: 05 61        	addi	sp, sp, 32
  102e8c: 82 80        	ret
  102e8e: 93 87 41 b3  	addi	a5, gp, -1228
  102e92: 63 9f f5 00  	bne	a1, a5, 0x102eb0 <getc+0x82>
  102e96: 4c 41        	lw	a1, 4(a0)
  102e98: dc 41        	lw	a5, 4(a1)
  102e9a: fd 17        	addi	a5, a5, -1
  102e9c: dc c1        	sw	a5, 4(a1)
  102e9e: e3 c2 07 fc  	bltz	a5, 0x102e62 <getc+0x34>
  102ea2: 9c 41        	lw	a5, 0(a1)
  102ea4: 13 87 17 00  	addi	a4, a5, 1
  102ea8: 98 c1        	sw	a4, 0(a1)
  102eaa: 03 c5 07 00  	lbu	a0, 0(a5)
  102eae: 82 80        	ret
  102eb0: 93 87 41 b5  	addi	a5, gp, -1196
  102eb4: 63 94 f5 00  	bne	a1, a5, 0x102ebc <getc+0x8e>
  102eb8: 0c 45        	lw	a1, 8(a0)
  102eba: f9 bf        	j	0x102e98 <getc+0x6a>
  102ebc: 93 87 41 b1  	addi	a5, gp, -1260
  102ec0: e3 9c f5 fc  	bne	a1, a5, 0x102e98 <getc+0x6a>
  102ec4: 4c 45        	lw	a1, 12(a0)
  102ec6: c9 bf        	j	0x102e98 <getc+0x6a>

00102ec8 <_getchar_r>:
  102ec8: 41 11        	addi	sp, sp, -16
  102eca: 22 c4        	sw	s0, 8(sp)
  102ecc: 06 c6        	sw	ra, 12(sp)
  102ece: 2a 84        	mv	s0, a0
  102ed0: 09 c5        	beqz	a0, 0x102eda <_getchar_r+0x12>
  102ed2: 1c 55        	lw	a5, 40(a0)
  102ed4: 99 e3        	bnez	a5, 0x102eda <_getchar_r+0x12>
  102ed6: ef f0 af e9  	jal	0x102570 <__sinit>
  102eda: 4c 40        	lw	a1, 4(s0)
  102edc: 22 85        	mv	a0, s0
  102ede: 22 44        	lw	s0, 8(sp)
  102ee0: b2 40        	lw	ra, 12(sp)
  102ee2: 41 01        	addi	sp, sp, 16
  102ee4: ed b5        	j	0x102dce <_getc_r>

00102ee6 <getchar>:
  102ee6: 03 a5 41 8a  	lw	a0, -1884(gp)
  102eea: 09 cd        	beqz	a0, 0x102f04 <getchar+0x1e>
  102eec: 1c 55        	lw	a5, 40(a0)
  102eee: 99 eb        	bnez	a5, 0x102f04 <getchar+0x1e>
  102ef0: 01 11        	addi	sp, sp, -32
  102ef2: 06 ce        	sw	ra, 28(sp)
  102ef4: 2a c6        	sw	a0, 12(sp)
  102ef6: ef f0 af e7  	jal	0x102570 <__sinit>
  102efa: 32 45        	lw	a0, 12(sp)
  102efc: f2 40        	lw	ra, 28(sp)
  102efe: 4c 41        	lw	a1, 4(a0)
  102f00: 05 61        	addi	sp, sp, 32
  102f02: f1 b5        	j	0x102dce <_getc_r>
  102f04: 4c 41        	lw	a1, 4(a0)
  102f06: f5 bf        	j	0x102f02 <getchar+0x1c>

00102f08 <_gets_r>:
  102f08: 01 11        	addi	sp, sp, -32
  102f0a: 26 ca        	sw	s1, 20(sp)
  102f0c: 4e c6        	sw	s3, 12(sp)
  102f0e: 06 ce        	sw	ra, 28(sp)
  102f10: 22 cc        	sw	s0, 24(sp)
  102f12: 4a c8        	sw	s2, 16(sp)
  102f14: 52 c4        	sw	s4, 8(sp)
  102f16: 56 c2        	sw	s5, 4(sp)
  102f18: aa 84        	mv	s1, a0
  102f1a: ae 89        	mv	s3, a1
  102f1c: 09 c5        	beqz	a0, 0x102f26 <_gets_r+0x1e>
  102f1e: 1c 55        	lw	a5, 40(a0)
  102f20: 99 e3        	bnez	a5, 0x102f26 <_gets_r+0x1e>
  102f22: ef f0 ef e4  	jal	0x102570 <__sinit>
  102f26: 9c 54        	lw	a5, 40(s1)
  102f28: c0 40        	lw	s0, 4(s1)
  102f2a: 81 e7        	bnez	a5, 0x102f32 <_gets_r+0x2a>
  102f2c: 26 85        	mv	a0, s1
  102f2e: ef f0 2f e4  	jal	0x102570 <__sinit>
  102f32: 93 87 41 b3  	addi	a5, gp, -1228
  102f36: 63 11 f4 04  	bne	s0, a5, 0x102f78 <_gets_r+0x70>
  102f3a: c0 40        	lw	s0, 4(s1)
  102f3c: 4e 89        	mv	s2, s3
  102f3e: 29 4a        	li	s4, 10
  102f40: fd 5a        	li	s5, -1
  102f42: 5c 40        	lw	a5, 4(s0)
  102f44: fd 17        	addi	a5, a5, -1
  102f46: 5c c0        	sw	a5, 4(s0)
  102f48: 63 d4 07 04  	bgez	a5, 0x102f90 <_gets_r+0x88>
  102f4c: a2 85        	mv	a1, s0
  102f4e: 26 85        	mv	a0, s1
  102f50: e9 2e        	jal	0x10332a <__srget_r>
  102f52: 63 07 45 01  	beq	a0, s4, 0x102f60 <_gets_r+0x58>
  102f56: 63 15 55 05  	bne	a0, s5, 0x102fa0 <_gets_r+0x98>
  102f5a: 01 45        	li	a0, 0
  102f5c: 63 05 39 01  	beq	s2, s3, 0x102f66 <_gets_r+0x5e>
  102f60: 23 00 09 00  	sb	zero, 0(s2)
  102f64: 4e 85        	mv	a0, s3
  102f66: f2 40        	lw	ra, 28(sp)
  102f68: 62 44        	lw	s0, 24(sp)
  102f6a: d2 44        	lw	s1, 20(sp)
  102f6c: 42 49        	lw	s2, 16(sp)
  102f6e: b2 49        	lw	s3, 12(sp)
  102f70: 22 4a        	lw	s4, 8(sp)
  102f72: 92 4a        	lw	s5, 4(sp)
  102f74: 05 61        	addi	sp, sp, 32
  102f76: 82 80        	ret
  102f78: 93 87 41 b5  	addi	a5, gp, -1196
  102f7c: 63 14 f4 00  	bne	s0, a5, 0x102f84 <_gets_r+0x7c>
  102f80: 80 44        	lw	s0, 8(s1)
  102f82: 6d bf        	j	0x102f3c <_gets_r+0x34>
  102f84: 93 87 41 b1  	addi	a5, gp, -1260
  102f88: e3 1a f4 fa  	bne	s0, a5, 0x102f3c <_gets_r+0x34>
  102f8c: c0 44        	lw	s0, 12(s1)
  102f8e: 7d b7        	j	0x102f3c <_gets_r+0x34>
  102f90: 1c 40        	lw	a5, 0(s0)
  102f92: 13 87 17 00  	addi	a4, a5, 1
  102f96: 18 c0        	sw	a4, 0(s0)
  102f98: 03 c5 07 00  	lbu	a0, 0(a5)
  102f9c: e3 02 45 fd  	beq	a0, s4, 0x102f60 <_gets_r+0x58>
  102fa0: 05 09        	addi	s2, s2, 1
  102fa2: a3 0f a9 fe  	sb	a0, -1(s2)
  102fa6: 71 bf        	j	0x102f42 <_gets_r+0x3a>

00102fa8 <gets>:
  102fa8: aa 85        	mv	a1, a0
  102faa: 03 a5 41 8a  	lw	a0, -1884(gp)
  102fae: a9 bf        	j	0x102f08 <_gets_r>

00102fb0 <_printf_r>:
  102fb0: 39 71        	addi	sp, sp, -64
  102fb2: 22 cc        	sw	s0, 24(sp)
  102fb4: 26 ca        	sw	s1, 20(sp)
  102fb6: 06 ce        	sw	ra, 28(sp)
  102fb8: 32 d4        	sw	a2, 40(sp)
  102fba: 36 d6        	sw	a3, 44(sp)
  102fbc: 3a d8        	sw	a4, 48(sp)
  102fbe: 3e da        	sw	a5, 52(sp)
  102fc0: 42 dc        	sw	a6, 56(sp)
  102fc2: 46 de        	sw	a7, 60(sp)
  102fc4: 2a 84        	mv	s0, a0
  102fc6: ae 84        	mv	s1, a1
  102fc8: 09 c5        	beqz	a0, 0x102fd2 <_printf_r+0x22>
  102fca: 1c 55        	lw	a5, 40(a0)
  102fcc: 99 e3        	bnez	a5, 0x102fd2 <_printf_r+0x22>
  102fce: ef f0 2f da  	jal	0x102570 <__sinit>
  102fd2: 0c 44        	lw	a1, 8(s0)
  102fd4: 34 10        	addi	a3, sp, 40
  102fd6: 26 86        	mv	a2, s1
  102fd8: 22 85        	mv	a0, s0
  102fda: 36 c6        	sw	a3, 12(sp)
  102fdc: ef e0 2f f0  	jal	0x1016de <_vfprintf_r>
  102fe0: f2 40        	lw	ra, 28(sp)
  102fe2: 62 44        	lw	s0, 24(sp)
  102fe4: d2 44        	lw	s1, 20(sp)
  102fe6: 21 61        	addi	sp, sp, 64
  102fe8: 82 80        	ret

00102fea <printf>:
  102fea: 5d 71        	addi	sp, sp, -80
  102fec: be c2        	sw	a5, 68(sp)
  102fee: 22 d4        	sw	s0, 40(sp)
  102ff0: 2a 84        	mv	s0, a0
  102ff2: 03 a5 41 8a  	lw	a0, -1884(gp)
  102ff6: 06 d6        	sw	ra, 44(sp)
  102ff8: 2e da        	sw	a1, 52(sp)
  102ffa: 32 dc        	sw	a2, 56(sp)
  102ffc: 36 de        	sw	a3, 60(sp)
  102ffe: ba c0        	sw	a4, 64(sp)
  103000: c2 c4        	sw	a6, 72(sp)
  103002: c6 c6        	sw	a7, 76(sp)
  103004: 19 c5        	beqz	a0, 0x103012 <printf+0x28>
  103006: 1c 55        	lw	a5, 40(a0)
  103008: 89 e7        	bnez	a5, 0x103012 <printf+0x28>
  10300a: 2a c6        	sw	a0, 12(sp)
  10300c: ef f0 4f d6  	jal	0x102570 <__sinit>
  103010: 32 45        	lw	a0, 12(sp)
  103012: 0c 45        	lw	a1, 8(a0)
  103014: 54 18        	addi	a3, sp, 52
  103016: 22 86        	mv	a2, s0
  103018: 36 ce        	sw	a3, 28(sp)
  10301a: ef e0 4f ec  	jal	0x1016de <_vfprintf_r>
  10301e: b2 50        	lw	ra, 44(sp)
  103020: 22 54        	lw	s0, 40(sp)
  103022: 61 61        	addi	sp, sp, 80
  103024: 82 80        	ret

00103026 <_putc_r>:
  103026: 01 11        	addi	sp, sp, -32
  103028: 22 cc        	sw	s0, 24(sp)
  10302a: 06 ce        	sw	ra, 28(sp)
  10302c: 2a 84        	mv	s0, a0
  10302e: 09 c9        	beqz	a0, 0x103040 <_putc_r+0x1a>
  103030: 1c 55        	lw	a5, 40(a0)
  103032: 99 e7        	bnez	a5, 0x103040 <_putc_r+0x1a>
  103034: 32 c6        	sw	a2, 12(sp)
  103036: 2e c4        	sw	a1, 8(sp)
  103038: ef f0 8f d3  	jal	0x102570 <__sinit>
  10303c: 32 46        	lw	a2, 12(sp)
  10303e: a2 45        	lw	a1, 8(sp)
  103040: 93 87 41 b3  	addi	a5, gp, -1228
  103044: 63 15 f6 02  	bne	a2, a5, 0x10306e <_putc_r+0x48>
  103048: 50 40        	lw	a2, 4(s0)
  10304a: 1c 46        	lw	a5, 8(a2)
  10304c: fd 17        	addi	a5, a5, -1
  10304e: 1c c6        	sw	a5, 8(a2)
  103050: 63 db 07 02  	bgez	a5, 0x103086 <_putc_r+0x60>
  103054: 18 4e        	lw	a4, 24(a2)
  103056: 63 c7 e7 00  	blt	a5, a4, 0x103064 <_putc_r+0x3e>
  10305a: 93 f7 f5 0f  	andi	a5, a1, 255
  10305e: 29 47        	li	a4, 10
  103060: 63 93 e7 02  	bne	a5, a4, 0x103086 <_putc_r+0x60>
  103064: 22 85        	mv	a0, s0
  103066: 62 44        	lw	s0, 24(sp)
  103068: f2 40        	lw	ra, 28(sp)
  10306a: 05 61        	addi	sp, sp, 32
  10306c: 29 ad        	j	0x103686 <__swbuf_r>
  10306e: 93 87 41 b5  	addi	a5, gp, -1196
  103072: 63 14 f6 00  	bne	a2, a5, 0x10307a <_putc_r+0x54>
  103076: 10 44        	lw	a2, 8(s0)
  103078: c9 bf        	j	0x10304a <_putc_r+0x24>
  10307a: 93 87 41 b1  	addi	a5, gp, -1260
  10307e: e3 16 f6 fc  	bne	a2, a5, 0x10304a <_putc_r+0x24>
  103082: 50 44        	lw	a2, 12(s0)
  103084: d9 b7        	j	0x10304a <_putc_r+0x24>
  103086: 1c 42        	lw	a5, 0(a2)
  103088: 13 f5 f5 0f  	andi	a0, a1, 255
  10308c: 13 87 17 00  	addi	a4, a5, 1
  103090: 18 c2        	sw	a4, 0(a2)
  103092: 23 80 b7 00  	sb	a1, 0(a5)
  103096: f2 40        	lw	ra, 28(sp)
  103098: 62 44        	lw	s0, 24(sp)
  10309a: 05 61        	addi	sp, sp, 32
  10309c: 82 80        	ret

0010309e <putc>:
  10309e: 2e 86        	mv	a2, a1
  1030a0: aa 85        	mv	a1, a0
  1030a2: 03 a5 41 8a  	lw	a0, -1884(gp)
  1030a6: 41 b7        	j	0x103026 <_putc_r>

001030a8 <_putchar_r>:
  1030a8: 01 11        	addi	sp, sp, -32
  1030aa: 22 cc        	sw	s0, 24(sp)
  1030ac: 06 ce        	sw	ra, 28(sp)
  1030ae: 2a 84        	mv	s0, a0
  1030b0: 19 c5        	beqz	a0, 0x1030be <_putchar_r+0x16>
  1030b2: 1c 55        	lw	a5, 40(a0)
  1030b4: 89 e7        	bnez	a5, 0x1030be <_putchar_r+0x16>
  1030b6: 2e c6        	sw	a1, 12(sp)
  1030b8: ef f0 8f cb  	jal	0x102570 <__sinit>
  1030bc: b2 45        	lw	a1, 12(sp)
  1030be: 10 44        	lw	a2, 8(s0)
  1030c0: 22 85        	mv	a0, s0
  1030c2: 62 44        	lw	s0, 24(sp)
  1030c4: f2 40        	lw	ra, 28(sp)
  1030c6: 05 61        	addi	sp, sp, 32
  1030c8: b9 bf        	j	0x103026 <_putc_r>

001030ca <putchar>:
  1030ca: aa 85        	mv	a1, a0
  1030cc: 03 a5 41 8a  	lw	a0, -1884(gp)
  1030d0: 19 cd        	beqz	a0, 0x1030ee <putchar+0x24>
  1030d2: 1c 55        	lw	a5, 40(a0)
  1030d4: 89 ef        	bnez	a5, 0x1030ee <putchar+0x24>
  1030d6: 01 11        	addi	sp, sp, -32
  1030d8: 06 ce        	sw	ra, 28(sp)
  1030da: 2e c6        	sw	a1, 12(sp)
  1030dc: 2a c4        	sw	a0, 8(sp)
  1030de: ef f0 2f c9  	jal	0x102570 <__sinit>
  1030e2: 22 45        	lw	a0, 8(sp)
  1030e4: b2 45        	lw	a1, 12(sp)
  1030e6: f2 40        	lw	ra, 28(sp)
  1030e8: 10 45        	lw	a2, 8(a0)
  1030ea: 05 61        	addi	sp, sp, 32
  1030ec: 2d bf        	j	0x103026 <_putc_r>
  1030ee: 10 45        	lw	a2, 8(a0)
  1030f0: f5 bf        	j	0x1030ec <putchar+0x22>

001030f2 <_puts_r>:
  1030f2: 01 11        	addi	sp, sp, -32
  1030f4: 26 ca        	sw	s1, 20(sp)
  1030f6: 4a c8        	sw	s2, 16(sp)
  1030f8: 06 ce        	sw	ra, 28(sp)
  1030fa: 22 cc        	sw	s0, 24(sp)
  1030fc: 4e c6        	sw	s3, 12(sp)
  1030fe: 52 c4        	sw	s4, 8(sp)
  103100: aa 84        	mv	s1, a0
  103102: 2e 89        	mv	s2, a1
  103104: 09 c5        	beqz	a0, 0x10310e <_puts_r+0x1c>
  103106: 1c 55        	lw	a5, 40(a0)
  103108: 99 e3        	bnez	a5, 0x10310e <_puts_r+0x1c>
  10310a: ef f0 6f c6  	jal	0x102570 <__sinit>
  10310e: 9c 54        	lw	a5, 40(s1)
  103110: 80 44        	lw	s0, 8(s1)
  103112: 81 e7        	bnez	a5, 0x10311a <_puts_r+0x28>
  103114: 26 85        	mv	a0, s1
  103116: ef f0 af c5  	jal	0x102570 <__sinit>
  10311a: 93 87 41 b3  	addi	a5, gp, -1228
  10311e: 63 1c f4 02  	bne	s0, a5, 0x103156 <_puts_r+0x64>
  103122: c0 40        	lw	s0, 4(s1)
  103124: 83 57 c4 00  	lhu	a5, 12(s0)
  103128: a1 8b        	andi	a5, a5, 8
  10312a: b1 c3        	beqz	a5, 0x10316e <_puts_r+0x7c>
  10312c: 1c 48        	lw	a5, 16(s0)
  10312e: a1 c3        	beqz	a5, 0x10316e <_puts_r+0x7c>
  103130: fd 59        	li	s3, -1
  103132: 29 4a        	li	s4, 10
  103134: 1c 44        	lw	a5, 8(s0)
  103136: 83 45 09 00  	lbu	a1, 0(s2)
  10313a: fd 17        	addi	a5, a5, -1
  10313c: b1 e5        	bnez	a1, 0x103188 <_puts_r+0x96>
  10313e: 1c c4        	sw	a5, 8(s0)
  103140: 63 da 07 06  	bgez	a5, 0x1031b4 <_puts_r+0xc2>
  103144: 22 86        	mv	a2, s0
  103146: a9 45        	li	a1, 10
  103148: 26 85        	mv	a0, s1
  10314a: 35 2b        	jal	0x103686 <__swbuf_r>
  10314c: fd 57        	li	a5, -1
  10314e: 63 04 f5 02  	beq	a0, a5, 0x103176 <_puts_r+0x84>
  103152: 29 45        	li	a0, 10
  103154: 15 a0        	j	0x103178 <_puts_r+0x86>
  103156: 93 87 41 b5  	addi	a5, gp, -1196
  10315a: 63 14 f4 00  	bne	s0, a5, 0x103162 <_puts_r+0x70>
  10315e: 80 44        	lw	s0, 8(s1)
  103160: d1 b7        	j	0x103124 <_puts_r+0x32>
  103162: 93 87 41 b1  	addi	a5, gp, -1260
  103166: e3 1f f4 fa  	bne	s0, a5, 0x103124 <_puts_r+0x32>
  10316a: c0 44        	lw	s0, 12(s1)
  10316c: 65 bf        	j	0x103124 <_puts_r+0x32>
  10316e: a2 85        	mv	a1, s0
  103170: 26 85        	mv	a0, s1
  103172: e1 2b        	jal	0x10374a <__swsetup_r>
  103174: 55 dd        	beqz	a0, 0x103130 <_puts_r+0x3e>
  103176: 7d 55        	li	a0, -1
  103178: f2 40        	lw	ra, 28(sp)
  10317a: 62 44        	lw	s0, 24(sp)
  10317c: d2 44        	lw	s1, 20(sp)
  10317e: 42 49        	lw	s2, 16(sp)
  103180: b2 49        	lw	s3, 12(sp)
  103182: 22 4a        	lw	s4, 8(sp)
  103184: 05 61        	addi	sp, sp, 32
  103186: 82 80        	ret
  103188: 1c c4        	sw	a5, 8(s0)
  10318a: 05 09        	addi	s2, s2, 1
  10318c: 63 d7 07 00  	bgez	a5, 0x10319a <_puts_r+0xa8>
  103190: 18 4c        	lw	a4, 24(s0)
  103192: 63 cb e7 00  	blt	a5, a4, 0x1031a8 <_puts_r+0xb6>
  103196: 63 89 45 01  	beq	a1, s4, 0x1031a8 <_puts_r+0xb6>
  10319a: 1c 40        	lw	a5, 0(s0)
  10319c: 13 87 17 00  	addi	a4, a5, 1
  1031a0: 18 c0        	sw	a4, 0(s0)
  1031a2: 23 80 b7 00  	sb	a1, 0(a5)
  1031a6: 79 b7        	j	0x103134 <_puts_r+0x42>
  1031a8: 22 86        	mv	a2, s0
  1031aa: 26 85        	mv	a0, s1
  1031ac: e9 29        	jal	0x103686 <__swbuf_r>
  1031ae: e3 13 35 f9  	bne	a0, s3, 0x103134 <_puts_r+0x42>
  1031b2: d1 b7        	j	0x103176 <_puts_r+0x84>
  1031b4: 1c 40        	lw	a5, 0(s0)
  1031b6: 13 87 17 00  	addi	a4, a5, 1
  1031ba: 18 c0        	sw	a4, 0(s0)
  1031bc: 29 47        	li	a4, 10
  1031be: 23 80 e7 00  	sb	a4, 0(a5)
  1031c2: 41 bf        	j	0x103152 <_puts_r+0x60>

001031c4 <puts>:
  1031c4: aa 85        	mv	a1, a0
  1031c6: 03 a5 41 8a  	lw	a0, -1884(gp)
  1031ca: 25 b7        	j	0x1030f2 <_puts_r>

001031cc <lflush>:
  1031cc: 83 d7 c5 00  	lhu	a5, 12(a1)
  1031d0: 25 47        	li	a4, 9
  1031d2: a5 8b        	andi	a5, a5, 9
  1031d4: 63 96 e7 00  	bne	a5, a4, 0x1031e0 <lflush+0x14>
  1031d8: 03 a5 41 8a  	lw	a0, -1884(gp)
  1031dc: 6f f0 6f 95  	j	0x102332 <_fflush_r>
  1031e0: 01 45        	li	a0, 0
  1031e2: 82 80        	ret

001031e4 <__srefill_r>:
  1031e4: 01 11        	addi	sp, sp, -32
  1031e6: 22 cc        	sw	s0, 24(sp)
  1031e8: 26 ca        	sw	s1, 20(sp)
  1031ea: 06 ce        	sw	ra, 28(sp)
  1031ec: 4a c8        	sw	s2, 16(sp)
  1031ee: 4e c6        	sw	s3, 12(sp)
  1031f0: aa 84        	mv	s1, a0
  1031f2: 2e 84        	mv	s0, a1
  1031f4: 09 c5        	beqz	a0, 0x1031fe <__srefill_r+0x1a>
  1031f6: 1c 55        	lw	a5, 40(a0)
  1031f8: 99 e3        	bnez	a5, 0x1031fe <__srefill_r+0x1a>
  1031fa: ef f0 6f b7  	jal	0x102570 <__sinit>
  1031fe: 93 87 41 b3  	addi	a5, gp, -1228
  103202: 63 1f f4 00  	bne	s0, a5, 0x103220 <__srefill_r+0x3c>
  103206: c0 40        	lw	s0, 4(s1)
  103208: 03 17 c4 00  	lh	a4, 12(s0)
  10320c: 23 22 04 00  	sw	zero, 4(s0)
  103210: 93 17 07 01  	slli	a5, a4, 16
  103214: 93 76 07 02  	andi	a3, a4, 32
  103218: c1 83        	srli	a5, a5, 16
  10321a: 99 ce        	beqz	a3, 0x103238 <__srefill_r+0x54>
  10321c: 7d 55        	li	a0, -1
  10321e: d5 a8        	j	0x103312 <__srefill_r+0x12e>
  103220: 93 87 41 b5  	addi	a5, gp, -1196
  103224: 63 14 f4 00  	bne	s0, a5, 0x10322c <__srefill_r+0x48>
  103228: 80 44        	lw	s0, 8(s1)
  10322a: f9 bf        	j	0x103208 <__srefill_r+0x24>
  10322c: 93 87 41 b1  	addi	a5, gp, -1260
  103230: e3 1c f4 fc  	bne	s0, a5, 0x103208 <__srefill_r+0x24>
  103234: c0 44        	lw	s0, 12(s1)
  103236: c9 bf        	j	0x103208 <__srefill_r+0x24>
  103238: 93 f6 47 00  	andi	a3, a5, 4
  10323c: d5 ea        	bnez	a3, 0x1032f0 <__srefill_r+0x10c>
  10323e: 93 f6 07 01  	andi	a3, a5, 16
  103242: 81 ea        	bnez	a3, 0x103252 <__srefill_r+0x6e>
  103244: a5 47        	li	a5, 9
  103246: 9c c0        	sw	a5, 0(s1)
  103248: 13 67 07 04  	ori	a4, a4, 64
  10324c: 23 16 e4 00  	sh	a4, 12(s0)
  103250: f1 b7        	j	0x10321c <__srefill_r+0x38>
  103252: a1 8b        	andi	a5, a5, 8
  103254: 99 cf        	beqz	a5, 0x103272 <__srefill_r+0x8e>
  103256: a2 85        	mv	a1, s0
  103258: 26 85        	mv	a0, s1
  10325a: ef f0 8f 8d  	jal	0x102332 <_fflush_r>
  10325e: 5d fd        	bnez	a0, 0x10321c <__srefill_r+0x38>
  103260: 83 57 c4 00  	lhu	a5, 12(s0)
  103264: 23 24 04 00  	sw	zero, 8(s0)
  103268: 23 2c 04 00  	sw	zero, 24(s0)
  10326c: dd 9b        	andi	a5, a5, -9
  10326e: 23 16 f4 00  	sh	a5, 12(s0)
  103272: 83 57 c4 00  	lhu	a5, 12(s0)
  103276: 93 e7 47 00  	ori	a5, a5, 4
  10327a: 23 16 f4 00  	sh	a5, 12(s0)
  10327e: 1c 48        	lw	a5, 16(s0)
  103280: 89 e7        	bnez	a5, 0x10328a <__srefill_r+0xa6>
  103282: a2 85        	mv	a1, s0
  103284: 26 85        	mv	a0, s1
  103286: ef 40 c0 58  	jal	0x107812 <__smakebuf_r>
  10328a: 83 19 c4 00  	lh	s3, 12(s0)
  10328e: 13 99 09 01  	slli	s2, s3, 16
  103292: 93 f7 39 00  	andi	a5, s3, 3
  103296: 13 59 09 01  	srli	s2, s2, 16
  10329a: 9d c7        	beqz	a5, 0x1032c8 <__srefill_r+0xe4>
  10329c: 85 47        	li	a5, 1
  10329e: 23 16 f4 00  	sh	a5, 12(s0)
  1032a2: 03 a5 01 89  	lw	a0, -1904(gp)
  1032a6: b7 35 10 00  	lui	a1, 259
  1032aa: 93 85 c5 1c  	addi	a1, a1, 460
  1032ae: ef f0 7f 9e  	jal	0x102c94 <_fwalk_reent>
  1032b2: 13 79 99 00  	andi	s2, s2, 9
  1032b6: 23 16 34 01  	sh	s3, 12(s0)
  1032ba: a5 47        	li	a5, 9
  1032bc: 63 16 f9 00  	bne	s2, a5, 0x1032c8 <__srefill_r+0xe4>
  1032c0: a2 85        	mv	a1, s0
  1032c2: 26 85        	mv	a0, s1
  1032c4: ef e0 7f f2  	jal	0x1021ea <__sflush_r>
  1032c8: 10 48        	lw	a2, 16(s0)
  1032ca: 5c 50        	lw	a5, 36(s0)
  1032cc: 54 48        	lw	a3, 20(s0)
  1032ce: 0c 50        	lw	a1, 32(s0)
  1032d0: 10 c0        	sw	a2, 0(s0)
  1032d2: 26 85        	mv	a0, s1
  1032d4: 82 97        	jalr	a5
  1032d6: 2a 87        	mv	a4, a0
  1032d8: 48 c0        	sw	a0, 4(s0)
  1032da: 01 45        	li	a0, 0
  1032dc: 63 4b e0 02  	bgtz	a4, 0x103312 <__srefill_r+0x12e>
  1032e0: 83 17 c4 00  	lh	a5, 12(s0)
  1032e4: 15 ef        	bnez	a4, 0x103320 <__srefill_r+0x13c>
  1032e6: 93 e7 07 02  	ori	a5, a5, 32
  1032ea: 23 16 f4 00  	sh	a5, 12(s0)
  1032ee: 3d b7        	j	0x10321c <__srefill_r+0x38>
  1032f0: 4c 58        	lw	a1, 52(s0)
  1032f2: d1 d5        	beqz	a1, 0x10327e <__srefill_r+0x9a>
  1032f4: 93 07 44 04  	addi	a5, s0, 68
  1032f8: 63 85 f5 00  	beq	a1, a5, 0x103302 <__srefill_r+0x11e>
  1032fc: 26 85        	mv	a0, s1
  1032fe: ef 10 f0 04  	jal	0x104b4c <_free_r>
  103302: 3c 40        	lw	a5, 64(s0)
  103304: 23 2a 04 02  	sw	zero, 52(s0)
  103308: 5c c0        	sw	a5, 4(s0)
  10330a: b5 db        	beqz	a5, 0x10327e <__srefill_r+0x9a>
  10330c: 5c 5c        	lw	a5, 60(s0)
  10330e: 01 45        	li	a0, 0
  103310: 1c c0        	sw	a5, 0(s0)
  103312: f2 40        	lw	ra, 28(sp)
  103314: 62 44        	lw	s0, 24(sp)
  103316: d2 44        	lw	s1, 20(sp)
  103318: 42 49        	lw	s2, 16(sp)
  10331a: b2 49        	lw	s3, 12(sp)
  10331c: 05 61        	addi	sp, sp, 32
  10331e: 82 80        	ret
  103320: 23 22 04 00  	sw	zero, 4(s0)
  103324: 93 e7 07 04  	ori	a5, a5, 64
  103328: c9 b7        	j	0x1032ea <__srefill_r+0x106>

0010332a <__srget_r>:
  10332a: 41 11        	addi	sp, sp, -16
  10332c: 22 c4        	sw	s0, 8(sp)
  10332e: 26 c2        	sw	s1, 4(sp)
  103330: 06 c6        	sw	ra, 12(sp)
  103332: aa 84        	mv	s1, a0
  103334: 2e 84        	mv	s0, a1
  103336: 09 c5        	beqz	a0, 0x103340 <__srget_r+0x16>
  103338: 1c 55        	lw	a5, 40(a0)
  10333a: 99 e3        	bnez	a5, 0x103340 <__srget_r+0x16>
  10333c: ef f0 4f a3  	jal	0x102570 <__sinit>
  103340: 93 87 41 b3  	addi	a5, gp, -1228
  103344: 63 17 f4 02  	bne	s0, a5, 0x103372 <__srget_r+0x48>
  103348: c0 40        	lw	s0, 4(s1)
  10334a: a2 85        	mv	a1, s0
  10334c: 26 85        	mv	a0, s1
  10334e: 59 3d        	jal	0x1031e4 <__srefill_r>
  103350: fd 57        	li	a5, -1
  103352: 11 e9        	bnez	a0, 0x103366 <__srget_r+0x3c>
  103354: 5c 40        	lw	a5, 4(s0)
  103356: fd 17        	addi	a5, a5, -1
  103358: 5c c0        	sw	a5, 4(s0)
  10335a: 1c 40        	lw	a5, 0(s0)
  10335c: 13 87 17 00  	addi	a4, a5, 1
  103360: 18 c0        	sw	a4, 0(s0)
  103362: 83 c7 07 00  	lbu	a5, 0(a5)
  103366: b2 40        	lw	ra, 12(sp)
  103368: 22 44        	lw	s0, 8(sp)
  10336a: 92 44        	lw	s1, 4(sp)
  10336c: 3e 85        	mv	a0, a5
  10336e: 41 01        	addi	sp, sp, 16
  103370: 82 80        	ret
  103372: 93 87 41 b5  	addi	a5, gp, -1196
  103376: 63 14 f4 00  	bne	s0, a5, 0x10337e <__srget_r+0x54>
  10337a: 80 44        	lw	s0, 8(s1)
  10337c: f9 b7        	j	0x10334a <__srget_r+0x20>
  10337e: 93 87 41 b1  	addi	a5, gp, -1260
  103382: e3 14 f4 fc  	bne	s0, a5, 0x10334a <__srget_r+0x20>
  103386: c0 44        	lw	s0, 12(s1)
  103388: c9 b7        	j	0x10334a <__srget_r+0x20>

0010338a <__srget>:
  10338a: aa 85        	mv	a1, a0
  10338c: 03 a5 41 8a  	lw	a0, -1884(gp)
  103390: 69 bf        	j	0x10332a <__srget_r>

00103392 <scanf>:
  103392: 5d 71        	addi	sp, sp, -80
  103394: be c2        	sw	a5, 68(sp)
  103396: 22 d4        	sw	s0, 40(sp)
  103398: 2a 84        	mv	s0, a0
  10339a: 03 a5 41 8a  	lw	a0, -1884(gp)
  10339e: 06 d6        	sw	ra, 44(sp)
  1033a0: 2e da        	sw	a1, 52(sp)
  1033a2: 32 dc        	sw	a2, 56(sp)
  1033a4: 36 de        	sw	a3, 60(sp)
  1033a6: ba c0        	sw	a4, 64(sp)
  1033a8: c2 c4        	sw	a6, 72(sp)
  1033aa: c6 c6        	sw	a7, 76(sp)
  1033ac: 19 c5        	beqz	a0, 0x1033ba <scanf+0x28>
  1033ae: 1c 55        	lw	a5, 40(a0)
  1033b0: 89 e7        	bnez	a5, 0x1033ba <scanf+0x28>
  1033b2: 2a c6        	sw	a0, 12(sp)
  1033b4: ef f0 cf 9b  	jal	0x102570 <__sinit>
  1033b8: 32 45        	lw	a0, 12(sp)
  1033ba: 4c 41        	lw	a1, 4(a0)
  1033bc: 54 18        	addi	a3, sp, 52
  1033be: 22 86        	mv	a2, s0
  1033c0: 36 ce        	sw	a3, 28(sp)
  1033c2: ef 30 d0 7f  	jal	0x1073be <_vfscanf_r>
  1033c6: b2 50        	lw	ra, 44(sp)
  1033c8: 22 54        	lw	s0, 40(sp)
  1033ca: 61 61        	addi	sp, sp, 80
  1033cc: 82 80        	ret

001033ce <_scanf_r>:
  1033ce: 39 71        	addi	sp, sp, -64
  1033d0: 22 cc        	sw	s0, 24(sp)
  1033d2: 26 ca        	sw	s1, 20(sp)
  1033d4: 06 ce        	sw	ra, 28(sp)
  1033d6: 32 d4        	sw	a2, 40(sp)
  1033d8: 36 d6        	sw	a3, 44(sp)
  1033da: 3a d8        	sw	a4, 48(sp)
  1033dc: 3e da        	sw	a5, 52(sp)
  1033de: 42 dc        	sw	a6, 56(sp)
  1033e0: 46 de        	sw	a7, 60(sp)
  1033e2: 2a 84        	mv	s0, a0
  1033e4: ae 84        	mv	s1, a1
  1033e6: 09 c5        	beqz	a0, 0x1033f0 <_scanf_r+0x22>
  1033e8: 1c 55        	lw	a5, 40(a0)
  1033ea: 99 e3        	bnez	a5, 0x1033f0 <_scanf_r+0x22>
  1033ec: ef f0 4f 98  	jal	0x102570 <__sinit>
  1033f0: 4c 40        	lw	a1, 4(s0)
  1033f2: 34 10        	addi	a3, sp, 40
  1033f4: 26 86        	mv	a2, s1
  1033f6: 22 85        	mv	a0, s0
  1033f8: 36 c6        	sw	a3, 12(sp)
  1033fa: ef 30 50 7c  	jal	0x1073be <_vfscanf_r>
  1033fe: f2 40        	lw	ra, 28(sp)
  103400: 62 44        	lw	s0, 24(sp)
  103402: d2 44        	lw	s1, 20(sp)
  103404: 21 61        	addi	sp, sp, 64
  103406: 82 80        	ret

00103408 <_sprintf_r>:
  103408: 35 71        	addi	sp, sp, -160
  10340a: 3e cb        	sw	a5, 148(sp)
  10340c: b7 07 00 80  	lui	a5, 524288
  103410: 93 c7 f7 ff  	not	a5, a5
  103414: 3e ce        	sw	a5, 28(sp)
  103416: 3e c8        	sw	a5, 16(sp)
  103418: c1 77        	lui	a5, 1048560
  10341a: 36 c7        	sw	a3, 140(sp)
  10341c: 2e c4        	sw	a1, 8(sp)
  10341e: 2e cc        	sw	a1, 24(sp)
  103420: 93 87 87 20  	addi	a5, a5, 520
  103424: 74 01        	addi	a3, sp, 140
  103426: 2c 00        	addi	a1, sp, 8
  103428: 86 de        	sw	ra, 124(sp)
  10342a: 3e ca        	sw	a5, 20(sp)
  10342c: 3a c9        	sw	a4, 144(sp)
  10342e: 42 cd        	sw	a6, 152(sp)
  103430: 46 cf        	sw	a7, 156(sp)
  103432: 36 c2        	sw	a3, 4(sp)
  103434: ef 30 00 52  	jal	0x106954 <_svfprintf_r>
  103438: a2 47        	lw	a5, 8(sp)
  10343a: 23 80 07 00  	sb	zero, 0(a5)
  10343e: f6 50        	lw	ra, 124(sp)
  103440: 0d 61        	addi	sp, sp, 160
  103442: 82 80        	ret

00103444 <sprintf>:
  103444: 35 71        	addi	sp, sp, -160
  103446: 3e cb        	sw	a5, 148(sp)
  103448: b7 07 00 80  	lui	a5, 524288
  10344c: 93 c7 f7 ff  	not	a5, a5
  103450: 3e ce        	sw	a5, 28(sp)
  103452: 3e c8        	sw	a5, 16(sp)
  103454: c1 77        	lui	a5, 1048560
  103456: 93 87 87 20  	addi	a5, a5, 520
  10345a: 3e ca        	sw	a5, 20(sp)
  10345c: 2a c4        	sw	a0, 8(sp)
  10345e: 2a cc        	sw	a0, 24(sp)
  103460: 03 a5 41 8a  	lw	a0, -1884(gp)
  103464: 32 c5        	sw	a2, 136(sp)
  103466: 36 c7        	sw	a3, 140(sp)
  103468: 2e 86        	mv	a2, a1
  10346a: 34 01        	addi	a3, sp, 136
  10346c: 2c 00        	addi	a1, sp, 8
  10346e: 86 de        	sw	ra, 124(sp)
  103470: 3a c9        	sw	a4, 144(sp)
  103472: 42 cd        	sw	a6, 152(sp)
  103474: 46 cf        	sw	a7, 156(sp)
  103476: 36 c2        	sw	a3, 4(sp)
  103478: ef 30 c0 4d  	jal	0x106954 <_svfprintf_r>
  10347c: a2 47        	lw	a5, 8(sp)
  10347e: 23 80 07 00  	sb	zero, 0(a5)
  103482: f6 50        	lw	ra, 124(sp)
  103484: 0d 61        	addi	sp, sp, 160
  103486: 82 80        	ret

00103488 <sscanf>:
  103488: 35 71        	addi	sp, sp, -160
  10348a: 3e cb        	sw	a5, 148(sp)
  10348c: 93 07 40 20  	li	a5, 516
  103490: 86 de        	sw	ra, 124(sp)
  103492: a2 dc        	sw	s0, 120(sp)
  103494: 32 c5        	sw	a2, 136(sp)
  103496: 2e 84        	mv	s0, a1
  103498: 36 c7        	sw	a3, 140(sp)
  10349a: 3a c9        	sw	a4, 144(sp)
  10349c: 42 cd        	sw	a6, 152(sp)
  10349e: 46 cf        	sw	a7, 156(sp)
  1034a0: 23 1a f1 00  	sh	a5, 20(sp)
  1034a4: 2a c4        	sw	a0, 8(sp)
  1034a6: 2a cc        	sw	a0, 24(sp)
  1034a8: ef 00 30 03  	jal	0x103cda <strlen>
  1034ac: b7 37 10 00  	lui	a5, 259
  1034b0: 93 87 07 56  	addi	a5, a5, 1376
  1034b4: 3e d6        	sw	a5, 44(sp)
  1034b6: fd 57        	li	a5, -1
  1034b8: 23 1b f1 00  	sh	a5, 22(sp)
  1034bc: 2a c6        	sw	a0, 12(sp)
  1034be: 2a ce        	sw	a0, 28(sp)
  1034c0: 03 a5 41 8a  	lw	a0, -1884(gp)
  1034c4: 34 01        	addi	a3, sp, 136
  1034c6: 22 86        	mv	a2, s0
  1034c8: 2c 00        	addi	a1, sp, 8
  1034ca: 02 de        	sw	zero, 60(sp)
  1034cc: 82 c8        	sw	zero, 80(sp)
  1034ce: 36 c2        	sw	a3, 4(sp)
  1034d0: ef 30 80 7d  	jal	0x106ca8 <__ssvfscanf_r>
  1034d4: f6 50        	lw	ra, 124(sp)
  1034d6: 66 54        	lw	s0, 120(sp)
  1034d8: 0d 61        	addi	sp, sp, 160
  1034da: 82 80        	ret

001034dc <_sscanf_r>:
  1034dc: 71 71        	addi	sp, sp, -176
  1034de: 22 c5        	sw	s0, 136(sp)
  1034e0: 3e d3        	sw	a5, 164(sp)
  1034e2: 2a 84        	mv	s0, a0
  1034e4: 93 07 40 20  	li	a5, 516
  1034e8: 2e 85        	mv	a0, a1
  1034ea: 06 c7        	sw	ra, 140(sp)
  1034ec: 32 c6        	sw	a2, 12(sp)
  1034ee: 36 cf        	sw	a3, 156(sp)
  1034f0: 3a d1        	sw	a4, 160(sp)
  1034f2: 42 d5        	sw	a6, 168(sp)
  1034f4: 46 d7        	sw	a7, 172(sp)
  1034f6: 23 12 f1 02  	sh	a5, 36(sp)
  1034fa: 2e cc        	sw	a1, 24(sp)
  1034fc: 2e d4        	sw	a1, 40(sp)
  1034fe: ef 00 c0 7d  	jal	0x103cda <strlen>
  103502: 32 46        	lw	a2, 12(sp)
  103504: b7 37 10 00  	lui	a5, 259
  103508: 93 87 07 56  	addi	a5, a5, 1376
  10350c: 2a ce        	sw	a0, 28(sp)
  10350e: 2a d6        	sw	a0, 44(sp)
  103510: 3e de        	sw	a5, 60(sp)
  103512: 74 09        	addi	a3, sp, 156
  103514: fd 57        	li	a5, -1
  103516: 2c 08        	addi	a1, sp, 24
  103518: 22 85        	mv	a0, s0
  10351a: 82 c6        	sw	zero, 76(sp)
  10351c: 82 d0        	sw	zero, 96(sp)
  10351e: 23 13 f1 02  	sh	a5, 38(sp)
  103522: 36 ca        	sw	a3, 20(sp)
  103524: ef 30 40 78  	jal	0x106ca8 <__ssvfscanf_r>
  103528: ba 40        	lw	ra, 140(sp)
  10352a: 2a 44        	lw	s0, 136(sp)
  10352c: 4d 61        	addi	sp, sp, 176
  10352e: 82 80        	ret

00103530 <__sread>:
  103530: 41 11        	addi	sp, sp, -16
  103532: 22 c4        	sw	s0, 8(sp)
  103534: 2e 84        	mv	s0, a1
  103536: 83 95 e5 00  	lh	a1, 14(a1)
  10353a: 06 c6        	sw	ra, 12(sp)
  10353c: 29 2d        	jal	0x103b56 <_read_r>
  10353e: 63 49 05 00  	bltz	a0, 0x103550 <__sread+0x20>
  103542: 7c 48        	lw	a5, 84(s0)
  103544: aa 97        	add	a5, a5, a0
  103546: 7c c8        	sw	a5, 84(s0)
  103548: b2 40        	lw	ra, 12(sp)
  10354a: 22 44        	lw	s0, 8(sp)
  10354c: 41 01        	addi	sp, sp, 16
  10354e: 82 80        	ret
  103550: 83 57 c4 00  	lhu	a5, 12(s0)
  103554: 7d 77        	lui	a4, 1048575
  103556: 7d 17        	addi	a4, a4, -1
  103558: f9 8f        	and	a5, a5, a4
  10355a: 23 16 f4 00  	sh	a5, 12(s0)
  10355e: ed b7        	j	0x103548 <__sread+0x18>

00103560 <__seofread>:
  103560: 01 45        	li	a0, 0
  103562: 82 80        	ret

00103564 <__swrite>:
  103564: 83 d7 c5 00  	lhu	a5, 12(a1)
  103568: 01 11        	addi	sp, sp, -32
  10356a: 22 cc        	sw	s0, 24(sp)
  10356c: 26 ca        	sw	s1, 20(sp)
  10356e: 4a c8        	sw	s2, 16(sp)
  103570: 4e c6        	sw	s3, 12(sp)
  103572: 06 ce        	sw	ra, 28(sp)
  103574: 93 f7 07 10  	andi	a5, a5, 256
  103578: aa 84        	mv	s1, a0
  10357a: 2e 84        	mv	s0, a1
  10357c: 32 89        	mv	s2, a2
  10357e: b6 89        	mv	s3, a3
  103580: 91 c7        	beqz	a5, 0x10358c <__swrite+0x28>
  103582: 83 95 e5 00  	lh	a1, 14(a1)
  103586: 89 46        	li	a3, 2
  103588: 01 46        	li	a2, 0
  10358a: 95 23        	jal	0x103aee <_lseek_r>
  10358c: 83 57 c4 00  	lhu	a5, 12(s0)
  103590: 7d 77        	lui	a4, 1048575
  103592: 7d 17        	addi	a4, a4, -1
  103594: f9 8f        	and	a5, a5, a4
  103596: 83 15 e4 00  	lh	a1, 14(s0)
  10359a: 23 16 f4 00  	sh	a5, 12(s0)
  10359e: 62 44        	lw	s0, 24(sp)
  1035a0: f2 40        	lw	ra, 28(sp)
  1035a2: ce 86        	mv	a3, s3
  1035a4: 4a 86        	mv	a2, s2
  1035a6: b2 49        	lw	s3, 12(sp)
  1035a8: 42 49        	lw	s2, 16(sp)
  1035aa: 26 85        	mv	a0, s1
  1035ac: d2 44        	lw	s1, 20(sp)
  1035ae: 05 61        	addi	sp, sp, 32
  1035b0: 29 a5        	j	0x103bba <_write_r>

001035b2 <__sseek>:
  1035b2: 41 11        	addi	sp, sp, -16
  1035b4: 22 c4        	sw	s0, 8(sp)
  1035b6: 2e 84        	mv	s0, a1
  1035b8: 83 95 e5 00  	lh	a1, 14(a1)
  1035bc: 06 c6        	sw	ra, 12(sp)
  1035be: 05 2b        	jal	0x103aee <_lseek_r>
  1035c0: fd 57        	li	a5, -1
  1035c2: 03 57 c4 00  	lhu	a4, 12(s0)
  1035c6: 63 1b f5 00  	bne	a0, a5, 0x1035dc <__sseek+0x2a>
  1035ca: fd 77        	lui	a5, 1048575
  1035cc: fd 17        	addi	a5, a5, -1
  1035ce: f9 8f        	and	a5, a5, a4
  1035d0: 23 16 f4 00  	sh	a5, 12(s0)
  1035d4: b2 40        	lw	ra, 12(sp)
  1035d6: 22 44        	lw	s0, 8(sp)
  1035d8: 41 01        	addi	sp, sp, 16
  1035da: 82 80        	ret
  1035dc: 85 67        	lui	a5, 1
  1035de: d9 8f        	or	a5, a5, a4
  1035e0: 23 16 f4 00  	sh	a5, 12(s0)
  1035e4: 68 c8        	sw	a0, 84(s0)
  1035e6: fd b7        	j	0x1035d4 <__sseek+0x22>

001035e8 <__sclose>:
  1035e8: 83 95 e5 00  	lh	a1, 14(a1)
  1035ec: f9 ae        	j	0x1039ca <_close_r>

001035ee <vprintf>:
  1035ee: 2a 86        	mv	a2, a0
  1035f0: 03 a5 41 8a  	lw	a0, -1884(gp)
  1035f4: ae 86        	mv	a3, a1
  1035f6: 15 c1        	beqz	a0, 0x10361a <vprintf+0x2c>
  1035f8: 1c 55        	lw	a5, 40(a0)
  1035fa: 85 e3        	bnez	a5, 0x10361a <vprintf+0x2c>
  1035fc: 01 11        	addi	sp, sp, -32
  1035fe: 06 ce        	sw	ra, 28(sp)
  103600: 2e c6        	sw	a1, 12(sp)
  103602: 32 c4        	sw	a2, 8(sp)
  103604: 2a c2        	sw	a0, 4(sp)
  103606: ef e0 bf f6  	jal	0x102570 <__sinit>
  10360a: 12 45        	lw	a0, 4(sp)
  10360c: b2 46        	lw	a3, 12(sp)
  10360e: 22 46        	lw	a2, 8(sp)
  103610: f2 40        	lw	ra, 28(sp)
  103612: 0c 45        	lw	a1, 8(a0)
  103614: 05 61        	addi	sp, sp, 32
  103616: 6f e0 8f 8c  	j	0x1016de <_vfprintf_r>
  10361a: 0c 45        	lw	a1, 8(a0)
  10361c: ed bf        	j	0x103616 <vprintf+0x28>

0010361e <_vprintf_r>:
  10361e: 01 11        	addi	sp, sp, -32
  103620: 22 cc        	sw	s0, 24(sp)
  103622: 26 ca        	sw	s1, 20(sp)
  103624: 06 ce        	sw	ra, 28(sp)
  103626: 2a 84        	mv	s0, a0
  103628: ae 84        	mv	s1, a1
  10362a: b2 86        	mv	a3, a2
  10362c: 19 c5        	beqz	a0, 0x10363a <_vprintf_r+0x1c>
  10362e: 1c 55        	lw	a5, 40(a0)
  103630: 89 e7        	bnez	a5, 0x10363a <_vprintf_r+0x1c>
  103632: 32 c6        	sw	a2, 12(sp)
  103634: ef e0 df f3  	jal	0x102570 <__sinit>
  103638: b2 46        	lw	a3, 12(sp)
  10363a: 0c 44        	lw	a1, 8(s0)
  10363c: 22 85        	mv	a0, s0
  10363e: 62 44        	lw	s0, 24(sp)
  103640: f2 40        	lw	ra, 28(sp)
  103642: 26 86        	mv	a2, s1
  103644: d2 44        	lw	s1, 20(sp)
  103646: 05 61        	addi	sp, sp, 32
  103648: 6f e0 6f 89  	j	0x1016de <_vfprintf_r>

0010364c <_vsprintf_r>:
  10364c: b7 07 00 80  	lui	a5, 524288
  103650: 19 71        	addi	sp, sp, -128
  103652: 93 c7 f7 ff  	not	a5, a5
  103656: 3e ce        	sw	a5, 28(sp)
  103658: 3e c8        	sw	a5, 16(sp)
  10365a: c1 77        	lui	a5, 1048560
  10365c: 2e c4        	sw	a1, 8(sp)
  10365e: 2e cc        	sw	a1, 24(sp)
  103660: 93 87 87 20  	addi	a5, a5, 520
  103664: 2c 00        	addi	a1, sp, 8
  103666: 86 de        	sw	ra, 124(sp)
  103668: 3e ca        	sw	a5, 20(sp)
  10366a: ef 30 a0 2e  	jal	0x106954 <_svfprintf_r>
  10366e: a2 47        	lw	a5, 8(sp)
  103670: 23 80 07 00  	sb	zero, 0(a5)
  103674: f6 50        	lw	ra, 124(sp)
  103676: 09 61        	addi	sp, sp, 128
  103678: 82 80        	ret

0010367a <vsprintf>:
  10367a: b2 86        	mv	a3, a2
  10367c: 2e 86        	mv	a2, a1
  10367e: aa 85        	mv	a1, a0
  103680: 03 a5 41 8a  	lw	a0, -1884(gp)
  103684: e1 b7        	j	0x10364c <_vsprintf_r>

00103686 <__swbuf_r>:
  103686: 01 11        	addi	sp, sp, -32
  103688: 22 cc        	sw	s0, 24(sp)
  10368a: 26 ca        	sw	s1, 20(sp)
  10368c: 4a c8        	sw	s2, 16(sp)
  10368e: 06 ce        	sw	ra, 28(sp)
  103690: 4e c6        	sw	s3, 12(sp)
  103692: aa 84        	mv	s1, a0
  103694: 2e 89        	mv	s2, a1
  103696: 32 84        	mv	s0, a2
  103698: 09 c5        	beqz	a0, 0x1036a2 <__swbuf_r+0x1c>
  10369a: 1c 55        	lw	a5, 40(a0)
  10369c: 99 e3        	bnez	a5, 0x1036a2 <__swbuf_r+0x1c>
  10369e: ef e0 3f ed  	jal	0x102570 <__sinit>
  1036a2: 93 87 41 b3  	addi	a5, gp, -1228
  1036a6: 63 1b f4 06  	bne	s0, a5, 0x10371c <__swbuf_r+0x96>
  1036aa: c0 40        	lw	s0, 4(s1)
  1036ac: 1c 4c        	lw	a5, 24(s0)
  1036ae: 1c c4        	sw	a5, 8(s0)
  1036b0: 83 57 c4 00  	lhu	a5, 12(s0)
  1036b4: a1 8b        	andi	a5, a5, 8
  1036b6: bd cf        	beqz	a5, 0x103734 <__swbuf_r+0xae>
  1036b8: 1c 48        	lw	a5, 16(s0)
  1036ba: ad cf        	beqz	a5, 0x103734 <__swbuf_r+0xae>
  1036bc: 1c 48        	lw	a5, 16(s0)
  1036be: 08 40        	lw	a0, 0(s0)
  1036c0: 93 79 f9 0f  	andi	s3, s2, 255
  1036c4: 13 79 f9 0f  	andi	s2, s2, 255
  1036c8: 1d 8d        	sub	a0, a0, a5
  1036ca: 5c 48        	lw	a5, 20(s0)
  1036cc: 63 47 f5 00  	blt	a0, a5, 0x1036da <__swbuf_r+0x54>
  1036d0: a2 85        	mv	a1, s0
  1036d2: 26 85        	mv	a0, s1
  1036d4: ef e0 ff c5  	jal	0x102332 <_fflush_r>
  1036d8: 35 e1        	bnez	a0, 0x10373c <__swbuf_r+0xb6>
  1036da: 1c 44        	lw	a5, 8(s0)
  1036dc: 05 05        	addi	a0, a0, 1
  1036de: fd 17        	addi	a5, a5, -1
  1036e0: 1c c4        	sw	a5, 8(s0)
  1036e2: 1c 40        	lw	a5, 0(s0)
  1036e4: 13 87 17 00  	addi	a4, a5, 1
  1036e8: 18 c0        	sw	a4, 0(s0)
  1036ea: 23 80 37 01  	sb	s3, 0(a5)
  1036ee: 5c 48        	lw	a5, 20(s0)
  1036f0: 63 89 a7 00  	beq	a5, a0, 0x103702 <__swbuf_r+0x7c>
  1036f4: 83 57 c4 00  	lhu	a5, 12(s0)
  1036f8: 85 8b        	andi	a5, a5, 1
  1036fa: 89 cb        	beqz	a5, 0x10370c <__swbuf_r+0x86>
  1036fc: a9 47        	li	a5, 10
  1036fe: 63 17 f9 00  	bne	s2, a5, 0x10370c <__swbuf_r+0x86>
  103702: a2 85        	mv	a1, s0
  103704: 26 85        	mv	a0, s1
  103706: ef e0 df c2  	jal	0x102332 <_fflush_r>
  10370a: 0d e9        	bnez	a0, 0x10373c <__swbuf_r+0xb6>
  10370c: f2 40        	lw	ra, 28(sp)
  10370e: 62 44        	lw	s0, 24(sp)
  103710: d2 44        	lw	s1, 20(sp)
  103712: b2 49        	lw	s3, 12(sp)
  103714: 4a 85        	mv	a0, s2
  103716: 42 49        	lw	s2, 16(sp)
  103718: 05 61        	addi	sp, sp, 32
  10371a: 82 80        	ret
  10371c: 93 87 41 b5  	addi	a5, gp, -1196
  103720: 63 14 f4 00  	bne	s0, a5, 0x103728 <__swbuf_r+0xa2>
  103724: 80 44        	lw	s0, 8(s1)
  103726: 59 b7        	j	0x1036ac <__swbuf_r+0x26>
  103728: 93 87 41 b1  	addi	a5, gp, -1260
  10372c: e3 10 f4 f8  	bne	s0, a5, 0x1036ac <__swbuf_r+0x26>
  103730: c0 44        	lw	s0, 12(s1)
  103732: ad bf        	j	0x1036ac <__swbuf_r+0x26>
  103734: a2 85        	mv	a1, s0
  103736: 26 85        	mv	a0, s1
  103738: 09 28        	jal	0x10374a <__swsetup_r>
  10373a: 49 d1        	beqz	a0, 0x1036bc <__swbuf_r+0x36>
  10373c: 7d 59        	li	s2, -1
  10373e: f9 b7        	j	0x10370c <__swbuf_r+0x86>

00103740 <__swbuf>:
  103740: 2e 86        	mv	a2, a1
  103742: aa 85        	mv	a1, a0
  103744: 03 a5 41 8a  	lw	a0, -1884(gp)
  103748: 3d bf        	j	0x103686 <__swbuf_r>

0010374a <__swsetup_r>:
  10374a: 41 11        	addi	sp, sp, -16
  10374c: 26 c2        	sw	s1, 4(sp)
  10374e: 83 a4 41 8a  	lw	s1, -1884(gp)
  103752: 22 c4        	sw	s0, 8(sp)
  103754: 4a c0        	sw	s2, 0(sp)
  103756: 06 c6        	sw	ra, 12(sp)
  103758: 2a 89        	mv	s2, a0
  10375a: 2e 84        	mv	s0, a1
  10375c: 91 c4        	beqz	s1, 0x103768 <__swsetup_r+0x1e>
  10375e: 9c 54        	lw	a5, 40(s1)
  103760: 81 e7        	bnez	a5, 0x103768 <__swsetup_r+0x1e>
  103762: 26 85        	mv	a0, s1
  103764: ef e0 df e0  	jal	0x102570 <__sinit>
  103768: 93 87 41 b3  	addi	a5, gp, -1228
  10376c: 63 17 f4 02  	bne	s0, a5, 0x10379a <__swsetup_r+0x50>
  103770: c0 40        	lw	s0, 4(s1)
  103772: 83 17 c4 00  	lh	a5, 12(s0)
  103776: 13 97 07 01  	slli	a4, a5, 16
  10377a: 93 f6 87 00  	andi	a3, a5, 8
  10377e: 41 83        	srli	a4, a4, 16
  103780: b5 e6        	bnez	a3, 0x1037ec <__swsetup_r+0xa2>
  103782: 93 76 07 01  	andi	a3, a4, 16
  103786: 95 e6        	bnez	a3, 0x1037b2 <__swsetup_r+0x68>
  103788: 25 47        	li	a4, 9
  10378a: 23 20 e9 00  	sw	a4, 0(s2)
  10378e: 93 e7 07 04  	ori	a5, a5, 64
  103792: 23 16 f4 00  	sh	a5, 12(s0)
  103796: 7d 55        	li	a0, -1
  103798: 61 a8        	j	0x103830 <__swsetup_r+0xe6>
  10379a: 93 87 41 b5  	addi	a5, gp, -1196
  10379e: 63 14 f4 00  	bne	s0, a5, 0x1037a6 <__swsetup_r+0x5c>
  1037a2: 80 44        	lw	s0, 8(s1)
  1037a4: f9 b7        	j	0x103772 <__swsetup_r+0x28>
  1037a6: 93 87 41 b1  	addi	a5, gp, -1260
  1037aa: e3 14 f4 fc  	bne	s0, a5, 0x103772 <__swsetup_r+0x28>
  1037ae: c0 44        	lw	s0, 12(s1)
  1037b0: c9 b7        	j	0x103772 <__swsetup_r+0x28>
  1037b2: 11 8b        	andi	a4, a4, 4
  1037b4: 15 c7        	beqz	a4, 0x1037e0 <__swsetup_r+0x96>
  1037b6: 4c 58        	lw	a1, 52(s0)
  1037b8: 91 c9        	beqz	a1, 0x1037cc <__swsetup_r+0x82>
  1037ba: 93 07 44 04  	addi	a5, s0, 68
  1037be: 63 85 f5 00  	beq	a1, a5, 0x1037c8 <__swsetup_r+0x7e>
  1037c2: 4a 85        	mv	a0, s2
  1037c4: ef 10 80 38  	jal	0x104b4c <_free_r>
  1037c8: 23 2a 04 02  	sw	zero, 52(s0)
  1037cc: 83 57 c4 00  	lhu	a5, 12(s0)
  1037d0: 23 22 04 00  	sw	zero, 4(s0)
  1037d4: 93 f7 b7 fd  	andi	a5, a5, -37
  1037d8: 23 16 f4 00  	sh	a5, 12(s0)
  1037dc: 1c 48        	lw	a5, 16(s0)
  1037de: 1c c0        	sw	a5, 0(s0)
  1037e0: 83 57 c4 00  	lhu	a5, 12(s0)
  1037e4: 93 e7 87 00  	ori	a5, a5, 8
  1037e8: 23 16 f4 00  	sh	a5, 12(s0)
  1037ec: 1c 48        	lw	a5, 16(s0)
  1037ee: 89 ef        	bnez	a5, 0x103808 <__swsetup_r+0xbe>
  1037f0: 83 57 c4 00  	lhu	a5, 12(s0)
  1037f4: 13 07 00 20  	li	a4, 512
  1037f8: 93 f7 07 28  	andi	a5, a5, 640
  1037fc: 63 86 e7 00  	beq	a5, a4, 0x103808 <__swsetup_r+0xbe>
  103800: a2 85        	mv	a1, s0
  103802: 4a 85        	mv	a0, s2
  103804: ef 40 e0 00  	jal	0x107812 <__smakebuf_r>
  103808: 83 17 c4 00  	lh	a5, 12(s0)
  10380c: 13 97 07 01  	slli	a4, a5, 16
  103810: 93 f6 17 00  	andi	a3, a5, 1
  103814: 41 83        	srli	a4, a4, 16
  103816: 9d c2        	beqz	a3, 0x10383c <__swsetup_r+0xf2>
  103818: 54 48        	lw	a3, 20(s0)
  10381a: 23 24 04 00  	sw	zero, 8(s0)
  10381e: b3 06 d0 40  	neg	a3, a3
  103822: 14 cc        	sw	a3, 24(s0)
  103824: 14 48        	lw	a3, 16(s0)
  103826: 01 45        	li	a0, 0
  103828: 81 e6        	bnez	a3, 0x103830 <__swsetup_r+0xe6>
  10382a: 13 77 07 08  	andi	a4, a4, 128
  10382e: 25 f3        	bnez	a4, 0x10378e <__swsetup_r+0x44>
  103830: b2 40        	lw	ra, 12(sp)
  103832: 22 44        	lw	s0, 8(sp)
  103834: 92 44        	lw	s1, 4(sp)
  103836: 02 49        	lw	s2, 0(sp)
  103838: 41 01        	addi	sp, sp, 16
  10383a: 82 80        	ret
  10383c: 93 76 27 00  	andi	a3, a4, 2
  103840: 01 46        	li	a2, 0
  103842: 91 e2        	bnez	a3, 0x103846 <__swsetup_r+0xfc>
  103844: 50 48        	lw	a2, 20(s0)
  103846: 10 c4        	sw	a2, 8(s0)
  103848: f1 bf        	j	0x103824 <__swsetup_r+0xda>

0010384a <_fseeko_r>:
  10384a: 01 11        	addi	sp, sp, -32
  10384c: 22 cc        	sw	s0, 24(sp)
  10384e: 26 ca        	sw	s1, 20(sp)
  103850: 4e c6        	sw	s3, 12(sp)
  103852: 52 c4        	sw	s4, 8(sp)
  103854: 06 ce        	sw	ra, 28(sp)
  103856: 4a c8        	sw	s2, 16(sp)
  103858: 56 c2        	sw	s5, 4(sp)
  10385a: aa 84        	mv	s1, a0
  10385c: 2e 84        	mv	s0, a1
  10385e: 32 8a        	mv	s4, a2
  103860: b6 89        	mv	s3, a3
  103862: 09 c5        	beqz	a0, 0x10386c <_fseeko_r+0x22>
  103864: 1c 55        	lw	a5, 40(a0)
  103866: 99 e3        	bnez	a5, 0x10386c <_fseeko_r+0x22>
  103868: ef e0 9f d0  	jal	0x102570 <__sinit>
  10386c: 93 87 41 b3  	addi	a5, gp, -1228
  103870: 63 1c f4 08  	bne	s0, a5, 0x103908 <_fseeko_r+0xbe>
  103874: c0 40        	lw	s0, 4(s1)
  103876: 83 57 c4 00  	lhu	a5, 12(s0)
  10387a: 13 07 80 10  	li	a4, 264
  10387e: 93 f7 87 10  	andi	a5, a5, 264
  103882: 63 96 e7 00  	bne	a5, a4, 0x10388e <_fseeko_r+0x44>
  103886: a2 85        	mv	a1, s0
  103888: 26 85        	mv	a0, s1
  10388a: ef e0 9f aa  	jal	0x102332 <_fflush_r>
  10388e: 83 2a c4 02  	lw	s5, 44(s0)
  103892: f5 47        	li	a5, 29
  103894: 63 8a 0a 0e  	beqz	s5, 0x103988 <_fseeko_r+0x13e>
  103898: 85 47        	li	a5, 1
  10389a: 63 83 f9 08  	beq	s3, a5, 0x103920 <_fseeko_r+0xd6>
  10389e: 93 f7 d9 ff  	andi	a5, s3, -3
  1038a2: 63 92 07 0e  	bnez	a5, 0x103986 <_fseeko_r+0x13c>
  1038a6: 1c 48        	lw	a5, 16(s0)
  1038a8: 89 e7        	bnez	a5, 0x1038b2 <_fseeko_r+0x68>
  1038aa: a2 85        	mv	a1, s0
  1038ac: 26 85        	mv	a0, s1
  1038ae: ef 30 50 76  	jal	0x107812 <__smakebuf_r>
  1038b2: a2 85        	mv	a1, s0
  1038b4: 26 85        	mv	a0, s1
  1038b6: ef e0 df a7  	jal	0x102332 <_fflush_r>
  1038ba: 2a 89        	mv	s2, a0
  1038bc: 55 e1        	bnez	a0, 0x103960 <_fseeko_r+0x116>
  1038be: 0c 50        	lw	a1, 32(s0)
  1038c0: ce 86        	mv	a3, s3
  1038c2: 52 86        	mv	a2, s4
  1038c4: 26 85        	mv	a0, s1
  1038c6: 82 9a        	jalr	s5
  1038c8: fd 57        	li	a5, -1
  1038ca: 63 0b f5 08  	beq	a0, a5, 0x103960 <_fseeko_r+0x116>
  1038ce: 4c 58        	lw	a1, 52(s0)
  1038d0: 91 c9        	beqz	a1, 0x1038e4 <_fseeko_r+0x9a>
  1038d2: 93 07 44 04  	addi	a5, s0, 68
  1038d6: 63 85 f5 00  	beq	a1, a5, 0x1038e0 <_fseeko_r+0x96>
  1038da: 26 85        	mv	a0, s1
  1038dc: ef 10 00 27  	jal	0x104b4c <_free_r>
  1038e0: 23 2a 04 02  	sw	zero, 52(s0)
  1038e4: 1c 48        	lw	a5, 16(s0)
  1038e6: 7d 77        	lui	a4, 1048575
  1038e8: 13 07 f7 7d  	addi	a4, a4, 2015
  1038ec: 1c c0        	sw	a5, 0(s0)
  1038ee: 83 57 c4 00  	lhu	a5, 12(s0)
  1038f2: 23 22 04 00  	sw	zero, 4(s0)
  1038f6: 21 46        	li	a2, 8
  1038f8: f9 8f        	and	a5, a5, a4
  1038fa: 23 16 f4 00  	sh	a5, 12(s0)
  1038fe: 81 45        	li	a1, 0
  103900: 13 05 c4 05  	addi	a0, s0, 92
  103904: 45 2e        	jal	0x103cb4 <memset>
  103906: b1 a8        	j	0x103962 <_fseeko_r+0x118>
  103908: 93 87 41 b5  	addi	a5, gp, -1196
  10390c: 63 14 f4 00  	bne	s0, a5, 0x103914 <_fseeko_r+0xca>
  103910: 80 44        	lw	s0, 8(s1)
  103912: 95 b7        	j	0x103876 <_fseeko_r+0x2c>
  103914: 93 87 41 b1  	addi	a5, gp, -1260
  103918: e3 1f f4 f4  	bne	s0, a5, 0x103876 <_fseeko_r+0x2c>
  10391c: c0 44        	lw	s0, 12(s1)
  10391e: a1 bf        	j	0x103876 <_fseeko_r+0x2c>
  103920: a2 85        	mv	a1, s0
  103922: 26 85        	mv	a0, s1
  103924: ef e0 ff a0  	jal	0x102332 <_fflush_r>
  103928: 83 57 c4 00  	lhu	a5, 12(s0)
  10392c: 05 67        	lui	a4, 1
  10392e: f9 8f        	and	a5, a5, a4
  103930: 85 c3        	beqz	a5, 0x103950 <_fseeko_r+0x106>
  103932: 68 48        	lw	a0, 84(s0)
  103934: 83 57 c4 00  	lhu	a5, 12(s0)
  103938: 13 f7 47 00  	andi	a4, a5, 4
  10393c: 0d cf        	beqz	a4, 0x103976 <_fseeko_r+0x12c>
  10393e: 5c 40        	lw	a5, 4(s0)
  103940: 1d 8d        	sub	a0, a0, a5
  103942: 5c 58        	lw	a5, 52(s0)
  103944: 99 c3        	beqz	a5, 0x10394a <_fseeko_r+0x100>
  103946: 3c 40        	lw	a5, 64(s0)
  103948: 1d 8d        	sub	a0, a0, a5
  10394a: 2a 9a        	add	s4, s4, a0
  10394c: 81 49        	li	s3, 0
  10394e: a1 bf        	j	0x1038a6 <_fseeko_r+0x5c>
  103950: 0c 50        	lw	a1, 32(s0)
  103952: 85 46        	li	a3, 1
  103954: 01 46        	li	a2, 0
  103956: 26 85        	mv	a0, s1
  103958: 82 9a        	jalr	s5
  10395a: fd 57        	li	a5, -1
  10395c: e3 1c f5 fc  	bne	a0, a5, 0x103934 <_fseeko_r+0xea>
  103960: 7d 59        	li	s2, -1
  103962: f2 40        	lw	ra, 28(sp)
  103964: 62 44        	lw	s0, 24(sp)
  103966: d2 44        	lw	s1, 20(sp)
  103968: b2 49        	lw	s3, 12(sp)
  10396a: 22 4a        	lw	s4, 8(sp)
  10396c: 92 4a        	lw	s5, 4(sp)
  10396e: 4a 85        	mv	a0, s2
  103970: 42 49        	lw	s2, 16(sp)
  103972: 05 61        	addi	sp, sp, 32
  103974: 82 80        	ret
  103976: a1 8b        	andi	a5, a5, 8
  103978: e9 db        	beqz	a5, 0x10394a <_fseeko_r+0x100>
  10397a: 1c 40        	lw	a5, 0(s0)
  10397c: 18 48        	lw	a4, 16(s0)
  10397e: f1 d7        	beqz	a5, 0x10394a <_fseeko_r+0x100>
  103980: 99 8f        	sub	a5, a5, a4
  103982: 3e 95        	add	a0, a0, a5
  103984: d9 b7        	j	0x10394a <_fseeko_r+0x100>
  103986: d9 47        	li	a5, 22
  103988: 9c c0        	sw	a5, 0(s1)
  10398a: d9 bf        	j	0x103960 <_fseeko_r+0x116>

0010398c <fseeko>:
  10398c: b2 86        	mv	a3, a2
  10398e: 2e 86        	mv	a2, a1
  103990: aa 85        	mv	a1, a0
  103992: 03 a5 41 8a  	lw	a0, -1884(gp)
  103996: 6f f0 5f eb  	j	0x10384a <_fseeko_r>

0010399a <memchr>:
  10399a: 93 f5 f5 0f  	andi	a1, a1, 255
  10399e: 2a 96        	add	a2, a2, a0
  1039a0: 63 14 c5 00  	bne	a0, a2, 0x1039a8 <memchr+0xe>
  1039a4: 01 45        	li	a0, 0
  1039a6: 82 80        	ret
  1039a8: 83 47 05 00  	lbu	a5, 0(a0)
  1039ac: e3 8d b7 fe  	beq	a5, a1, 0x1039a6 <memchr+0xc>
  1039b0: 05 05        	addi	a0, a0, 1
  1039b2: fd b7        	j	0x1039a0 <memchr+0x6>

001039b4 <__localeconv_l>:
  1039b4: 13 05 05 0f  	addi	a0, a0, 240
  1039b8: 82 80        	ret

001039ba <_localeconv_r>:
  1039ba: 41 65        	lui	a0, 16
  1039bc: 13 05 05 15  	addi	a0, a0, 336
  1039c0: 82 80        	ret

001039c2 <localeconv>:
  1039c2: 41 65        	lui	a0, 16
  1039c4: 13 05 05 15  	addi	a0, a0, 336
  1039c8: 82 80        	ret

001039ca <_close_r>:
  1039ca: 41 11        	addi	sp, sp, -16
  1039cc: 22 c4        	sw	s0, 8(sp)
  1039ce: 26 c2        	sw	s1, 4(sp)
  1039d0: 2a 84        	mv	s0, a0
  1039d2: b7 c4 10 00  	lui	s1, 268
  1039d6: 2e 85        	mv	a0, a1
  1039d8: 06 c6        	sw	ra, 12(sp)
  1039da: 23 a6 04 88  	sw	zero, -1908(s1)
  1039de: ef 40 30 4f  	jal	0x1086d0 <_close>
  1039e2: fd 57        	li	a5, -1
  1039e4: 63 16 f5 00  	bne	a0, a5, 0x1039f0 <_close_r+0x26>
  1039e8: 83 a7 c4 88  	lw	a5, -1908(s1)
  1039ec: 91 c3        	beqz	a5, 0x1039f0 <_close_r+0x26>
  1039ee: 1c c0        	sw	a5, 0(s0)
  1039f0: b2 40        	lw	ra, 12(sp)
  1039f2: 22 44        	lw	s0, 8(sp)
  1039f4: 92 44        	lw	s1, 4(sp)
  1039f6: 41 01        	addi	sp, sp, 16
  1039f8: 82 80        	ret

001039fa <cleanup_glue>:
  1039fa: 41 11        	addi	sp, sp, -16
  1039fc: 22 c4        	sw	s0, 8(sp)
  1039fe: 2e 84        	mv	s0, a1
  103a00: 8c 41        	lw	a1, 0(a1)
  103a02: 26 c2        	sw	s1, 4(sp)
  103a04: 06 c6        	sw	ra, 12(sp)
  103a06: aa 84        	mv	s1, a0
  103a08: 91 c1        	beqz	a1, 0x103a0c <cleanup_glue+0x12>
  103a0a: c5 3f        	jal	0x1039fa <cleanup_glue>
  103a0c: a2 85        	mv	a1, s0
  103a0e: 22 44        	lw	s0, 8(sp)
  103a10: b2 40        	lw	ra, 12(sp)
  103a12: 26 85        	mv	a0, s1
  103a14: 92 44        	lw	s1, 4(sp)
  103a16: 41 01        	addi	sp, sp, 16
  103a18: 6f 10 40 13  	j	0x104b4c <_free_r>

00103a1c <_reclaim_reent>:
  103a1c: 83 a7 41 8a  	lw	a5, -1884(gp)
  103a20: 63 86 a7 0c  	beq	a5, a0, 0x103aec <_reclaim_reent+0xd0>
  103a24: 5c 51        	lw	a5, 36(a0)
  103a26: 01 11        	addi	sp, sp, -32
  103a28: 22 cc        	sw	s0, 24(sp)
  103a2a: 06 ce        	sw	ra, 28(sp)
  103a2c: 26 ca        	sw	s1, 20(sp)
  103a2e: 4a c8        	sw	s2, 16(sp)
  103a30: 4e c6        	sw	s3, 12(sp)
  103a32: 2a 84        	mv	s0, a0
  103a34: 81 cf        	beqz	a5, 0x103a4c <_reclaim_reent+0x30>
  103a36: dc 47        	lw	a5, 12(a5)
  103a38: 81 44        	li	s1, 0
  103a3a: 13 09 00 08  	li	s2, 128
  103a3e: c9 e3        	bnez	a5, 0x103ac0 <_reclaim_reent+0xa4>
  103a40: 5c 50        	lw	a5, 36(s0)
  103a42: 8c 43        	lw	a1, 0(a5)
  103a44: 81 c5        	beqz	a1, 0x103a4c <_reclaim_reent+0x30>
  103a46: 22 85        	mv	a0, s0
  103a48: ef 10 40 10  	jal	0x104b4c <_free_r>
  103a4c: 4c 48        	lw	a1, 20(s0)
  103a4e: 81 c5        	beqz	a1, 0x103a56 <_reclaim_reent+0x3a>
  103a50: 22 85        	mv	a0, s0
  103a52: ef 10 a0 0f  	jal	0x104b4c <_free_r>
  103a56: 4c 50        	lw	a1, 36(s0)
  103a58: 81 c5        	beqz	a1, 0x103a60 <_reclaim_reent+0x44>
  103a5a: 22 85        	mv	a0, s0
  103a5c: ef 10 00 0f  	jal	0x104b4c <_free_r>
  103a60: 0c 5c        	lw	a1, 56(s0)
  103a62: 81 c5        	beqz	a1, 0x103a6a <_reclaim_reent+0x4e>
  103a64: 22 85        	mv	a0, s0
  103a66: ef 10 60 0e  	jal	0x104b4c <_free_r>
  103a6a: 4c 5c        	lw	a1, 60(s0)
  103a6c: 81 c5        	beqz	a1, 0x103a74 <_reclaim_reent+0x58>
  103a6e: 22 85        	mv	a0, s0
  103a70: ef 10 c0 0d  	jal	0x104b4c <_free_r>
  103a74: 2c 40        	lw	a1, 64(s0)
  103a76: 81 c5        	beqz	a1, 0x103a7e <_reclaim_reent+0x62>
  103a78: 22 85        	mv	a0, s0
  103a7a: ef 10 20 0d  	jal	0x104b4c <_free_r>
  103a7e: 6c 4c        	lw	a1, 92(s0)
  103a80: 81 c5        	beqz	a1, 0x103a88 <_reclaim_reent+0x6c>
  103a82: 22 85        	mv	a0, s0
  103a84: ef 10 80 0c  	jal	0x104b4c <_free_r>
  103a88: 2c 4c        	lw	a1, 88(s0)
  103a8a: 81 c5        	beqz	a1, 0x103a92 <_reclaim_reent+0x76>
  103a8c: 22 85        	mv	a0, s0
  103a8e: ef 10 e0 0b  	jal	0x104b4c <_free_r>
  103a92: 4c 58        	lw	a1, 52(s0)
  103a94: 81 c5        	beqz	a1, 0x103a9c <_reclaim_reent+0x80>
  103a96: 22 85        	mv	a0, s0
  103a98: ef 10 40 0b  	jal	0x104b4c <_free_r>
  103a9c: 1c 54        	lw	a5, 40(s0)
  103a9e: a1 c3        	beqz	a5, 0x103ade <_reclaim_reent+0xc2>
  103aa0: 22 85        	mv	a0, s0
  103aa2: 82 97        	jalr	a5
  103aa4: 2c 44        	lw	a1, 72(s0)
  103aa6: 85 cd        	beqz	a1, 0x103ade <_reclaim_reent+0xc2>
  103aa8: 22 85        	mv	a0, s0
  103aaa: 62 44        	lw	s0, 24(sp)
  103aac: f2 40        	lw	ra, 28(sp)
  103aae: d2 44        	lw	s1, 20(sp)
  103ab0: 42 49        	lw	s2, 16(sp)
  103ab2: b2 49        	lw	s3, 12(sp)
  103ab4: 05 61        	addi	sp, sp, 32
  103ab6: 91 b7        	j	0x1039fa <cleanup_glue>
  103ab8: a6 95        	add	a1, a1, s1
  103aba: 8c 41        	lw	a1, 0(a1)
  103abc: 91 e9        	bnez	a1, 0x103ad0 <_reclaim_reent+0xb4>
  103abe: 91 04        	addi	s1, s1, 4
  103ac0: 5c 50        	lw	a5, 36(s0)
  103ac2: cc 47        	lw	a1, 12(a5)
  103ac4: e3 9a 24 ff  	bne	s1, s2, 0x103ab8 <_reclaim_reent+0x9c>
  103ac8: 22 85        	mv	a0, s0
  103aca: ef 10 20 08  	jal	0x104b4c <_free_r>
  103ace: 8d bf        	j	0x103a40 <_reclaim_reent+0x24>
  103ad0: 83 a9 05 00  	lw	s3, 0(a1)
  103ad4: 22 85        	mv	a0, s0
  103ad6: ef 10 60 07  	jal	0x104b4c <_free_r>
  103ada: ce 85        	mv	a1, s3
  103adc: c5 b7        	j	0x103abc <_reclaim_reent+0xa0>
  103ade: f2 40        	lw	ra, 28(sp)
  103ae0: 62 44        	lw	s0, 24(sp)
  103ae2: d2 44        	lw	s1, 20(sp)
  103ae4: 42 49        	lw	s2, 16(sp)
  103ae6: b2 49        	lw	s3, 12(sp)
  103ae8: 05 61        	addi	sp, sp, 32
  103aea: 82 80        	ret
  103aec: 82 80        	ret

00103aee <_lseek_r>:
  103aee: 41 11        	addi	sp, sp, -16
  103af0: 22 c4        	sw	s0, 8(sp)
  103af2: 26 c2        	sw	s1, 4(sp)
  103af4: 2a 84        	mv	s0, a0
  103af6: b7 c4 10 00  	lui	s1, 268
  103afa: 2e 85        	mv	a0, a1
  103afc: b2 85        	mv	a1, a2
  103afe: 36 86        	mv	a2, a3
  103b00: 06 c6        	sw	ra, 12(sp)
  103b02: 23 a6 04 88  	sw	zero, -1908(s1)
  103b06: ef 40 b0 5b  	jal	0x1088c0 <_lseek>
  103b0a: fd 57        	li	a5, -1
  103b0c: 63 16 f5 00  	bne	a0, a5, 0x103b18 <_lseek_r+0x2a>
  103b10: 83 a7 c4 88  	lw	a5, -1908(s1)
  103b14: 91 c3        	beqz	a5, 0x103b18 <_lseek_r+0x2a>
  103b16: 1c c0        	sw	a5, 0(s0)
  103b18: b2 40        	lw	ra, 12(sp)
  103b1a: 22 44        	lw	s0, 8(sp)
  103b1c: 92 44        	lw	s1, 4(sp)
  103b1e: 41 01        	addi	sp, sp, 16
  103b20: 82 80        	ret

00103b22 <_open_r>:
  103b22: 41 11        	addi	sp, sp, -16
  103b24: 22 c4        	sw	s0, 8(sp)
  103b26: 26 c2        	sw	s1, 4(sp)
  103b28: 2a 84        	mv	s0, a0
  103b2a: b7 c4 10 00  	lui	s1, 268
  103b2e: 2e 85        	mv	a0, a1
  103b30: b2 85        	mv	a1, a2
  103b32: 36 86        	mv	a2, a3
  103b34: 06 c6        	sw	ra, 12(sp)
  103b36: 23 a6 04 88  	sw	zero, -1908(s1)
  103b3a: ef 40 70 67  	jal	0x1089b0 <_open>
  103b3e: fd 57        	li	a5, -1
  103b40: 63 16 f5 00  	bne	a0, a5, 0x103b4c <_open_r+0x2a>
  103b44: 83 a7 c4 88  	lw	a5, -1908(s1)
  103b48: 91 c3        	beqz	a5, 0x103b4c <_open_r+0x2a>
  103b4a: 1c c0        	sw	a5, 0(s0)
  103b4c: b2 40        	lw	ra, 12(sp)
  103b4e: 22 44        	lw	s0, 8(sp)
  103b50: 92 44        	lw	s1, 4(sp)
  103b52: 41 01        	addi	sp, sp, 16
  103b54: 82 80        	ret

00103b56 <_read_r>:
  103b56: 41 11        	addi	sp, sp, -16
  103b58: 22 c4        	sw	s0, 8(sp)
  103b5a: 26 c2        	sw	s1, 4(sp)
  103b5c: 2a 84        	mv	s0, a0
  103b5e: b7 c4 10 00  	lui	s1, 268
  103b62: 2e 85        	mv	a0, a1
  103b64: b2 85        	mv	a1, a2
  103b66: 36 86        	mv	a2, a3
  103b68: 06 c6        	sw	ra, 12(sp)
  103b6a: 23 a6 04 88  	sw	zero, -1908(s1)
  103b6e: ef 40 30 71  	jal	0x108a80 <_read>
  103b72: fd 57        	li	a5, -1
  103b74: 63 16 f5 00  	bne	a0, a5, 0x103b80 <_read_r+0x2a>
  103b78: 83 a7 c4 88  	lw	a5, -1908(s1)
  103b7c: 91 c3        	beqz	a5, 0x103b80 <_read_r+0x2a>
  103b7e: 1c c0        	sw	a5, 0(s0)
  103b80: b2 40        	lw	ra, 12(sp)
  103b82: 22 44        	lw	s0, 8(sp)
  103b84: 92 44        	lw	s1, 4(sp)
  103b86: 41 01        	addi	sp, sp, 16
  103b88: 82 80        	ret

00103b8a <_sbrk_r>:
  103b8a: 41 11        	addi	sp, sp, -16
  103b8c: 22 c4        	sw	s0, 8(sp)
  103b8e: 26 c2        	sw	s1, 4(sp)
  103b90: 2a 84        	mv	s0, a0
  103b92: b7 c4 10 00  	lui	s1, 268
  103b96: 2e 85        	mv	a0, a1
  103b98: 06 c6        	sw	ra, 12(sp)
  103b9a: 23 a6 04 88  	sw	zero, -1908(s1)
  103b9e: ef 40 10 75  	jal	0x108aee <_sbrk>
  103ba2: fd 57        	li	a5, -1
  103ba4: 63 16 f5 00  	bne	a0, a5, 0x103bb0 <_sbrk_r+0x26>
  103ba8: 83 a7 c4 88  	lw	a5, -1908(s1)
  103bac: 91 c3        	beqz	a5, 0x103bb0 <_sbrk_r+0x26>
  103bae: 1c c0        	sw	a5, 0(s0)
  103bb0: b2 40        	lw	ra, 12(sp)
  103bb2: 22 44        	lw	s0, 8(sp)
  103bb4: 92 44        	lw	s1, 4(sp)
  103bb6: 41 01        	addi	sp, sp, 16
  103bb8: 82 80        	ret

00103bba <_write_r>:
  103bba: 41 11        	addi	sp, sp, -16
  103bbc: 22 c4        	sw	s0, 8(sp)
  103bbe: 26 c2        	sw	s1, 4(sp)
  103bc0: 2a 84        	mv	s0, a0
  103bc2: b7 c4 10 00  	lui	s1, 268
  103bc6: 2e 85        	mv	a0, a1
  103bc8: b2 85        	mv	a1, a2
  103bca: 36 86        	mv	a2, a3
  103bcc: 06 c6        	sw	ra, 12(sp)
  103bce: 23 a6 04 88  	sw	zero, -1908(s1)
  103bd2: ef 40 f0 7c  	jal	0x108ba0 <_write>
  103bd6: fd 57        	li	a5, -1
  103bd8: 63 16 f5 00  	bne	a0, a5, 0x103be4 <_write_r+0x2a>
  103bdc: 83 a7 c4 88  	lw	a5, -1908(s1)
  103be0: 91 c3        	beqz	a5, 0x103be4 <_write_r+0x2a>
  103be2: 1c c0        	sw	a5, 0(s0)
  103be4: b2 40        	lw	ra, 12(sp)
  103be6: 22 44        	lw	s0, 8(sp)
  103be8: 92 44        	lw	s1, 4(sp)
  103bea: 41 01        	addi	sp, sp, 16
  103bec: 82 80        	ret

00103bee <__libc_init_array>:
  103bee: 41 11        	addi	sp, sp, -16
  103bf0: 22 c4        	sw	s0, 8(sp)
  103bf2: 26 c2        	sw	s1, 4(sp)
  103bf4: 37 c4 10 00  	lui	s0, 268
  103bf8: b7 c4 10 00  	lui	s1, 268
  103bfc: 93 87 44 9c  	addi	a5, s1, -1596
  103c00: 13 04 44 9c  	addi	s0, s0, -1596
  103c04: 1d 8c        	sub	s0, s0, a5
  103c06: 4a c0        	sw	s2, 0(sp)
  103c08: 06 c6        	sw	ra, 12(sp)
  103c0a: 09 84        	srai	s0, s0, 2
  103c0c: 93 84 44 9c  	addi	s1, s1, -1596
  103c10: 01 49        	li	s2, 0
  103c12: 63 17 89 02  	bne	s2, s0, 0x103c40 <__libc_init_array+0x52>
  103c16: b7 c4 10 00  	lui	s1, 268
  103c1a: 37 c4 10 00  	lui	s0, 268
  103c1e: 93 87 44 9c  	addi	a5, s1, -1596
  103c22: 13 04 c4 9c  	addi	s0, s0, -1588
  103c26: 1d 8c        	sub	s0, s0, a5
  103c28: 09 84        	srai	s0, s0, 2
  103c2a: 93 84 44 9c  	addi	s1, s1, -1596
  103c2e: 01 49        	li	s2, 0
  103c30: 63 1d 89 00  	bne	s2, s0, 0x103c4a <__libc_init_array+0x5c>
  103c34: b2 40        	lw	ra, 12(sp)
  103c36: 22 44        	lw	s0, 8(sp)
  103c38: 92 44        	lw	s1, 4(sp)
  103c3a: 02 49        	lw	s2, 0(sp)
  103c3c: 41 01        	addi	sp, sp, 16
  103c3e: 82 80        	ret
  103c40: 9c 40        	lw	a5, 0(s1)
  103c42: 05 09        	addi	s2, s2, 1
  103c44: 91 04        	addi	s1, s1, 4
  103c46: 82 97        	jalr	a5
  103c48: e9 b7        	j	0x103c12 <__libc_init_array+0x24>
  103c4a: 9c 40        	lw	a5, 0(s1)
  103c4c: 05 09        	addi	s2, s2, 1
  103c4e: 91 04        	addi	s1, s1, 4
  103c50: 82 97        	jalr	a5
  103c52: f9 bf        	j	0x103c30 <__libc_init_array+0x42>

00103c54 <__libc_fini_array>:
  103c54: 41 11        	addi	sp, sp, -16
  103c56: b7 c7 10 00  	lui	a5, 268
  103c5a: 22 c4        	sw	s0, 8(sp)
  103c5c: 37 c4 10 00  	lui	s0, 268
  103c60: 13 87 c7 9c  	addi	a4, a5, -1588
  103c64: 13 04 04 9d  	addi	s0, s0, -1584
  103c68: 19 8c        	sub	s0, s0, a4
  103c6a: 26 c2        	sw	s1, 4(sp)
  103c6c: 06 c6        	sw	ra, 12(sp)
  103c6e: 09 84        	srai	s0, s0, 2
  103c70: 93 84 c7 9c  	addi	s1, a5, -1588
  103c74: 11 e4        	bnez	s0, 0x103c80 <__libc_fini_array+0x2c>
  103c76: b2 40        	lw	ra, 12(sp)
  103c78: 22 44        	lw	s0, 8(sp)
  103c7a: 92 44        	lw	s1, 4(sp)
  103c7c: 41 01        	addi	sp, sp, 16
  103c7e: 82 80        	ret
  103c80: 7d 14        	addi	s0, s0, -1
  103c82: 93 17 24 00  	slli	a5, s0, 2
  103c86: a6 97        	add	a5, a5, s1
  103c88: 9c 43        	lw	a5, 0(a5)
  103c8a: 82 97        	jalr	a5
  103c8c: e5 b7        	j	0x103c74 <__libc_fini_array+0x20>

00103c8e <memmove>:
  103c8e: 15 c2        	beqz	a2, 0x103cb2 <memmove+0x24>
  103c90: 2a 83        	mv	t1, a0
  103c92: 85 46        	li	a3, 1
  103c94: 63 67 b5 00  	bltu	a0, a1, 0x103ca2 <memmove+0x14>
  103c98: fd 56        	li	a3, -1
  103c9a: 13 07 f6 ff  	addi	a4, a2, -1
  103c9e: 3a 93        	add	t1, t1, a4
  103ca0: ba 95        	add	a1, a1, a4
  103ca2: 83 83 05 00  	lb	t2, 0(a1)
  103ca6: 23 00 73 00  	sb	t2, 0(t1)
  103caa: 7d 16        	addi	a2, a2, -1
  103cac: 36 93        	add	t1, t1, a3
  103cae: b6 95        	add	a1, a1, a3
  103cb0: 6d fa        	bnez	a2, 0x103ca2 <memmove+0x14>
  103cb2: 82 80        	ret

00103cb4 <memset>:
  103cb4: 2a 83        	mv	t1, a0
  103cb6: 11 c6        	beqz	a2, 0x103cc2 <memset+0xe>
  103cb8: 23 00 b3 00  	sb	a1, 0(t1)
  103cbc: 7d 16        	addi	a2, a2, -1
  103cbe: 05 03        	addi	t1, t1, 1
  103cc0: 65 fe        	bnez	a2, 0x103cb8 <memset+0x4>
  103cc2: 82 80        	ret

00103cc4 <memcpy>:
  103cc4: 2a 83        	mv	t1, a0
  103cc6: 09 ca        	beqz	a2, 0x103cd8 <memcpy+0x14>
  103cc8: 83 83 05 00  	lb	t2, 0(a1)
  103ccc: 23 00 73 00  	sb	t2, 0(t1)
  103cd0: 7d 16        	addi	a2, a2, -1
  103cd2: 05 03        	addi	t1, t1, 1
  103cd4: 85 05        	addi	a1, a1, 1
  103cd6: 6d fa        	bnez	a2, 0x103cc8 <memcpy+0x4>
  103cd8: 82 80        	ret

00103cda <strlen>:
  103cda: aa 87        	mv	a5, a0
  103cdc: 03 c7 07 00  	lbu	a4, 0(a5)
  103ce0: 85 07        	addi	a5, a5, 1
  103ce2: 6d ff        	bnez	a4, 0x103cdc <strlen+0x2>
  103ce4: 33 85 a7 40  	sub	a0, a5, a0
  103ce8: 7d 15        	addi	a0, a0, -1
  103cea: 82 80        	ret

00103cec <strcmp>:
  103cec: 03 46 05 00  	lbu	a2, 0(a0)
  103cf0: 83 c6 05 00  	lbu	a3, 0(a1)
  103cf4: 05 05        	addi	a0, a0, 1
  103cf6: 85 05        	addi	a1, a1, 1
  103cf8: 63 13 d6 00  	bne	a2, a3, 0x103cfe <strcmp+0x12>
  103cfc: 65 fa        	bnez	a2, 0x103cec <strcmp>
  103cfe: 33 05 d6 40  	sub	a0, a2, a3
  103d02: 82 80        	ret

00103d04 <nanf>:
  103d04: 07 a5 81 88  	flw	fa0, -1912(gp)
  103d08: 82 80        	ret

00103d0a <__register_exitproc>:
  103d0a: 37 c8 10 00  	lui	a6, 268
  103d0e: 83 27 08 89  	lw	a5, -1904(a6)
  103d12: aa 88        	mv	a7, a0
  103d14: 9d e3        	bnez	a5, 0x103d3a <__register_exitproc+0x30>
  103d16: 37 c7 10 00  	lui	a4, 268
  103d1a: 13 05 87 8b  	addi	a0, a4, -1864
  103d1e: 23 28 a8 88  	sw	a0, -1904(a6)
  103d22: 13 03 00 00  	li	t1, 0
  103d26: 93 07 87 8b  	addi	a5, a4, -1864
  103d2a: 63 08 03 00  	beqz	t1, 0x103d3a <__register_exitproc+0x30>
  103d2e: 83 27 00 00  	lw	a5, 0(zero)
  103d32: 23 24 f5 08  	sw	a5, 136(a0)
  103d36: 93 07 87 8b  	addi	a5, a4, -1864
  103d3a: d8 43        	lw	a4, 4(a5)
  103d3c: 7d 48        	li	a6, 31
  103d3e: 7d 55        	li	a0, -1
  103d40: 63 46 e8 04  	blt	a6, a4, 0x103d8c <__register_exitproc+0x82>
  103d44: 63 8d 08 02  	beqz	a7, 0x103d7e <__register_exitproc+0x74>
  103d48: 03 a8 87 08  	lw	a6, 136(a5)
  103d4c: 63 00 08 04  	beqz	a6, 0x103d8c <__register_exitproc+0x82>
  103d50: 13 15 27 00  	slli	a0, a4, 2
  103d54: 42 95        	add	a0, a0, a6
  103d56: 10 c1        	sw	a2, 0(a0)
  103d58: 03 23 08 10  	lw	t1, 256(a6)
  103d5c: 05 46        	li	a2, 1
  103d5e: 33 16 e6 00  	sll	a2, a2, a4
  103d62: 33 63 c3 00  	or	t1, t1, a2
  103d66: 23 20 68 10  	sw	t1, 256(a6)
  103d6a: 23 20 d5 08  	sw	a3, 128(a0)
  103d6e: 89 46        	li	a3, 2
  103d70: 63 97 d8 00  	bne	a7, a3, 0x103d7e <__register_exitproc+0x74>
  103d74: 83 26 48 10  	lw	a3, 260(a6)
  103d78: 55 8e        	or	a2, a2, a3
  103d7a: 23 22 c8 10  	sw	a2, 260(a6)
  103d7e: 93 06 17 00  	addi	a3, a4, 1
  103d82: 0a 07        	slli	a4, a4, 2
  103d84: d4 c3        	sw	a3, 4(a5)
  103d86: ba 97        	add	a5, a5, a4
  103d88: 8c c7        	sw	a1, 8(a5)
  103d8a: 01 45        	li	a0, 0
  103d8c: 82 80        	ret

00103d8e <__call_exitprocs>:
  103d8e: 79 71        	addi	sp, sp, -48
  103d90: 56 ca        	sw	s5, 20(sp)
  103d92: 5a c8        	sw	s6, 16(sp)
  103d94: 5e c6        	sw	s7, 12(sp)
  103d96: 66 c2        	sw	s9, 4(sp)
  103d98: 06 d6        	sw	ra, 44(sp)
  103d9a: 22 d4        	sw	s0, 40(sp)
  103d9c: 26 d2        	sw	s1, 36(sp)
  103d9e: 4a d0        	sw	s2, 32(sp)
  103da0: 4e ce        	sw	s3, 28(sp)
  103da2: 52 cc        	sw	s4, 24(sp)
  103da4: 62 c4        	sw	s8, 8(sp)
  103da6: 6a c0        	sw	s10, 0(sp)
  103da8: 2a 8b        	mv	s6, a0
  103daa: ae 8a        	mv	s5, a1
  103dac: b7 cb 10 00  	lui	s7, 268
  103db0: 85 4c        	li	s9, 1
  103db2: 83 a4 0b 89  	lw	s1, -1904(s7)
  103db6: 13 8c 0b 89  	addi	s8, s7, -1904
  103dba: 81 cc        	beqz	s1, 0x103dd2 <__call_exitprocs+0x44>
  103dbc: c0 40        	lw	s0, 4(s1)
  103dbe: 83 a9 84 08  	lw	s3, 136(s1)
  103dc2: 13 09 f4 ff  	addi	s2, s0, -1
  103dc6: 0a 04        	slli	s0, s0, 2
  103dc8: 33 8a 89 00  	add	s4, s3, s0
  103dcc: 26 94        	add	s0, s0, s1
  103dce: 63 50 09 02  	bgez	s2, 0x103dee <__call_exitprocs+0x60>
  103dd2: b2 50        	lw	ra, 44(sp)
  103dd4: 22 54        	lw	s0, 40(sp)
  103dd6: 92 54        	lw	s1, 36(sp)
  103dd8: 02 59        	lw	s2, 32(sp)
  103dda: f2 49        	lw	s3, 28(sp)
  103ddc: 62 4a        	lw	s4, 24(sp)
  103dde: d2 4a        	lw	s5, 20(sp)
  103de0: 42 4b        	lw	s6, 16(sp)
  103de2: b2 4b        	lw	s7, 12(sp)
  103de4: 22 4c        	lw	s8, 8(sp)
  103de6: 92 4c        	lw	s9, 4(sp)
  103de8: 02 4d        	lw	s10, 0(sp)
  103dea: 45 61        	addi	sp, sp, 48
  103dec: 82 80        	ret
  103dee: 63 8c 0a 00  	beqz	s5, 0x103e06 <__call_exitprocs+0x78>
  103df2: 63 96 09 00  	bnez	s3, 0x103dfe <__call_exitprocs+0x70>
  103df6: 7d 19        	addi	s2, s2, -1
  103df8: 71 1a        	addi	s4, s4, -4
  103dfa: 71 14        	addi	s0, s0, -4
  103dfc: c9 bf        	j	0x103dce <__call_exitprocs+0x40>
  103dfe: 83 27 ca 07  	lw	a5, 124(s4)
  103e02: e3 9a 57 ff  	bne	a5, s5, 0x103df6 <__call_exitprocs+0x68>
  103e06: d8 40        	lw	a4, 4(s1)
  103e08: 5c 40        	lw	a5, 4(s0)
  103e0a: 7d 17        	addi	a4, a4, -1
  103e0c: 63 18 27 03  	bne	a4, s2, 0x103e3c <__call_exitprocs+0xae>
  103e10: 23 a2 24 01  	sw	s2, 4(s1)
  103e14: ed d3        	beqz	a5, 0x103df6 <__call_exitprocs+0x68>
  103e16: 03 ad 44 00  	lw	s10, 4(s1)
  103e1a: 63 88 09 00  	beqz	s3, 0x103e2a <__call_exitprocs+0x9c>
  103e1e: 83 a6 09 10  	lw	a3, 256(s3)
  103e22: 33 97 2c 01  	sll	a4, s9, s2
  103e26: f9 8e        	and	a3, a3, a4
  103e28: 89 ee        	bnez	a3, 0x103e42 <__call_exitprocs+0xb4>
  103e2a: 82 97        	jalr	a5
  103e2c: d8 40        	lw	a4, 4(s1)
  103e2e: 83 27 0c 00  	lw	a5, 0(s8)
  103e32: e3 10 a7 f9  	bne	a4, s10, 0x103db2 <__call_exitprocs+0x24>
  103e36: e3 80 f4 fc  	beq	s1, a5, 0x103df6 <__call_exitprocs+0x68>
  103e3a: a5 bf        	j	0x103db2 <__call_exitprocs+0x24>
  103e3c: 23 22 04 00  	sw	zero, 4(s0)
  103e40: d1 bf        	j	0x103e14 <__call_exitprocs+0x86>
  103e42: 83 a6 49 10  	lw	a3, 260(s3)
  103e46: 83 25 ca ff  	lw	a1, -4(s4)
  103e4a: 75 8f        	and	a4, a4, a3
  103e4c: 01 e7        	bnez	a4, 0x103e54 <__call_exitprocs+0xc6>
  103e4e: 5a 85        	mv	a0, s6
  103e50: 82 97        	jalr	a5
  103e52: e9 bf        	j	0x103e2c <__call_exitprocs+0x9e>
  103e54: 2e 85        	mv	a0, a1
  103e56: 82 97        	jalr	a5
  103e58: d1 bf        	j	0x103e2c <__call_exitprocs+0x9e>

00103e5a <quorem>:
  103e5a: 01 11        	addi	sp, sp, -32
  103e5c: 22 cc        	sw	s0, 24(sp)
  103e5e: 1c 49        	lw	a5, 16(a0)
  103e60: 80 49        	lw	s0, 16(a1)
  103e62: 06 ce        	sw	ra, 28(sp)
  103e64: 26 ca        	sw	s1, 20(sp)
  103e66: 4a c8        	sw	s2, 16(sp)
  103e68: 4e c6        	sw	s3, 12(sp)
  103e6a: 52 c4        	sw	s4, 8(sp)
  103e6c: 56 c2        	sw	s5, 4(sp)
  103e6e: 63 ca 87 10  	blt	a5, s0, 0x103f82 <quorem+0x128>
  103e72: 7d 14        	addi	s0, s0, -1
  103e74: 13 16 24 00  	slli	a2, s0, 2
  103e78: 13 8a 45 01  	addi	s4, a1, 20
  103e7c: b3 0a ca 00  	add	s5, s4, a2
  103e80: 93 09 45 01  	addi	s3, a0, 20
  103e84: 83 a7 0a 00  	lw	a5, 0(s5)
  103e88: 4e 96        	add	a2, a2, s3
  103e8a: 18 42        	lw	a4, 0(a2)
  103e8c: 85 07        	addi	a5, a5, 1
  103e8e: 2a 89        	mv	s2, a0
  103e90: b3 54 f7 02  	divu	s1, a4, a5
  103e94: 63 62 f7 06  	bltu	a4, a5, 0x103ef8 <quorem+0x9e>
  103e98: 41 65        	lui	a0, 16
  103e9a: 52 88        	mv	a6, s4
  103e9c: ce 88        	mv	a7, s3
  103e9e: 01 43        	li	t1, 0
  103ea0: 01 4e        	li	t3, 0
  103ea2: 7d 15        	addi	a0, a0, -1
  103ea4: 83 26 08 00  	lw	a3, 0(a6)
  103ea8: 91 08        	addi	a7, a7, 4
  103eaa: 11 08        	addi	a6, a6, 4
  103eac: b3 f7 a6 00  	and	a5, a3, a0
  103eb0: c1 82        	srli	a3, a3, 16
  103eb2: b3 87 97 02  	mul	a5, a5, s1
  103eb6: b3 86 96 02  	mul	a3, a3, s1
  103eba: 9a 97        	add	a5, a5, t1
  103ebc: 13 d7 07 01  	srli	a4, a5, 16
  103ec0: e9 8f        	and	a5, a5, a0
  103ec2: b3 07 fe 40  	sub	a5, t3, a5
  103ec6: ba 96        	add	a3, a3, a4
  103ec8: 03 a7 c8 ff  	lw	a4, -4(a7)
  103ecc: 13 d3 06 01  	srli	t1, a3, 16
  103ed0: e9 8e        	and	a3, a3, a0
  103ed2: 33 7e a7 00  	and	t3, a4, a0
  103ed6: f2 97        	add	a5, a5, t3
  103ed8: 41 83        	srli	a4, a4, 16
  103eda: 15 8f        	sub	a4, a4, a3
  103edc: 93 d6 07 41  	srai	a3, a5, 16
  103ee0: 36 97        	add	a4, a4, a3
  103ee2: 13 5e 07 41  	srai	t3, a4, 16
  103ee6: e9 8f        	and	a5, a5, a0
  103ee8: 42 07        	slli	a4, a4, 16
  103eea: d9 8f        	or	a5, a5, a4
  103eec: 23 ae f8 fe  	sw	a5, -4(a7)
  103ef0: e3 fa 0a fb  	bgeu	s5, a6, 0x103ea4 <quorem+0x4a>
  103ef4: 1c 42        	lw	a5, 0(a2)
  103ef6: bd c7        	beqz	a5, 0x103f64 <quorem+0x10a>
  103ef8: 4a 85        	mv	a0, s2
  103efa: ef 10 20 39  	jal	0x10528c <__mcmp>
  103efe: 63 46 05 04  	bltz	a0, 0x103f4a <quorem+0xf0>
  103f02: c1 66        	lui	a3, 16
  103f04: 85 04        	addi	s1, s1, 1
  103f06: 4e 86        	mv	a2, s3
  103f08: 81 45        	li	a1, 0
  103f0a: fd 16        	addi	a3, a3, -1
  103f0c: 03 25 0a 00  	lw	a0, 0(s4)
  103f10: 1c 42        	lw	a5, 0(a2)
  103f12: 11 06        	addi	a2, a2, 4
  103f14: 33 77 d5 00  	and	a4, a0, a3
  103f18: 99 8d        	sub	a1, a1, a4
  103f1a: 33 f7 d7 00  	and	a4, a5, a3
  103f1e: 2e 97        	add	a4, a4, a1
  103f20: c1 83        	srli	a5, a5, 16
  103f22: 41 81        	srli	a0, a0, 16
  103f24: 93 55 07 41  	srai	a1, a4, 16
  103f28: 89 8f        	sub	a5, a5, a0
  103f2a: ae 97        	add	a5, a5, a1
  103f2c: 93 d5 07 41  	srai	a1, a5, 16
  103f30: 75 8f        	and	a4, a4, a3
  103f32: c2 07        	slli	a5, a5, 16
  103f34: d9 8f        	or	a5, a5, a4
  103f36: 11 0a        	addi	s4, s4, 4
  103f38: 23 2e f6 fe  	sw	a5, -4(a2)
  103f3c: e3 f8 4a fd  	bgeu	s5, s4, 0x103f0c <quorem+0xb2>
  103f40: 93 17 24 00  	slli	a5, s0, 2
  103f44: ce 97        	add	a5, a5, s3
  103f46: 98 43        	lw	a4, 0(a5)
  103f48: 1d c7        	beqz	a4, 0x103f76 <quorem+0x11c>
  103f4a: 26 85        	mv	a0, s1
  103f4c: f2 40        	lw	ra, 28(sp)
  103f4e: 62 44        	lw	s0, 24(sp)
  103f50: d2 44        	lw	s1, 20(sp)
  103f52: 42 49        	lw	s2, 16(sp)
  103f54: b2 49        	lw	s3, 12(sp)
  103f56: 22 4a        	lw	s4, 8(sp)
  103f58: 92 4a        	lw	s5, 4(sp)
  103f5a: 05 61        	addi	sp, sp, 32
  103f5c: 82 80        	ret
  103f5e: 1c 42        	lw	a5, 0(a2)
  103f60: 89 e7        	bnez	a5, 0x103f6a <quorem+0x110>
  103f62: 7d 14        	addi	s0, s0, -1
  103f64: 71 16        	addi	a2, a2, -4
  103f66: e3 ec c9 fe  	bltu	s3, a2, 0x103f5e <quorem+0x104>
  103f6a: 23 28 89 00  	sw	s0, 16(s2)
  103f6e: 69 b7        	j	0x103ef8 <quorem+0x9e>
  103f70: 98 43        	lw	a4, 0(a5)
  103f72: 09 e7        	bnez	a4, 0x103f7c <quorem+0x122>
  103f74: 7d 14        	addi	s0, s0, -1
  103f76: f1 17        	addi	a5, a5, -4
  103f78: e3 ec f9 fe  	bltu	s3, a5, 0x103f70 <quorem+0x116>
  103f7c: 23 28 89 00  	sw	s0, 16(s2)
  103f80: e9 b7        	j	0x103f4a <quorem+0xf0>
  103f82: 01 45        	li	a0, 0
  103f84: e1 b7        	j	0x103f4c <quorem+0xf2>

00103f86 <_dtoa_r>:
  103f86: 71 71        	addi	sp, sp, -176
  103f88: 3e dc        	sw	a5, 56(sp)
  103f8a: 5c 51        	lw	a5, 36(a0)
  103f8c: 22 d5        	sw	s0, 168(sp)
  103f8e: 26 d3        	sw	s1, 164(sp)
  103f90: 4a d1        	sw	s2, 160(sp)
  103f92: 4e cf        	sw	s3, 156(sp)
  103f94: 52 cd        	sw	s4, 152(sp)
  103f96: 6a c1        	sw	s10, 128(sp)
  103f98: 06 d7        	sw	ra, 172(sp)
  103f9a: 56 cb        	sw	s5, 148(sp)
  103f9c: 5a c9        	sw	s6, 144(sp)
  103f9e: 5e c7        	sw	s7, 140(sp)
  103fa0: 62 c5        	sw	s8, 136(sp)
  103fa2: 66 c3        	sw	s9, 132(sp)
  103fa4: ee de        	sw	s11, 124(sp)
  103fa6: 3a cc        	sw	a4, 24(sp)
  103fa8: 46 ce        	sw	a7, 28(sp)
  103faa: 2e c8        	sw	a1, 16(sp)
  103fac: 2a 89        	mv	s2, a0
  103fae: ae 84        	mv	s1, a1
  103fb0: 32 84        	mv	s0, a2
  103fb2: 36 8d        	mv	s10, a3
  103fb4: 42 8a        	mv	s4, a6
  103fb6: b2 89        	mv	s3, a2
  103fb8: 85 eb        	bnez	a5, 0x103fe8 <_dtoa_r+0x62>
  103fba: 41 45        	li	a0, 16
  103fbc: ef c0 1f e4  	jal	0x100dfc <malloc>
  103fc0: 23 22 a9 02  	sw	a0, 36(s2)
  103fc4: 11 e9        	bnez	a0, 0x103fd8 <_dtoa_r+0x52>
  103fc6: 93 86 41 b8  	addi	a3, gp, -1148
  103fca: 01 46        	li	a2, 0
  103fcc: 93 05 a0 0e  	li	a1, 234
  103fd0: 13 85 c1 b9  	addi	a0, gp, -1124
  103fd4: ef 30 70 41  	jal	0x107bea <__assert_func>
  103fd8: 23 22 05 00  	sw	zero, 4(a0)
  103fdc: 23 24 05 00  	sw	zero, 8(a0)
  103fe0: 23 20 05 00  	sw	zero, 0(a0)
  103fe4: 23 26 05 00  	sw	zero, 12(a0)
  103fe8: 83 27 49 02  	lw	a5, 36(s2)
  103fec: 8c 43        	lw	a1, 0(a5)
  103fee: 91 cd        	beqz	a1, 0x10400a <_dtoa_r+0x84>
  103ff0: d8 43        	lw	a4, 4(a5)
  103ff2: 85 47        	li	a5, 1
  103ff4: 4a 85        	mv	a0, s2
  103ff6: b3 97 e7 00  	sll	a5, a5, a4
  103ffa: 9c c5        	sw	a5, 8(a1)
  103ffc: d8 c1        	sw	a4, 4(a1)
  103ffe: ef 00 10 4a  	jal	0x104c9e <_Bfree>
  104002: 83 27 49 02  	lw	a5, 36(s2)
  104006: 23 a0 07 00  	sw	zero, 0(a5)
  10400a: 63 53 04 04  	bgez	s0, 0x104050 <_dtoa_r+0xca>
  10400e: 85 47        	li	a5, 1
  104010: 06 04        	slli	s0, s0, 1
  104012: 23 20 fa 00  	sw	a5, 0(s4)
  104016: 93 59 14 00  	srli	s3, s0, 1
  10401a: b7 07 f0 7f  	lui	a5, 524032
  10401e: 33 f7 f9 00  	and	a4, s3, a5
  104022: 63 1a f7 02  	bne	a4, a5, 0x104056 <_dtoa_r+0xd0>
  104026: 62 57        	lw	a4, 56(sp)
  104028: 89 67        	lui	a5, 2
  10402a: b2 09        	slli	s3, s3, 12
  10402c: 93 87 f7 70  	addi	a5, a5, 1807
  104030: 93 d9 c9 00  	srli	s3, s3, 12
  104034: 1c c3        	sw	a5, 0(a4)
  104036: b3 e4 99 00  	or	s1, s3, s1
  10403a: e3 85 04 2a  	beqz	s1, 0x104ae4 <_dtoa_r+0xb5e>
  10403e: f2 47        	lw	a5, 28(sp)
  104040: 93 8a 01 b8  	addi	s5, gp, -1152
  104044: e3 88 07 2a  	beqz	a5, 0x104af4 <_dtoa_r+0xb6e>
  104048: 93 87 31 b8  	addi	a5, gp, -1149
  10404c: 6f 00 50 2a  	j	0x104af0 <_dtoa_r+0xb6a>
  104050: 23 20 0a 00  	sw	zero, 0(s4)
  104054: d9 b7        	j	0x10401a <_dtoa_r+0x94>
  104056: 01 46        	li	a2, 0
  104058: 81 46        	li	a3, 0
  10405a: 26 85        	mv	a0, s1
  10405c: ce 85        	mv	a1, s3
  10405e: 26 d4        	sw	s1, 40(sp)
  104060: 4e d6        	sw	s3, 44(sp)
  104062: ef 50 10 2e  	jal	0x109b42 <__nedf2>
  104066: 19 ed        	bnez	a0, 0x104084 <_dtoa_r+0xfe>
  104068: 62 57        	lw	a4, 56(sp)
  10406a: 85 47        	li	a5, 1
  10406c: 1c c3        	sw	a5, 0(a4)
  10406e: f2 47        	lw	a5, 28(sp)
  104070: 93 8a 01 a0  	addi	s5, gp, -1536
  104074: e3 80 07 28  	beqz	a5, 0x104af4 <_dtoa_r+0xb6e>
  104078: f2 46        	lw	a3, 28(sp)
  10407a: 93 87 11 a0  	addi	a5, gp, -1535
  10407e: 9c c2        	sw	a5, 0(a3)
  104080: 6f 00 50 27  	j	0x104af4 <_dtoa_r+0xb6e>
  104084: b8 10        	addi	a4, sp, 104
  104086: f4 10        	addi	a3, sp, 108
  104088: 4e 86        	mv	a2, s3
  10408a: a6 85        	mv	a1, s1
  10408c: 4a 85        	mv	a0, s2
  10408e: 13 da 49 01  	srli	s4, s3, 20
  104092: ef 10 00 48  	jal	0x105512 <__d2b>
  104096: 13 7a fa 7f  	andi	s4, s4, 2047
  10409a: a6 5b        	lw	s7, 104(sp)
  10409c: 2a 84        	mv	s0, a0
  10409e: 63 09 0a 10  	beqz	s4, 0x1041b0 <_dtoa_r+0x22a>
  1040a2: b2 57        	lw	a5, 44(sp)
  1040a4: 22 55        	lw	a0, 40(sp)
  1040a6: 13 0a 1a c0  	addi	s4, s4, -1023
  1040aa: 93 95 c7 00  	slli	a1, a5, 12
  1040ae: b1 81        	srli	a1, a1, 12
  1040b0: b7 07 f0 3f  	lui	a5, 261888
  1040b4: dd 8d        	or	a1, a1, a5
  1040b6: 82 cc        	sw	zero, 88(sp)
  1040b8: c1 67        	lui	a5, 16
  1040ba: 03 a6 87 1d  	lw	a2, 472(a5)
  1040be: 83 a6 c7 1d  	lw	a3, 476(a5)
  1040c2: ef 60 60 21  	jal	0x10a2d8 <__subdf3>
  1040c6: 03 a6 01 81  	lw	a2, -2032(gp)
  1040ca: 83 a6 41 81  	lw	a3, -2028(gp)
  1040ce: ef 50 50 47  	jal	0x109d42 <__muldf3>
  1040d2: 03 a6 81 81  	lw	a2, -2024(gp)
  1040d6: 83 a6 c1 81  	lw	a3, -2020(gp)
  1040da: ef 40 b0 33  	jal	0x108c14 <__adddf3>
  1040de: aa 8a        	mv	s5, a0
  1040e0: 52 85        	mv	a0, s4
  1040e2: ae 84        	mv	s1, a1
  1040e4: ef 60 10 48  	jal	0x10ad64 <__floatsidf>
  1040e8: 03 a6 01 82  	lw	a2, -2016(gp)
  1040ec: 83 a6 41 82  	lw	a3, -2012(gp)
  1040f0: ef 50 30 45  	jal	0x109d42 <__muldf3>
  1040f4: 2a 86        	mv	a2, a0
  1040f6: ae 86        	mv	a3, a1
  1040f8: 56 85        	mv	a0, s5
  1040fa: a6 85        	mv	a1, s1
  1040fc: ef 40 90 31  	jal	0x108c14 <__adddf3>
  104100: aa 8a        	mv	s5, a0
  104102: 2e 8b        	mv	s6, a1
  104104: ef 60 70 30  	jal	0x10ac0a <__fixdfsi>
  104108: aa 84        	mv	s1, a0
  10410a: 01 46        	li	a2, 0
  10410c: 81 46        	li	a3, 0
  10410e: 56 85        	mv	a0, s5
  104110: da 85        	mv	a1, s6
  104112: ef 50 30 38  	jal	0x109c94 <__ltdf2>
  104116: 63 5b 05 00  	bgez	a0, 0x10412c <_dtoa_r+0x1a6>
  10411a: 26 85        	mv	a0, s1
  10411c: ef 60 90 44  	jal	0x10ad64 <__floatsidf>
  104120: 56 86        	mv	a2, s5
  104122: da 86        	mv	a3, s6
  104124: ef 50 f0 21  	jal	0x109b42 <__nedf2>
  104128: 11 c1        	beqz	a0, 0x10412c <_dtoa_r+0x1a6>
  10412a: fd 14        	addi	s1, s1, -1
  10412c: 05 47        	li	a4, 1
  10412e: d9 47        	li	a5, 22
  104130: 3a d8        	sw	a4, 48(sp)
  104132: 63 e1 97 02  	bltu	a5, s1, 0x104154 <_dtoa_r+0x1ce>
  104136: 93 97 34 00  	slli	a5, s1, 3
  10413a: 13 87 81 cb  	addi	a4, gp, -840
  10413e: ba 97        	add	a5, a5, a4
  104140: 90 43        	lw	a2, 0(a5)
  104142: d4 43        	lw	a3, 4(a5)
  104144: 22 55        	lw	a0, 40(sp)
  104146: b2 55        	lw	a1, 44(sp)
  104148: ef 50 d0 34  	jal	0x109c94 <__ltdf2>
  10414c: 63 53 05 00  	bgez	a0, 0x104152 <_dtoa_r+0x1cc>
  104150: fd 14        	addi	s1, s1, -1
  104152: 02 d8        	sw	zero, 48(sp)
  104154: 33 8a 4b 41  	sub	s4, s7, s4
  104158: 93 0c fa ff  	addi	s9, s4, -1
  10415c: 01 4c        	li	s8, 0
  10415e: 63 d6 0c 00  	bgez	s9, 0x10416a <_dtoa_r+0x1e4>
  104162: 05 4c        	li	s8, 1
  104164: 33 0c 4c 41  	sub	s8, s8, s4
  104168: 81 4c        	li	s9, 0
  10416a: 63 c3 04 08  	bltz	s1, 0x1041f0 <_dtoa_r+0x26a>
  10416e: a6 9c        	add	s9, s9, s1
  104170: 26 d0        	sw	s1, 32(sp)
  104172: 01 4b        	li	s6, 0
  104174: a5 47        	li	a5, 9
  104176: 63 e0 a7 0f  	bltu	a5, s10, 0x104256 <_dtoa_r+0x2d0>
  10417a: 95 47        	li	a5, 5
  10417c: 05 4a        	li	s4, 1
  10417e: 63 d4 a7 01  	bge	a5, s10, 0x104186 <_dtoa_r+0x200>
  104182: 71 1d        	addi	s10, s10, -4
  104184: 01 4a        	li	s4, 0
  104186: 91 47        	li	a5, 4
  104188: 63 0a fd 06  	beq	s10, a5, 0x1041fc <_dtoa_r+0x276>
  10418c: 95 47        	li	a5, 5
  10418e: 63 08 fd 0a  	beq	s10, a5, 0x10423e <_dtoa_r+0x2b8>
  104192: 89 47        	li	a5, 2
  104194: 63 03 fd 0a  	beq	s10, a5, 0x10423a <_dtoa_r+0x2b4>
  104198: 8d 47        	li	a5, 3
  10419a: 02 ca        	sw	zero, 20(sp)
  10419c: 63 03 fd 0a  	beq	s10, a5, 0x104242 <_dtoa_r+0x2bc>
  1041a0: 85 47        	li	a5, 1
  1041a2: 3e ca        	sw	a5, 20(sp)
  1041a4: fd 57        	li	a5, -1
  1041a6: 3e c4        	sw	a5, 8(sp)
  1041a8: fd 5b        	li	s7, -1
  1041aa: c9 47        	li	a5, 18
  1041ac: 02 cc        	sw	zero, 24(sp)
  1041ae: 8d a0        	j	0x104210 <_dtoa_r+0x28a>
  1041b0: 36 5a        	lw	s4, 108(sp)
  1041b2: 93 07 00 02  	li	a5, 32
  1041b6: 5e 9a        	add	s4, s4, s7
  1041b8: 93 05 2a 43  	addi	a1, s4, 1074
  1041bc: 63 d5 b7 02  	bge	a5, a1, 0x1041e6 <_dtoa_r+0x260>
  1041c0: 13 05 00 04  	li	a0, 64
  1041c4: 0d 8d        	sub	a0, a0, a1
  1041c6: 93 05 2a 41  	addi	a1, s4, 1042
  1041ca: 33 95 a9 00  	sll	a0, s3, a0
  1041ce: b3 d4 b4 00  	srl	s1, s1, a1
  1041d2: 45 8d        	or	a0, a0, s1
  1041d4: ef 60 90 3f  	jal	0x10adcc <__floatunsidf>
  1041d8: b7 07 10 fe  	lui	a5, 1040640
  1041dc: be 95        	add	a1, a1, a5
  1041de: 85 47        	li	a5, 1
  1041e0: 7d 1a        	addi	s4, s4, -1
  1041e2: be cc        	sw	a5, 88(sp)
  1041e4: d1 bd        	j	0x1040b8 <_dtoa_r+0x132>
  1041e6: 33 85 b7 40  	sub	a0, a5, a1
  1041ea: 33 95 a4 00  	sll	a0, s1, a0
  1041ee: dd b7        	j	0x1041d4 <_dtoa_r+0x24e>
  1041f0: 33 0c 9c 40  	sub	s8, s8, s1
  1041f4: 33 0b 90 40  	neg	s6, s1
  1041f8: 02 d0        	sw	zero, 32(sp)
  1041fa: ad bf        	j	0x104174 <_dtoa_r+0x1ee>
  1041fc: 85 47        	li	a5, 1
  1041fe: 3e ca        	sw	a5, 20(sp)
  104200: e2 47        	lw	a5, 24(sp)
  104202: 63 4d f0 04  	bgtz	a5, 0x10425c <_dtoa_r+0x2d6>
  104206: 85 47        	li	a5, 1
  104208: 05 47        	li	a4, 1
  10420a: 3e c4        	sw	a5, 8(sp)
  10420c: 85 4b        	li	s7, 1
  10420e: 3a cc        	sw	a4, 24(sp)
  104210: 83 26 49 02  	lw	a3, 36(s2)
  104214: 11 47        	li	a4, 4
  104216: 23 a2 06 00  	sw	zero, 4(a3)
  10421a: 13 06 47 01  	addi	a2, a4, 20
  10421e: cc 42        	lw	a1, 4(a3)
  104220: 63 f2 c7 04  	bgeu	a5, a2, 0x104264 <_dtoa_r+0x2de>
  104224: 4a 85        	mv	a0, s2
  104226: ef 00 30 1d  	jal	0x104bf8 <_Balloc>
  10422a: aa 8a        	mv	s5, a0
  10422c: 21 e1        	bnez	a0, 0x10426c <_dtoa_r+0x2e6>
  10422e: 93 86 c1 c0  	addi	a3, gp, -1012
  104232: 01 46        	li	a2, 0
  104234: 93 05 a0 1a  	li	a1, 426
  104238: 61 bb        	j	0x103fd0 <_dtoa_r+0x4a>
  10423a: 02 ca        	sw	zero, 20(sp)
  10423c: d1 b7        	j	0x104200 <_dtoa_r+0x27a>
  10423e: 85 47        	li	a5, 1
  104240: 3e ca        	sw	a5, 20(sp)
  104242: e2 47        	lw	a5, 24(sp)
  104244: a6 97        	add	a5, a5, s1
  104246: 3e c4        	sw	a5, 8(sp)
  104248: 93 8b 17 00  	addi	s7, a5, 1
  10424c: de 87        	mv	a5, s7
  10424e: e3 41 70 fd  	bgtz	s7, 0x104210 <_dtoa_r+0x28a>
  104252: 85 47        	li	a5, 1
  104254: 75 bf        	j	0x104210 <_dtoa_r+0x28a>
  104256: 05 4a        	li	s4, 1
  104258: 01 4d        	li	s10, 0
  10425a: 99 b7        	j	0x1041a0 <_dtoa_r+0x21a>
  10425c: e2 47        	lw	a5, 24(sp)
  10425e: 3e c4        	sw	a5, 8(sp)
  104260: be 8b        	mv	s7, a5
  104262: 7d b7        	j	0x104210 <_dtoa_r+0x28a>
  104264: 85 05        	addi	a1, a1, 1
  104266: cc c2        	sw	a1, 4(a3)
  104268: 06 07        	slli	a4, a4, 1
  10426a: 45 bf        	j	0x10421a <_dtoa_r+0x294>
  10426c: 83 27 49 02  	lw	a5, 36(s2)
  104270: 88 c3        	sw	a0, 0(a5)
  104272: b9 47        	li	a5, 14
  104274: 63 e7 77 13  	bltu	a5, s7, 0x1043a2 <_dtoa_r+0x41c>
  104278: 63 05 0a 12  	beqz	s4, 0x1043a2 <_dtoa_r+0x41c>
  10427c: 63 55 90 1a  	blez	s1, 0x104426 <_dtoa_r+0x4a0>
  104280: 93 f7 f4 00  	andi	a5, s1, 15
  104284: 13 87 81 cb  	addi	a4, gp, -840
  104288: 8e 07        	slli	a5, a5, 3
  10428a: ba 97        	add	a5, a5, a4
  10428c: 03 a8 07 00  	lw	a6, 0(a5)
  104290: d8 43        	lw	a4, 4(a5)
  104292: 93 d7 44 40  	srai	a5, s1, 4
  104296: 93 f6 07 01  	andi	a3, a5, 16
  10429a: 93 8d 01 c9  	addi	s11, gp, -880
  10429e: 09 4a        	li	s4, 2
  1042a0: 9d c2        	beqz	a3, 0x1042c6 <_dtoa_r+0x340>
  1042a2: 03 a6 0d 02  	lw	a2, 32(s11)
  1042a6: 83 a6 4d 02  	lw	a3, 36(s11)
  1042aa: 22 55        	lw	a0, 40(sp)
  1042ac: b2 55        	lw	a1, 44(sp)
  1042ae: bd 8b        	andi	a5, a5, 15
  1042b0: 3a de        	sw	a4, 60(sp)
  1042b2: 42 da        	sw	a6, 52(sp)
  1042b4: 3e d2        	sw	a5, 36(sp)
  1042b6: ef 50 80 20  	jal	0x1094be <__divdf3>
  1042ba: 72 57        	lw	a4, 60(sp)
  1042bc: 52 58        	lw	a6, 52(sp)
  1042be: 92 57        	lw	a5, 36(sp)
  1042c0: 2a c8        	sw	a0, 16(sp)
  1042c2: ae 89        	mv	s3, a1
  1042c4: 0d 4a        	li	s4, 3
  1042c6: 63 9d 07 12  	bnez	a5, 0x104400 <_dtoa_r+0x47a>
  1042ca: ba 86        	mv	a3, a4
  1042cc: 42 47        	lw	a4, 16(sp)
  1042ce: 42 86        	mv	a2, a6
  1042d0: ce 85        	mv	a1, s3
  1042d2: 3a 85        	mv	a0, a4
  1042d4: ef 50 a0 1e  	jal	0x1094be <__divdf3>
  1042d8: 2a c8        	sw	a0, 16(sp)
  1042da: ae 89        	mv	s3, a1
  1042dc: c2 57        	lw	a5, 48(sp)
  1042de: 63 84 07 1a  	beqz	a5, 0x104486 <_dtoa_r+0x500>
  1042e2: 42 47        	lw	a4, 16(sp)
  1042e4: 03 a6 81 82  	lw	a2, -2008(gp)
  1042e8: 83 a6 c1 82  	lw	a3, -2004(gp)
  1042ec: 3a 85        	mv	a0, a4
  1042ee: ce 85        	mv	a1, s3
  1042f0: 3a da        	sw	a4, 52(sp)
  1042f2: 4e d2        	sw	s3, 36(sp)
  1042f4: ef 50 10 1a  	jal	0x109c94 <__ltdf2>
  1042f8: 63 57 05 18  	bgez	a0, 0x104486 <_dtoa_r+0x500>
  1042fc: 63 88 0b 18  	beqz	s7, 0x10448c <_dtoa_r+0x506>
  104300: a2 47        	lw	a5, 8(sp)
  104302: 63 5d f0 08  	blez	a5, 0x10439c <_dtoa_r+0x416>
  104306: 52 57        	lw	a4, 52(sp)
  104308: 03 a6 01 83  	lw	a2, -2000(gp)
  10430c: 83 a6 41 83  	lw	a3, -1996(gp)
  104310: 3a 85        	mv	a0, a4
  104312: ce 85        	mv	a1, s3
  104314: ef 50 f0 22  	jal	0x109d42 <__muldf3>
  104318: 22 47        	lw	a4, 8(sp)
  10431a: 93 8d f4 ff  	addi	s11, s1, -1
  10431e: 2a c8        	sw	a0, 16(sp)
  104320: ae 89        	mv	s3, a1
  104322: 05 0a        	addi	s4, s4, 1
  104324: 42 48        	lw	a6, 16(sp)
  104326: 52 85        	mv	a0, s4
  104328: ba c0        	sw	a4, 64(sp)
  10432a: 42 de        	sw	a6, 60(sp)
  10432c: 4e d2        	sw	s3, 36(sp)
  10432e: 4e da        	sw	s3, 52(sp)
  104330: ef 60 50 23  	jal	0x10ad64 <__floatsidf>
  104334: 72 58        	lw	a6, 60(sp)
  104336: ce 86        	mv	a3, s3
  104338: 42 86        	mv	a2, a6
  10433a: ef 50 90 20  	jal	0x109d42 <__muldf3>
  10433e: 03 a6 81 83  	lw	a2, -1992(gp)
  104342: 83 a6 c1 83  	lw	a3, -1988(gp)
  104346: ef 40 f0 0c  	jal	0x108c14 <__adddf3>
  10434a: 06 47        	lw	a4, 64(sp)
  10434c: 37 03 c0 fc  	lui	t1, 1035264
  104350: 2e 93        	add	t1, t1, a1
  104352: 63 10 07 14  	bnez	a4, 0x104492 <_dtoa_r+0x50c>
  104356: 72 58        	lw	a6, 60(sp)
  104358: 03 a6 01 84  	lw	a2, -1984(gp)
  10435c: 83 a6 41 84  	lw	a3, -1980(gp)
  104360: 2a d2        	sw	a0, 36(sp)
  104362: ce 85        	mv	a1, s3
  104364: 42 85        	mv	a0, a6
  104366: 1a c8        	sw	t1, 16(sp)
  104368: ef 50 10 77  	jal	0x10a2d8 <__subdf3>
  10436c: 92 58        	lw	a7, 36(sp)
  10436e: 42 43        	lw	t1, 16(sp)
  104370: 2a 8a        	mv	s4, a0
  104372: 46 86        	mv	a2, a7
  104374: 9a 86        	mv	a3, t1
  104376: ae 89        	mv	s3, a1
  104378: ef 50 f0 06  	jal	0x109be6 <__gtdf2>
  10437c: 63 44 a0 58  	bgtz	a0, 0x104904 <_dtoa_r+0x97e>
  104380: 42 43        	lw	t1, 16(sp)
  104382: 92 58        	lw	a7, 36(sp)
  104384: b7 07 00 80  	lui	a5, 524288
  104388: b3 c7 67 00  	xor	a5, a5, t1
  10438c: 46 86        	mv	a2, a7
  10438e: be 86        	mv	a3, a5
  104390: 52 85        	mv	a0, s4
  104392: ce 85        	mv	a1, s3
  104394: ef 50 10 10  	jal	0x109c94 <__ltdf2>
  104398: 63 43 05 56  	bltz	a0, 0x1048fe <_dtoa_r+0x978>
  10439c: a2 57        	lw	a5, 40(sp)
  10439e: b2 59        	lw	s3, 44(sp)
  1043a0: 3e c8        	sw	a5, 16(sp)
  1043a2: 36 57        	lw	a4, 108(sp)
  1043a4: 63 45 07 34  	bltz	a4, 0x1046ee <_dtoa_r+0x768>
  1043a8: b9 47        	li	a5, 14
  1043aa: 63 c2 97 34  	blt	a5, s1, 0x1046ee <_dtoa_r+0x768>
  1043ae: 93 97 34 00  	slli	a5, s1, 3
  1043b2: 13 87 81 cb  	addi	a4, gp, -840
  1043b6: ba 97        	add	a5, a5, a4
  1043b8: 03 ac 07 00  	lw	s8, 0(a5)
  1043bc: 83 ac 47 00  	lw	s9, 4(a5)
  1043c0: e2 47        	lw	a5, 24(sp)
  1043c2: 63 d4 07 24  	bgez	a5, 0x10460a <_dtoa_r+0x684>
  1043c6: 63 42 70 25  	bgtz	s7, 0x10460a <_dtoa_r+0x684>
  1043ca: 63 9a 0b 52  	bnez	s7, 0x1048fe <_dtoa_r+0x978>
  1043ce: 03 a6 01 84  	lw	a2, -1984(gp)
  1043d2: 83 a6 41 84  	lw	a3, -1980(gp)
  1043d6: 62 85        	mv	a0, s8
  1043d8: e6 85        	mv	a1, s9
  1043da: ef 50 90 16  	jal	0x109d42 <__muldf3>
  1043de: 42 47        	lw	a4, 16(sp)
  1043e0: ce 86        	mv	a3, s3
  1043e2: 01 4b        	li	s6, 0
  1043e4: 3a 86        	mv	a2, a4
  1043e6: ef 50 10 00  	jal	0x109be6 <__gtdf2>
  1043ea: 01 4a        	li	s4, 0
  1043ec: 63 54 05 4e  	bgez	a0, 0x1048d4 <_dtoa_r+0x94e>
  1043f0: 93 07 10 03  	li	a5, 49
  1043f4: 93 89 1a 00  	addi	s3, s5, 1
  1043f8: 23 80 fa 00  	sb	a5, 0(s5)
  1043fc: 85 04        	addi	s1, s1, 1
  1043fe: f9 a9        	j	0x1048dc <_dtoa_r+0x956>
  104400: 93 f6 17 00  	andi	a3, a5, 1
  104404: 91 ce        	beqz	a3, 0x104420 <_dtoa_r+0x49a>
  104406: 03 a6 0d 00  	lw	a2, 0(s11)
  10440a: 83 a6 4d 00  	lw	a3, 4(s11)
  10440e: 42 85        	mv	a0, a6
  104410: ba 85        	mv	a1, a4
  104412: 3e d2        	sw	a5, 36(sp)
  104414: ef 50 f0 12  	jal	0x109d42 <__muldf3>
  104418: 92 57        	lw	a5, 36(sp)
  10441a: 05 0a        	addi	s4, s4, 1
  10441c: 2a 88        	mv	a6, a0
  10441e: 2e 87        	mv	a4, a1
  104420: 85 87        	srai	a5, a5, 1
  104422: a1 0d        	addi	s11, s11, 8
  104424: 4d b5        	j	0x1042c6 <_dtoa_r+0x340>
  104426: 09 4a        	li	s4, 2
  104428: e3 8a 04 ea  	beqz	s1, 0x1042dc <_dtoa_r+0x356>
  10442c: b3 0d 90 40  	neg	s11, s1
  104430: 93 f7 fd 00  	andi	a5, s11, 15
  104434: 13 87 81 cb  	addi	a4, gp, -840
  104438: 8e 07        	slli	a5, a5, 3
  10443a: ba 97        	add	a5, a5, a4
  10443c: d4 43        	lw	a3, 4(a5)
  10443e: 90 43        	lw	a2, 0(a5)
  104440: 22 55        	lw	a0, 40(sp)
  104442: b2 55        	lw	a1, 44(sp)
  104444: 93 dd 4d 40  	srai	s11, s11, 4
  104448: ef 50 b0 0f  	jal	0x109d42 <__muldf3>
  10444c: aa 87        	mv	a5, a0
  10444e: 2a c8        	sw	a0, 16(sp)
  104450: ae 89        	mv	s3, a1
  104452: 13 87 01 c9  	addi	a4, gp, -880
  104456: 81 46        	li	a3, 0
  104458: 63 96 0d 00  	bnez	s11, 0x104464 <_dtoa_r+0x4de>
  10445c: e3 80 06 e8  	beqz	a3, 0x1042dc <_dtoa_r+0x356>
  104460: 3e c8        	sw	a5, 16(sp)
  104462: a5 bd        	j	0x1042da <_dtoa_r+0x354>
  104464: 13 f6 1d 00  	andi	a2, s11, 1
  104468: 19 ca        	beqz	a2, 0x10447e <_dtoa_r+0x4f8>
  10446a: 54 43        	lw	a3, 4(a4)
  10446c: 10 43        	lw	a2, 0(a4)
  10446e: 3e 85        	mv	a0, a5
  104470: 3a d2        	sw	a4, 36(sp)
  104472: ef 50 10 0d  	jal	0x109d42 <__muldf3>
  104476: 12 57        	lw	a4, 36(sp)
  104478: 05 0a        	addi	s4, s4, 1
  10447a: aa 87        	mv	a5, a0
  10447c: 85 46        	li	a3, 1
  10447e: 93 dd 1d 40  	srai	s11, s11, 1
  104482: 21 07        	addi	a4, a4, 8
  104484: d1 bf        	j	0x104458 <_dtoa_r+0x4d2>
  104486: a6 8d        	mv	s11, s1
  104488: 5e 87        	mv	a4, s7
  10448a: 69 bd        	j	0x104324 <_dtoa_r+0x39e>
  10448c: a6 8d        	mv	s11, s1
  10448e: 01 47        	li	a4, 0
  104490: 51 bd        	j	0x104324 <_dtoa_r+0x39e>
  104492: 93 07 f7 ff  	addi	a5, a4, -1
  104496: 93 86 81 cb  	addi	a3, gp, -840
  10449a: 8e 07        	slli	a5, a5, 3
  10449c: b6 97        	add	a5, a5, a3
  10449e: 90 43        	lw	a2, 0(a5)
  1044a0: d4 43        	lw	a3, 4(a5)
  1044a2: b3 87 ea 00  	add	a5, s5, a4
  1044a6: 3e de        	sw	a5, 60(sp)
  1044a8: d2 47        	lw	a5, 20(sp)
  1044aa: 2a 8a        	mv	s4, a0
  1044ac: 9a 89        	mv	s3, t1
  1044ae: cd c7        	beqz	a5, 0x104558 <_dtoa_r+0x5d2>
  1044b0: 03 a5 81 84  	lw	a0, -1976(gp)
  1044b4: 83 a5 c1 84  	lw	a1, -1972(gp)
  1044b8: ef 50 60 00  	jal	0x1094be <__divdf3>
  1044bc: 52 86        	mv	a2, s4
  1044be: ce 86        	mv	a3, s3
  1044c0: ef 50 90 61  	jal	0x10a2d8 <__subdf3>
  1044c4: 03 a8 c1 82  	lw	a6, -2004(gp)
  1044c8: 83 a7 81 82  	lw	a5, -2008(gp)
  1044cc: 2a 8a        	mv	s4, a0
  1044ce: c2 c6        	sw	a6, 76(sp)
  1044d0: be c4        	sw	a5, 72(sp)
  1044d2: 03 a8 41 83  	lw	a6, -1996(gp)
  1044d6: 83 a7 01 83  	lw	a5, -2000(gp)
  1044da: 2e da        	sw	a1, 52(sp)
  1044dc: d6 89        	mv	s3, s5
  1044de: be c0        	sw	a5, 64(sp)
  1044e0: c2 c2        	sw	a6, 68(sp)
  1044e2: 92 55        	lw	a1, 36(sp)
  1044e4: 42 45        	lw	a0, 16(sp)
  1044e6: 85 09        	addi	s3, s3, 1
  1044e8: ef 60 20 72  	jal	0x10ac0a <__fixdfsi>
  1044ec: aa c8        	sw	a0, 80(sp)
  1044ee: ef 60 70 07  	jal	0x10ad64 <__floatsidf>
  1044f2: 2a 86        	mv	a2, a0
  1044f4: ae 86        	mv	a3, a1
  1044f6: 42 45        	lw	a0, 16(sp)
  1044f8: 92 55        	lw	a1, 36(sp)
  1044fa: ef 50 f0 5d  	jal	0x10a2d8 <__subdf3>
  1044fe: c6 47        	lw	a5, 80(sp)
  104500: d2 56        	lw	a3, 52(sp)
  104502: 52 86        	mv	a2, s4
  104504: 93 87 07 03  	addi	a5, a5, 48
  104508: a3 8f f9 fe  	sb	a5, -1(s3)
  10450c: 2a c8        	sw	a0, 16(sp)
  10450e: 2e d2        	sw	a1, 36(sp)
  104510: ef 50 40 78  	jal	0x109c94 <__ltdf2>
  104514: 63 42 05 0e  	bltz	a0, 0x1045f8 <_dtoa_r+0x672>
  104518: 42 46        	lw	a2, 16(sp)
  10451a: 92 56        	lw	a3, 36(sp)
  10451c: 26 45        	lw	a0, 72(sp)
  10451e: b6 45        	lw	a1, 76(sp)
  104520: ef 50 90 5b  	jal	0x10a2d8 <__subdf3>
  104524: d2 56        	lw	a3, 52(sp)
  104526: 52 86        	mv	a2, s4
  104528: ef 50 c0 76  	jal	0x109c94 <__ltdf2>
  10452c: 63 4e 05 16  	bltz	a0, 0x1046a8 <_dtoa_r+0x722>
  104530: f2 57        	lw	a5, 60(sp)
  104532: e3 85 f9 e6  	beq	s3, a5, 0x10439c <_dtoa_r+0x416>
  104536: 06 46        	lw	a2, 64(sp)
  104538: 96 46        	lw	a3, 68(sp)
  10453a: d2 55        	lw	a1, 52(sp)
  10453c: 52 85        	mv	a0, s4
  10453e: ef 50 50 00  	jal	0x109d42 <__muldf3>
  104542: 2e da        	sw	a1, 52(sp)
  104544: 06 46        	lw	a2, 64(sp)
  104546: 92 55        	lw	a1, 36(sp)
  104548: 96 46        	lw	a3, 68(sp)
  10454a: 2a 8a        	mv	s4, a0
  10454c: 42 45        	lw	a0, 16(sp)
  10454e: ef 50 40 7f  	jal	0x109d42 <__muldf3>
  104552: 2a c8        	sw	a0, 16(sp)
  104554: 2e d2        	sw	a1, 36(sp)
  104556: 71 b7        	j	0x1044e2 <_dtoa_r+0x55c>
  104558: 9a 85        	mv	a1, t1
  10455a: ef 50 80 7e  	jal	0x109d42 <__muldf3>
  10455e: f2 57        	lw	a5, 60(sp)
  104560: aa c0        	sw	a0, 64(sp)
  104562: ae c4        	sw	a1, 72(sp)
  104564: 3e da        	sw	a5, 52(sp)
  104566: 03 a8 41 83  	lw	a6, -1996(gp)
  10456a: 83 a7 01 83  	lw	a5, -2000(gp)
  10456e: d6 89        	mv	s3, s5
  104570: c2 ca        	sw	a6, 84(sp)
  104572: be c8        	sw	a5, 80(sp)
  104574: 42 45        	lw	a0, 16(sp)
  104576: 92 55        	lw	a1, 36(sp)
  104578: 85 09        	addi	s3, s3, 1
  10457a: ef 60 00 69  	jal	0x10ac0a <__fixdfsi>
  10457e: aa ce        	sw	a0, 92(sp)
  104580: ef 60 40 7e  	jal	0x10ad64 <__floatsidf>
  104584: 2a 86        	mv	a2, a0
  104586: ae 86        	mv	a3, a1
  104588: 42 45        	lw	a0, 16(sp)
  10458a: 92 55        	lw	a1, 36(sp)
  10458c: ef 50 d0 54  	jal	0x10a2d8 <__subdf3>
  104590: f6 47        	lw	a5, 92(sp)
  104592: 2e c8        	sw	a1, 16(sp)
  104594: 2a 8a        	mv	s4, a0
  104596: 93 87 07 03  	addi	a5, a5, 48
  10459a: a3 8f f9 fe  	sb	a5, -1(s3)
  10459e: f2 57        	lw	a5, 60(sp)
  1045a0: 63 9e f9 04  	bne	s3, a5, 0x1045fc <_dtoa_r+0x676>
  1045a4: 03 a6 81 84  	lw	a2, -1976(gp)
  1045a8: 83 a6 c1 84  	lw	a3, -1972(gp)
  1045ac: 06 45        	lw	a0, 64(sp)
  1045ae: a6 45        	lw	a1, 72(sp)
  1045b0: ef 40 40 66  	jal	0x108c14 <__adddf3>
  1045b4: ae 86        	mv	a3, a1
  1045b6: c2 45        	lw	a1, 16(sp)
  1045b8: 2a 86        	mv	a2, a0
  1045ba: 52 85        	mv	a0, s4
  1045bc: ef 50 a0 62  	jal	0x109be6 <__gtdf2>
  1045c0: 63 44 a0 0e  	bgtz	a0, 0x1046a8 <_dtoa_r+0x722>
  1045c4: 06 46        	lw	a2, 64(sp)
  1045c6: a6 46        	lw	a3, 72(sp)
  1045c8: 03 a5 81 84  	lw	a0, -1976(gp)
  1045cc: 83 a5 c1 84  	lw	a1, -1972(gp)
  1045d0: ef 50 90 50  	jal	0x10a2d8 <__subdf3>
  1045d4: ae 86        	mv	a3, a1
  1045d6: c2 45        	lw	a1, 16(sp)
  1045d8: 2a 86        	mv	a2, a0
  1045da: 52 85        	mv	a0, s4
  1045dc: ef 50 80 6b  	jal	0x109c94 <__ltdf2>
  1045e0: e3 5e 05 da  	bgez	a0, 0x10439c <_dtoa_r+0x416>
  1045e4: 93 07 00 03  	li	a5, 48
  1045e8: d2 59        	lw	s3, 52(sp)
  1045ea: 13 87 f9 ff  	addi	a4, s3, -1
  1045ee: 3a da        	sw	a4, 52(sp)
  1045f0: 03 c7 f9 ff  	lbu	a4, -1(s3)
  1045f4: e3 0a f7 fe  	beq	a4, a5, 0x1045e8 <_dtoa_r+0x662>
  1045f8: ee 84        	mv	s1, s11
  1045fa: 79 a0        	j	0x104688 <_dtoa_r+0x702>
  1045fc: 46 46        	lw	a2, 80(sp)
  1045fe: d6 46        	lw	a3, 84(sp)
  104600: ef 50 20 74  	jal	0x109d42 <__muldf3>
  104604: 2a c8        	sw	a0, 16(sp)
  104606: 2e d2        	sw	a1, 36(sp)
  104608: b5 b7        	j	0x104574 <_dtoa_r+0x5ee>
  10460a: 42 47        	lw	a4, 16(sp)
  10460c: 83 a7 01 83  	lw	a5, -2000(gp)
  104610: 03 a8 41 83  	lw	a6, -1996(gp)
  104614: ba 8d        	mv	s11, a4
  104616: 4e 8d        	mv	s10, s3
  104618: 13 8b 1a 00  	addi	s6, s5, 1
  10461c: d6 9b        	add	s7, s7, s5
  10461e: 3e c4        	sw	a5, 8(sp)
  104620: 42 c6        	sw	a6, 12(sp)
  104622: 62 86        	mv	a2, s8
  104624: e6 86        	mv	a3, s9
  104626: 6e 85        	mv	a0, s11
  104628: ea 85        	mv	a1, s10
  10462a: ef 40 50 69  	jal	0x1094be <__divdf3>
  10462e: ef 60 c0 5d  	jal	0x10ac0a <__fixdfsi>
  104632: 2a 8a        	mv	s4, a0
  104634: ef 60 00 73  	jal	0x10ad64 <__floatsidf>
  104638: 62 86        	mv	a2, s8
  10463a: e6 86        	mv	a3, s9
  10463c: ef 50 60 70  	jal	0x109d42 <__muldf3>
  104640: ae 86        	mv	a3, a1
  104642: 2a 86        	mv	a2, a0
  104644: ea 85        	mv	a1, s10
  104646: 6e 85        	mv	a0, s11
  104648: ef 50 10 49  	jal	0x10a2d8 <__subdf3>
  10464c: 93 06 0a 03  	addi	a3, s4, 48
  104650: a3 0f db fe  	sb	a3, -1(s6)
  104654: da 89        	mv	s3, s6
  104656: 63 9f 6b 07  	bne	s7, s6, 0x1046d4 <_dtoa_r+0x74e>
  10465a: 2a 86        	mv	a2, a0
  10465c: ae 86        	mv	a3, a1
  10465e: ef 40 60 5b  	jal	0x108c14 <__adddf3>
  104662: 62 86        	mv	a2, s8
  104664: e6 86        	mv	a3, s9
  104666: aa 8b        	mv	s7, a0
  104668: 2e 8b        	mv	s6, a1
  10466a: ef 50 c0 57  	jal	0x109be6 <__gtdf2>
  10466e: 63 4c a0 02  	bgtz	a0, 0x1046a6 <_dtoa_r+0x720>
  104672: 62 86        	mv	a2, s8
  104674: e6 86        	mv	a3, s9
  104676: 5e 85        	mv	a0, s7
  104678: da 85        	mv	a1, s6
  10467a: ef 50 80 4c  	jal	0x109b42 <__nedf2>
  10467e: 09 e5        	bnez	a0, 0x104688 <_dtoa_r+0x702>
  104680: 13 7a 1a 00  	andi	s4, s4, 1
  104684: 63 11 0a 02  	bnez	s4, 0x1046a6 <_dtoa_r+0x720>
  104688: a2 85        	mv	a1, s0
  10468a: 4a 85        	mv	a0, s2
  10468c: ef 00 20 61  	jal	0x104c9e <_Bfree>
  104690: e2 57        	lw	a5, 56(sp)
  104692: 23 80 09 00  	sb	zero, 0(s3)
  104696: 85 04        	addi	s1, s1, 1
  104698: 84 c3        	sw	s1, 0(a5)
  10469a: f2 47        	lw	a5, 28(sp)
  10469c: 63 8c 07 44  	beqz	a5, 0x104af4 <_dtoa_r+0xb6e>
  1046a0: 23 a0 37 01  	sw	s3, 0(a5)
  1046a4: 81 a9        	j	0x104af4 <_dtoa_r+0xb6e>
  1046a6: a6 8d        	mv	s11, s1
  1046a8: ce 87        	mv	a5, s3
  1046aa: 13 07 90 03  	li	a4, 57
  1046ae: be 89        	mv	s3, a5
  1046b0: 83 c6 f7 ff  	lbu	a3, -1(a5)
  1046b4: fd 17        	addi	a5, a5, -1
  1046b6: 63 99 e6 00  	bne	a3, a4, 0x1046c8 <_dtoa_r+0x742>
  1046ba: e3 9a fa fe  	bne	s5, a5, 0x1046ae <_dtoa_r+0x728>
  1046be: 13 07 00 03  	li	a4, 48
  1046c2: 85 0d        	addi	s11, s11, 1
  1046c4: 23 80 ea 00  	sb	a4, 0(s5)
  1046c8: 03 c7 07 00  	lbu	a4, 0(a5)
  1046cc: 05 07        	addi	a4, a4, 1
  1046ce: 23 80 e7 00  	sb	a4, 0(a5)
  1046d2: 1d b7        	j	0x1045f8 <_dtoa_r+0x672>
  1046d4: 22 46        	lw	a2, 8(sp)
  1046d6: b2 46        	lw	a3, 12(sp)
  1046d8: 05 0b        	addi	s6, s6, 1
  1046da: ef 50 80 66  	jal	0x109d42 <__muldf3>
  1046de: 01 46        	li	a2, 0
  1046e0: 81 46        	li	a3, 0
  1046e2: aa 8d        	mv	s11, a0
  1046e4: 2e 8d        	mv	s10, a1
  1046e6: ef 50 c0 45  	jal	0x109b42 <__nedf2>
  1046ea: 05 fd        	bnez	a0, 0x104622 <_dtoa_r+0x69c>
  1046ec: 71 bf        	j	0x104688 <_dtoa_r+0x702>
  1046ee: d2 47        	lw	a5, 20(sp)
  1046f0: 63 8e 07 0e  	beqz	a5, 0x1047ec <_dtoa_r+0x866>
  1046f4: 85 47        	li	a5, 1
  1046f6: 63 c4 a7 0d  	blt	a5, s10, 0x1047be <_dtoa_r+0x838>
  1046fa: e6 47        	lw	a5, 88(sp)
  1046fc: 13 07 37 43  	addi	a4, a4, 1075
  104700: 89 e7        	bnez	a5, 0x10470a <_dtoa_r+0x784>
  104702: a6 57        	lw	a5, 104(sp)
  104704: 13 07 60 03  	li	a4, 54
  104708: 1d 8f        	sub	a4, a4, a5
  10470a: da 87        	mv	a5, s6
  10470c: e2 8d        	mv	s11, s8
  10470e: 85 45        	li	a1, 1
  104710: 4a 85        	mv	a0, s2
  104712: 3e d2        	sw	a5, 36(sp)
  104714: 3a 9c        	add	s8, s8, a4
  104716: ba 9c        	add	s9, s9, a4
  104718: ef 00 30 00  	jal	0x104f1a <__i2b>
  10471c: 92 57        	lw	a5, 36(sp)
  10471e: 2a 8a        	mv	s4, a0
  104720: 63 5e b0 01  	blez	s11, 0x10473c <_dtoa_r+0x7b6>
  104724: 63 5c 90 01  	blez	s9, 0x10473c <_dtoa_r+0x7b6>
  104728: 6e 87        	mv	a4, s11
  10472a: 63 d3 bc 01  	bge	s9, s11, 0x104730 <_dtoa_r+0x7aa>
  10472e: 66 87        	mv	a4, s9
  104730: 33 0c ec 40  	sub	s8, s8, a4
  104734: b3 8d ed 40  	sub	s11, s11, a4
  104738: b3 8c ec 40  	sub	s9, s9, a4
  10473c: 63 02 0b 04  	beqz	s6, 0x104780 <_dtoa_r+0x7fa>
  104740: 52 47        	lw	a4, 20(sp)
  104742: 4d cb        	beqz	a4, 0x1047f4 <_dtoa_r+0x86e>
  104744: 63 55 f0 02  	blez	a5, 0x10476e <_dtoa_r+0x7e8>
  104748: 3e 86        	mv	a2, a5
  10474a: d2 85        	mv	a1, s4
  10474c: 4a 85        	mv	a0, s2
  10474e: 3e d4        	sw	a5, 40(sp)
  104750: ef 00 30 17  	jal	0x1050c2 <__pow5mult>
  104754: 22 86        	mv	a2, s0
  104756: aa 85        	mv	a1, a0
  104758: 2a 8a        	mv	s4, a0
  10475a: 4a 85        	mv	a0, s2
  10475c: ef 00 e0 7e  	jal	0x104f4a <__multiply>
  104760: 2a d2        	sw	a0, 36(sp)
  104762: a2 85        	mv	a1, s0
  104764: 4a 85        	mv	a0, s2
  104766: 25 2b        	jal	0x104c9e <_Bfree>
  104768: 12 57        	lw	a4, 36(sp)
  10476a: a2 57        	lw	a5, 40(sp)
  10476c: 3a 84        	mv	s0, a4
  10476e: 33 06 fb 40  	sub	a2, s6, a5
  104772: 63 07 fb 00  	beq	s6, a5, 0x104780 <_dtoa_r+0x7fa>
  104776: a2 85        	mv	a1, s0
  104778: 4a 85        	mv	a0, s2
  10477a: ef 00 90 14  	jal	0x1050c2 <__pow5mult>
  10477e: 2a 84        	mv	s0, a0
  104780: 85 45        	li	a1, 1
  104782: 4a 85        	mv	a0, s2
  104784: ef 00 60 79  	jal	0x104f1a <__i2b>
  104788: 82 57        	lw	a5, 32(sp)
  10478a: 2a 8b        	mv	s6, a0
  10478c: 63 56 f0 06  	blez	a5, 0x1047f8 <_dtoa_r+0x872>
  104790: 3e 86        	mv	a2, a5
  104792: aa 85        	mv	a1, a0
  104794: 4a 85        	mv	a0, s2
  104796: ef 00 d0 12  	jal	0x1050c2 <__pow5mult>
  10479a: 85 47        	li	a5, 1
  10479c: 2a 8b        	mv	s6, a0
  10479e: 63 d1 a7 07  	bge	a5, s10, 0x104800 <_dtoa_r+0x87a>
  1047a2: 02 d2        	sw	zero, 36(sp)
  1047a4: 83 27 0b 01  	lw	a5, 16(s6)
  1047a8: 8d 07        	addi	a5, a5, 3
  1047aa: 8a 07        	slli	a5, a5, 2
  1047ac: da 97        	add	a5, a5, s6
  1047ae: c8 43        	lw	a0, 4(a5)
  1047b0: ef 00 a0 6b  	jal	0x104e6a <__hi0bits>
  1047b4: 93 07 00 02  	li	a5, 32
  1047b8: 33 85 a7 40  	sub	a0, a5, a0
  1047bc: ad a0        	j	0x104826 <_dtoa_r+0x8a0>
  1047be: 93 87 fb ff  	addi	a5, s7, -1
  1047c2: 63 4a fb 00  	blt	s6, a5, 0x1047d6 <_dtoa_r+0x850>
  1047c6: b3 07 fb 40  	sub	a5, s6, a5
  1047ca: 63 de 0b 00  	bgez	s7, 0x1047e6 <_dtoa_r+0x860>
  1047ce: b3 0d 7c 41  	sub	s11, s8, s7
  1047d2: 01 47        	li	a4, 0
  1047d4: 2d bf        	j	0x10470e <_dtoa_r+0x788>
  1047d6: 02 57        	lw	a4, 32(sp)
  1047d8: 33 8b 67 41  	sub	s6, a5, s6
  1047dc: 5a 97        	add	a4, a4, s6
  1047de: 3a d0        	sw	a4, 32(sp)
  1047e0: 3e 8b        	mv	s6, a5
  1047e2: 81 47        	li	a5, 0
  1047e4: dd b7        	j	0x1047ca <_dtoa_r+0x844>
  1047e6: e2 8d        	mv	s11, s8
  1047e8: 5e 87        	mv	a4, s7
  1047ea: 15 b7        	j	0x10470e <_dtoa_r+0x788>
  1047ec: da 87        	mv	a5, s6
  1047ee: e2 8d        	mv	s11, s8
  1047f0: 01 4a        	li	s4, 0
  1047f2: 3d b7        	j	0x104720 <_dtoa_r+0x79a>
  1047f4: 5a 86        	mv	a2, s6
  1047f6: 41 b7        	j	0x104776 <_dtoa_r+0x7f0>
  1047f8: 85 47        	li	a5, 1
  1047fa: 02 d2        	sw	zero, 36(sp)
  1047fc: 63 c2 a7 03  	blt	a5, s10, 0x104820 <_dtoa_r+0x89a>
  104800: c2 47        	lw	a5, 16(sp)
  104802: 02 d2        	sw	zero, 36(sp)
  104804: 91 ef        	bnez	a5, 0x104820 <_dtoa_r+0x89a>
  104806: 93 97 c9 00  	slli	a5, s3, 12
  10480a: 99 eb        	bnez	a5, 0x104820 <_dtoa_r+0x89a>
  10480c: b7 05 f0 7f  	lui	a1, 524032
  104810: b3 f9 b9 00  	and	s3, s3, a1
  104814: 63 86 09 00  	beqz	s3, 0x104820 <_dtoa_r+0x89a>
  104818: 85 47        	li	a5, 1
  10481a: 05 0c        	addi	s8, s8, 1
  10481c: 85 0c        	addi	s9, s9, 1
  10481e: 3e d2        	sw	a5, 36(sp)
  104820: 82 57        	lw	a5, 32(sp)
  104822: 05 45        	li	a0, 1
  104824: c1 f3        	bnez	a5, 0x1047a4 <_dtoa_r+0x81e>
  104826: 66 95        	add	a0, a0, s9
  104828: 7d 89        	andi	a0, a0, 31
  10482a: 3d cd        	beqz	a0, 0x1048a8 <_dtoa_r+0x922>
  10482c: 93 07 00 02  	li	a5, 32
  104830: 89 8f        	sub	a5, a5, a0
  104832: 11 47        	li	a4, 4
  104834: 63 57 f7 06  	bge	a4, a5, 0x1048a2 <_dtoa_r+0x91c>
  104838: f1 47        	li	a5, 28
  10483a: 33 85 a7 40  	sub	a0, a5, a0
  10483e: 2a 9c        	add	s8, s8, a0
  104840: aa 9d        	add	s11, s11, a0
  104842: aa 9c        	add	s9, s9, a0
  104844: 63 58 80 01  	blez	s8, 0x104854 <_dtoa_r+0x8ce>
  104848: a2 85        	mv	a1, s0
  10484a: 62 86        	mv	a2, s8
  10484c: 4a 85        	mv	a0, s2
  10484e: ef 00 30 14  	jal	0x105190 <__lshift>
  104852: 2a 84        	mv	s0, a0
  104854: 63 58 90 01  	blez	s9, 0x104864 <_dtoa_r+0x8de>
  104858: da 85        	mv	a1, s6
  10485a: 66 86        	mv	a2, s9
  10485c: 4a 85        	mv	a0, s2
  10485e: ef 00 30 13  	jal	0x105190 <__lshift>
  104862: 2a 8b        	mv	s6, a0
  104864: c2 57        	lw	a5, 48(sp)
  104866: b9 c3        	beqz	a5, 0x1048ac <_dtoa_r+0x926>
  104868: da 85        	mv	a1, s6
  10486a: 22 85        	mv	a0, s0
  10486c: ef 00 10 22  	jal	0x10528c <__mcmp>
  104870: 63 5e 05 02  	bgez	a0, 0x1048ac <_dtoa_r+0x926>
  104874: a2 85        	mv	a1, s0
  104876: 81 46        	li	a3, 0
  104878: 29 46        	li	a2, 10
  10487a: 4a 85        	mv	a0, s2
  10487c: b5 29        	jal	0x104cf8 <__multadd>
  10487e: d2 47        	lw	a5, 20(sp)
  104880: fd 14        	addi	s1, s1, -1
  104882: 2a 84        	mv	s0, a0
  104884: 63 88 07 28  	beqz	a5, 0x104b14 <_dtoa_r+0xb8e>
  104888: d2 85        	mv	a1, s4
  10488a: 81 46        	li	a3, 0
  10488c: 29 46        	li	a2, 10
  10488e: 4a 85        	mv	a0, s2
  104890: a5 21        	jal	0x104cf8 <__multadd>
  104892: a2 47        	lw	a5, 8(sp)
  104894: 2a 8a        	mv	s4, a0
  104896: 63 4f f0 06  	bgtz	a5, 0x104914 <_dtoa_r+0x98e>
  10489a: 89 47        	li	a5, 2
  10489c: 63 ce a7 01  	blt	a5, s10, 0x1048b8 <_dtoa_r+0x932>
  1048a0: 95 a8        	j	0x104914 <_dtoa_r+0x98e>
  1048a2: e3 81 e7 fa  	beq	a5, a4, 0x104844 <_dtoa_r+0x8be>
  1048a6: 3e 85        	mv	a0, a5
  1048a8: 71 05        	addi	a0, a0, 28
  1048aa: 51 bf        	j	0x10483e <_dtoa_r+0x8b8>
  1048ac: 63 40 70 07  	bgtz	s7, 0x10490c <_dtoa_r+0x986>
  1048b0: 89 47        	li	a5, 2
  1048b2: 63 dd a7 05  	bge	a5, s10, 0x10490c <_dtoa_r+0x986>
  1048b6: 5e c4        	sw	s7, 8(sp)
  1048b8: a2 47        	lw	a5, 8(sp)
  1048ba: 89 ef        	bnez	a5, 0x1048d4 <_dtoa_r+0x94e>
  1048bc: da 85        	mv	a1, s6
  1048be: 81 46        	li	a3, 0
  1048c0: 15 46        	li	a2, 5
  1048c2: 4a 85        	mv	a0, s2
  1048c4: 15 29        	jal	0x104cf8 <__multadd>
  1048c6: 2a 8b        	mv	s6, a0
  1048c8: aa 85        	mv	a1, a0
  1048ca: 22 85        	mv	a0, s0
  1048cc: ef 00 10 1c  	jal	0x10528c <__mcmp>
  1048d0: e3 40 a0 b2  	bgtz	a0, 0x1043f0 <_dtoa_r+0x46a>
  1048d4: e2 47        	lw	a5, 24(sp)
  1048d6: d6 89        	mv	s3, s5
  1048d8: 93 c4 f7 ff  	not	s1, a5
  1048dc: 01 4c        	li	s8, 0
  1048de: da 85        	mv	a1, s6
  1048e0: 4a 85        	mv	a0, s2
  1048e2: 75 2e        	jal	0x104c9e <_Bfree>
  1048e4: e3 02 0a da  	beqz	s4, 0x104688 <_dtoa_r+0x702>
  1048e8: 63 07 0c 00  	beqz	s8, 0x1048f6 <_dtoa_r+0x970>
  1048ec: 63 05 4c 01  	beq	s8, s4, 0x1048f6 <_dtoa_r+0x970>
  1048f0: e2 85        	mv	a1, s8
  1048f2: 4a 85        	mv	a0, s2
  1048f4: 6d 26        	jal	0x104c9e <_Bfree>
  1048f6: d2 85        	mv	a1, s4
  1048f8: 4a 85        	mv	a0, s2
  1048fa: 55 26        	jal	0x104c9e <_Bfree>
  1048fc: 71 b3        	j	0x104688 <_dtoa_r+0x702>
  1048fe: 01 4b        	li	s6, 0
  104900: 01 4a        	li	s4, 0
  104902: c9 bf        	j	0x1048d4 <_dtoa_r+0x94e>
  104904: ee 84        	mv	s1, s11
  104906: 01 4b        	li	s6, 0
  104908: 01 4a        	li	s4, 0
  10490a: dd b4        	j	0x1043f0 <_dtoa_r+0x46a>
  10490c: d2 47        	lw	a5, 20(sp)
  10490e: 5e c4        	sw	s7, 8(sp)
  104910: 63 88 07 20  	beqz	a5, 0x104b20 <_dtoa_r+0xb9a>
  104914: 63 58 b0 01  	blez	s11, 0x104924 <_dtoa_r+0x99e>
  104918: d2 85        	mv	a1, s4
  10491a: 6e 86        	mv	a2, s11
  10491c: 4a 85        	mv	a0, s2
  10491e: ef 00 30 07  	jal	0x105190 <__lshift>
  104922: 2a 8a        	mv	s4, a0
  104924: 92 57        	lw	a5, 36(sp)
  104926: 52 85        	mv	a0, s4
  104928: 85 cf        	beqz	a5, 0x104960 <_dtoa_r+0x9da>
  10492a: 83 25 4a 00  	lw	a1, 4(s4)
  10492e: 4a 85        	mv	a0, s2
  104930: e1 24        	jal	0x104bf8 <_Balloc>
  104932: aa 89        	mv	s3, a0
  104934: 01 e9        	bnez	a0, 0x104944 <_dtoa_r+0x9be>
  104936: 93 86 c1 c0  	addi	a3, gp, -1012
  10493a: 01 46        	li	a2, 0
  10493c: 93 05 a0 2e  	li	a1, 746
  104940: 6f f0 0f e9  	j	0x103fd0 <_dtoa_r+0x4a>
  104944: 03 26 0a 01  	lw	a2, 16(s4)
  104948: 93 05 ca 00  	addi	a1, s4, 12
  10494c: 31 05        	addi	a0, a0, 12
  10494e: 09 06        	addi	a2, a2, 2
  104950: 0a 06        	slli	a2, a2, 2
  104952: ef f0 2f b7  	jal	0x103cc4 <memcpy>
  104956: 05 46        	li	a2, 1
  104958: ce 85        	mv	a1, s3
  10495a: 4a 85        	mv	a0, s2
  10495c: ef 00 50 03  	jal	0x105190 <__lshift>
  104960: a2 47        	lw	a5, 8(sp)
  104962: 52 8c        	mv	s8, s4
  104964: 93 8b 1a 00  	addi	s7, s5, 1
  104968: d6 97        	add	a5, a5, s5
  10496a: 3e cc        	sw	a5, 24(sp)
  10496c: c2 47        	lw	a5, 16(sp)
  10496e: 2a 8a        	mv	s4, a0
  104970: 85 8b        	andi	a5, a5, 1
  104972: 3e ca        	sw	a5, 20(sp)
  104974: 93 87 fb ff  	addi	a5, s7, -1
  104978: da 85        	mv	a1, s6
  10497a: 22 85        	mv	a0, s0
  10497c: 3e c4        	sw	a5, 8(sp)
  10497e: ef f0 cf cd  	jal	0x103e5a <quorem>
  104982: 2a c8        	sw	a0, 16(sp)
  104984: e2 85        	mv	a1, s8
  104986: 93 0c 05 03  	addi	s9, a0, 48
  10498a: 22 85        	mv	a0, s0
  10498c: ef 00 10 10  	jal	0x10528c <__mcmp>
  104990: da 85        	mv	a1, s6
  104992: aa 8d        	mv	s11, a0
  104994: 52 86        	mv	a2, s4
  104996: 4a 85        	mv	a0, s2
  104998: ef 00 b0 12  	jal	0x1052c2 <__mdiff>
  10499c: 54 45        	lw	a3, 12(a0)
  10499e: aa 85        	mv	a1, a0
  1049a0: 05 47        	li	a4, 1
  1049a2: 99 e6        	bnez	a3, 0x1049b0 <_dtoa_r+0xa2a>
  1049a4: 2a d0        	sw	a0, 32(sp)
  1049a6: 22 85        	mv	a0, s0
  1049a8: ef 00 50 0e  	jal	0x10528c <__mcmp>
  1049ac: 82 55        	lw	a1, 32(sp)
  1049ae: 2a 87        	mv	a4, a0
  1049b0: 4a 85        	mv	a0, s2
  1049b2: 3a d0        	sw	a4, 32(sp)
  1049b4: ed 24        	jal	0x104c9e <_Bfree>
  1049b6: 02 57        	lw	a4, 32(sp)
  1049b8: d2 47        	lw	a5, 20(sp)
  1049ba: de 89        	mv	s3, s7
  1049bc: b3 66 ed 00  	or	a3, s10, a4
  1049c0: dd 8e        	or	a3, a3, a5
  1049c2: 91 ee        	bnez	a3, 0x1049de <_dtoa_r+0xa58>
  1049c4: 13 07 90 03  	li	a4, 57
  1049c8: 63 89 ec 04  	beq	s9, a4, 0x104a1a <_dtoa_r+0xa94>
  1049cc: 63 55 b0 01  	blez	s11, 0x1049d6 <_dtoa_r+0xa50>
  1049d0: c2 47        	lw	a5, 16(sp)
  1049d2: 93 8c 17 03  	addi	s9, a5, 49
  1049d6: a2 47        	lw	a5, 8(sp)
  1049d8: 23 80 97 01  	sb	s9, 0(a5)
  1049dc: 09 b7        	j	0x1048de <_dtoa_r+0x958>
  1049de: 63 c9 0d 00  	bltz	s11, 0x1049f0 <_dtoa_r+0xa6a>
  1049e2: d2 47        	lw	a5, 20(sp)
  1049e4: b3 6d bd 01  	or	s11, s10, s11
  1049e8: b3 ed fd 00  	or	s11, s11, a5
  1049ec: 63 99 0d 04  	bnez	s11, 0x104a3e <_dtoa_r+0xab8>
  1049f0: e3 53 e0 fe  	blez	a4, 0x1049d6 <_dtoa_r+0xa50>
  1049f4: a2 85        	mv	a1, s0
  1049f6: 05 46        	li	a2, 1
  1049f8: 4a 85        	mv	a0, s2
  1049fa: ef 00 60 79  	jal	0x105190 <__lshift>
  1049fe: da 85        	mv	a1, s6
  104a00: 2a 84        	mv	s0, a0
  104a02: ef 00 b0 08  	jal	0x10528c <__mcmp>
  104a06: 63 46 a0 00  	bgtz	a0, 0x104a12 <_dtoa_r+0xa8c>
  104a0a: 71 f5        	bnez	a0, 0x1049d6 <_dtoa_r+0xa50>
  104a0c: 13 f7 1c 00  	andi	a4, s9, 1
  104a10: 79 d3        	beqz	a4, 0x1049d6 <_dtoa_r+0xa50>
  104a12: 13 07 90 03  	li	a4, 57
  104a16: e3 9d ec fa  	bne	s9, a4, 0x1049d0 <_dtoa_r+0xa4a>
  104a1a: 22 47        	lw	a4, 8(sp)
  104a1c: 93 07 90 03  	li	a5, 57
  104a20: 23 00 f7 00  	sb	a5, 0(a4)
  104a24: ce 87        	mv	a5, s3
  104a26: 93 06 90 03  	li	a3, 57
  104a2a: be 89        	mv	s3, a5
  104a2c: 03 c7 f9 ff  	lbu	a4, -1(s3)
  104a30: fd 17        	addi	a5, a5, -1
  104a32: 63 01 d7 0a  	beq	a4, a3, 0x104ad4 <_dtoa_r+0xb4e>
  104a36: 05 07        	addi	a4, a4, 1
  104a38: 23 80 e7 00  	sb	a4, 0(a5)
  104a3c: 4d b5        	j	0x1048de <_dtoa_r+0x958>
  104a3e: 63 5c e0 00  	blez	a4, 0x104a56 <_dtoa_r+0xad0>
  104a42: 13 07 90 03  	li	a4, 57
  104a46: e3 8a ec fc  	beq	s9, a4, 0x104a1a <_dtoa_r+0xa94>
  104a4a: 22 47        	lw	a4, 8(sp)
  104a4c: 93 87 1c 00  	addi	a5, s9, 1
  104a50: 23 00 f7 00  	sb	a5, 0(a4)
  104a54: 69 b5        	j	0x1048de <_dtoa_r+0x958>
  104a56: e2 47        	lw	a5, 24(sp)
  104a58: a3 8f 9b ff  	sb	s9, -1(s7)
  104a5c: 63 83 77 05  	beq	a5, s7, 0x104aa2 <_dtoa_r+0xb1c>
  104a60: a2 85        	mv	a1, s0
  104a62: 81 46        	li	a3, 0
  104a64: 29 46        	li	a2, 10
  104a66: 4a 85        	mv	a0, s2
  104a68: 41 2c        	jal	0x104cf8 <__multadd>
  104a6a: 2a 84        	mv	s0, a0
  104a6c: 81 46        	li	a3, 0
  104a6e: 29 46        	li	a2, 10
  104a70: e2 85        	mv	a1, s8
  104a72: 4a 85        	mv	a0, s2
  104a74: 63 17 4c 01  	bne	s8, s4, 0x104a82 <_dtoa_r+0xafc>
  104a78: 41 24        	jal	0x104cf8 <__multadd>
  104a7a: 2a 8c        	mv	s8, a0
  104a7c: 2a 8a        	mv	s4, a0
  104a7e: 85 0b        	addi	s7, s7, 1
  104a80: d5 bd        	j	0x104974 <_dtoa_r+0x9ee>
  104a82: 9d 2c        	jal	0x104cf8 <__multadd>
  104a84: d2 85        	mv	a1, s4
  104a86: 2a 8c        	mv	s8, a0
  104a88: 81 46        	li	a3, 0
  104a8a: 29 46        	li	a2, 10
  104a8c: 4a 85        	mv	a0, s2
  104a8e: ad 24        	jal	0x104cf8 <__multadd>
  104a90: 2a 8a        	mv	s4, a0
  104a92: f5 b7        	j	0x104a7e <_dtoa_r+0xaf8>
  104a94: a2 47        	lw	a5, 8(sp)
  104a96: 85 49        	li	s3, 1
  104a98: 63 53 f0 00  	blez	a5, 0x104a9e <_dtoa_r+0xb18>
  104a9c: be 89        	mv	s3, a5
  104a9e: d6 99        	add	s3, s3, s5
  104aa0: 01 4c        	li	s8, 0
  104aa2: a2 85        	mv	a1, s0
  104aa4: 05 46        	li	a2, 1
  104aa6: 4a 85        	mv	a0, s2
  104aa8: ef 00 80 6e  	jal	0x105190 <__lshift>
  104aac: da 85        	mv	a1, s6
  104aae: 2a 84        	mv	s0, a0
  104ab0: ef 00 c0 7d  	jal	0x10528c <__mcmp>
  104ab4: e3 48 a0 f6  	bgtz	a0, 0x104a24 <_dtoa_r+0xa9e>
  104ab8: 01 e5        	bnez	a0, 0x104ac0 <_dtoa_r+0xb3a>
  104aba: 93 f7 1c 00  	andi	a5, s9, 1
  104abe: bd f3        	bnez	a5, 0x104a24 <_dtoa_r+0xa9e>
  104ac0: ce 87        	mv	a5, s3
  104ac2: 13 07 00 03  	li	a4, 48
  104ac6: be 89        	mv	s3, a5
  104ac8: 83 c6 f7 ff  	lbu	a3, -1(a5)
  104acc: fd 17        	addi	a5, a5, -1
  104ace: e3 8c e6 fe  	beq	a3, a4, 0x104ac6 <_dtoa_r+0xb40>
  104ad2: 31 b5        	j	0x1048de <_dtoa_r+0x958>
  104ad4: e3 9b fa f4  	bne	s5, a5, 0x104a2a <_dtoa_r+0xaa4>
  104ad8: 93 07 10 03  	li	a5, 49
  104adc: 85 04        	addi	s1, s1, 1
  104ade: 23 80 fa 00  	sb	a5, 0(s5)
  104ae2: f5 bb        	j	0x1048de <_dtoa_r+0x958>
  104ae4: f2 47        	lw	a5, 28(sp)
  104ae6: 93 8a 41 b7  	addi	s5, gp, -1164
  104aea: 89 c7        	beqz	a5, 0x104af4 <_dtoa_r+0xb6e>
  104aec: 93 87 c1 b7  	addi	a5, gp, -1156
  104af0: 72 47        	lw	a4, 28(sp)
  104af2: 1c c3        	sw	a5, 0(a4)
  104af4: ba 50        	lw	ra, 172(sp)
  104af6: 2a 54        	lw	s0, 168(sp)
  104af8: 9a 54        	lw	s1, 164(sp)
  104afa: 0a 59        	lw	s2, 160(sp)
  104afc: fa 49        	lw	s3, 156(sp)
  104afe: 6a 4a        	lw	s4, 152(sp)
  104b00: 4a 4b        	lw	s6, 144(sp)
  104b02: ba 4b        	lw	s7, 140(sp)
  104b04: 2a 4c        	lw	s8, 136(sp)
  104b06: 9a 4c        	lw	s9, 132(sp)
  104b08: 0a 4d        	lw	s10, 128(sp)
  104b0a: f6 5d        	lw	s11, 124(sp)
  104b0c: 56 85        	mv	a0, s5
  104b0e: da 4a        	lw	s5, 148(sp)
  104b10: 4d 61        	addi	sp, sp, 176
  104b12: 82 80        	ret
  104b14: a2 47        	lw	a5, 8(sp)
  104b16: 63 45 f0 00  	bgtz	a5, 0x104b20 <_dtoa_r+0xb9a>
  104b1a: 89 47        	li	a5, 2
  104b1c: e3 ce a7 d9  	blt	a5, s10, 0x1048b8 <_dtoa_r+0x932>
  104b20: 81 49        	li	s3, 0
  104b22: da 85        	mv	a1, s6
  104b24: 22 85        	mv	a0, s0
  104b26: ef f0 4f b3  	jal	0x103e5a <quorem>
  104b2a: a2 47        	lw	a5, 8(sp)
  104b2c: 33 87 3a 01  	add	a4, s5, s3
  104b30: 93 0c 05 03  	addi	s9, a0, 48
  104b34: 23 00 97 01  	sb	s9, 0(a4)
  104b38: 85 09        	addi	s3, s3, 1
  104b3a: e3 dd f9 f4  	bge	s3, a5, 0x104a94 <_dtoa_r+0xb0e>
  104b3e: a2 85        	mv	a1, s0
  104b40: 81 46        	li	a3, 0
  104b42: 29 46        	li	a2, 10
  104b44: 4a 85        	mv	a0, s2
  104b46: 4d 2a        	jal	0x104cf8 <__multadd>
  104b48: 2a 84        	mv	s0, a0
  104b4a: e1 bf        	j	0x104b22 <_dtoa_r+0xb9c>

00104b4c <_free_r>:
  104b4c: cd c5        	beqz	a1, 0x104bf6 <_free_r+0xaa>
  104b4e: 83 a7 c5 ff  	lw	a5, -4(a1)
  104b52: 01 11        	addi	sp, sp, -32
  104b54: 22 cc        	sw	s0, 24(sp)
  104b56: 06 ce        	sw	ra, 28(sp)
  104b58: 13 84 c5 ff  	addi	s0, a1, -4
  104b5c: 63 d3 07 00  	bgez	a5, 0x104b62 <_free_r+0x16>
  104b60: 3e 94        	add	s0, s0, a5
  104b62: 2a c6        	sw	a0, 12(sp)
  104b64: ef c0 cf c1  	jal	0x100f80 <__malloc_lock>
  104b68: 37 c7 10 00  	lui	a4, 268
  104b6c: 83 27 47 88  	lw	a5, -1916(a4)
  104b70: 32 45        	lw	a0, 12(sp)
  104b72: 3a 86        	mv	a2, a4
  104b74: 91 eb        	bnez	a5, 0x104b88 <_free_r+0x3c>
  104b76: 23 22 04 00  	sw	zero, 4(s0)
  104b7a: 23 22 87 88  	sw	s0, -1916(a4)
  104b7e: 62 44        	lw	s0, 24(sp)
  104b80: f2 40        	lw	ra, 28(sp)
  104b82: 05 61        	addi	sp, sp, 32
  104b84: 6f c0 ef bf  	j	0x100f82 <__malloc_unlock>
  104b88: 63 7f f4 00  	bgeu	s0, a5, 0x104ba6 <_free_r+0x5a>
  104b8c: 14 40        	lw	a3, 0(s0)
  104b8e: 33 07 d4 00  	add	a4, s0, a3
  104b92: 63 96 e7 00  	bne	a5, a4, 0x104b9e <_free_r+0x52>
  104b96: 98 43        	lw	a4, 0(a5)
  104b98: dc 43        	lw	a5, 4(a5)
  104b9a: 36 97        	add	a4, a4, a3
  104b9c: 18 c0        	sw	a4, 0(s0)
  104b9e: 5c c0        	sw	a5, 4(s0)
  104ba0: 23 22 86 88  	sw	s0, -1916(a2)
  104ba4: e9 bf        	j	0x104b7e <_free_r+0x32>
  104ba6: 3e 87        	mv	a4, a5
  104ba8: dc 43        	lw	a5, 4(a5)
  104baa: 99 c3        	beqz	a5, 0x104bb0 <_free_r+0x64>
  104bac: e3 7d f4 fe  	bgeu	s0, a5, 0x104ba6 <_free_r+0x5a>
  104bb0: 14 43        	lw	a3, 0(a4)
  104bb2: 33 06 d7 00  	add	a2, a4, a3
  104bb6: 63 1f 86 00  	bne	a2, s0, 0x104bd4 <_free_r+0x88>
  104bba: 10 40        	lw	a2, 0(s0)
  104bbc: b2 96        	add	a3, a3, a2
  104bbe: 14 c3        	sw	a3, 0(a4)
  104bc0: 33 06 d7 00  	add	a2, a4, a3
  104bc4: e3 9d c7 fa  	bne	a5, a2, 0x104b7e <_free_r+0x32>
  104bc8: 90 43        	lw	a2, 0(a5)
  104bca: dc 43        	lw	a5, 4(a5)
  104bcc: b2 96        	add	a3, a3, a2
  104bce: 14 c3        	sw	a3, 0(a4)
  104bd0: 5c c3        	sw	a5, 4(a4)
  104bd2: 75 b7        	j	0x104b7e <_free_r+0x32>
  104bd4: 63 75 c4 00  	bgeu	s0, a2, 0x104bde <_free_r+0x92>
  104bd8: b1 47        	li	a5, 12
  104bda: 1c c1        	sw	a5, 0(a0)
  104bdc: 4d b7        	j	0x104b7e <_free_r+0x32>
  104bde: 10 40        	lw	a2, 0(s0)
  104be0: b3 06 c4 00  	add	a3, s0, a2
  104be4: 63 96 d7 00  	bne	a5, a3, 0x104bf0 <_free_r+0xa4>
  104be8: 94 43        	lw	a3, 0(a5)
  104bea: dc 43        	lw	a5, 4(a5)
  104bec: b2 96        	add	a3, a3, a2
  104bee: 14 c0        	sw	a3, 0(s0)
  104bf0: 5c c0        	sw	a5, 4(s0)
  104bf2: 40 c3        	sw	s0, 4(a4)
  104bf4: 69 b7        	j	0x104b7e <_free_r+0x32>
  104bf6: 82 80        	ret

00104bf8 <_Balloc>:
  104bf8: 5c 51        	lw	a5, 36(a0)
  104bfa: 41 11        	addi	sp, sp, -16
  104bfc: 22 c4        	sw	s0, 8(sp)
  104bfe: 26 c2        	sw	s1, 4(sp)
  104c00: 06 c6        	sw	ra, 12(sp)
  104c02: 4a c0        	sw	s2, 0(sp)
  104c04: 2a 84        	mv	s0, a0
  104c06: ae 84        	mv	s1, a1
  104c08: 9d e7        	bnez	a5, 0x104c36 <_Balloc+0x3e>
  104c0a: 41 45        	li	a0, 16
  104c0c: ef c0 0f 9f  	jal	0x100dfc <malloc>
  104c10: 48 d0        	sw	a0, 36(s0)
  104c12: 11 e9        	bnez	a0, 0x104c26 <_Balloc+0x2e>
  104c14: 93 86 41 b8  	addi	a3, gp, -1148
  104c18: 01 46        	li	a2, 0
  104c1a: 93 05 60 06  	li	a1, 102
  104c1e: 13 85 01 c2  	addi	a0, gp, -992
  104c22: ef 20 90 7c  	jal	0x107bea <__assert_func>
  104c26: 23 22 05 00  	sw	zero, 4(a0)
  104c2a: 23 24 05 00  	sw	zero, 8(a0)
  104c2e: 23 20 05 00  	sw	zero, 0(a0)
  104c32: 23 26 05 00  	sw	zero, 12(a0)
  104c36: 03 29 44 02  	lw	s2, 36(s0)
  104c3a: 83 27 c9 00  	lw	a5, 12(s2)
  104c3e: 9d c7        	beqz	a5, 0x104c6c <_Balloc+0x74>
  104c40: 58 50        	lw	a4, 36(s0)
  104c42: 93 97 24 00  	slli	a5, s1, 2
  104c46: 58 47        	lw	a4, 12(a4)
  104c48: ba 97        	add	a5, a5, a4
  104c4a: 88 43        	lw	a0, 0(a5)
  104c4c: 31 e1        	bnez	a0, 0x104c90 <_Balloc+0x98>
  104c4e: 05 49        	li	s2, 1
  104c50: 33 19 99 00  	sll	s2, s2, s1
  104c54: 13 06 59 00  	addi	a2, s2, 5
  104c58: 0a 06        	slli	a2, a2, 2
  104c5a: 85 45        	li	a1, 1
  104c5c: 22 85        	mv	a0, s0
  104c5e: ef c0 8f 96  	jal	0x100dc6 <_calloc_r>
  104c62: 05 c1        	beqz	a0, 0x104c82 <_Balloc+0x8a>
  104c64: 44 c1        	sw	s1, 4(a0)
  104c66: 23 24 25 01  	sw	s2, 8(a0)
  104c6a: 2d a0        	j	0x104c94 <_Balloc+0x9c>
  104c6c: 13 06 10 02  	li	a2, 33
  104c70: 91 45        	li	a1, 4
  104c72: 22 85        	mv	a0, s0
  104c74: ef c0 2f 95  	jal	0x100dc6 <_calloc_r>
  104c78: 5c 50        	lw	a5, 36(s0)
  104c7a: 23 26 a9 00  	sw	a0, 12(s2)
  104c7e: dc 47        	lw	a5, 12(a5)
  104c80: e1 f3        	bnez	a5, 0x104c40 <_Balloc+0x48>
  104c82: 01 45        	li	a0, 0
  104c84: b2 40        	lw	ra, 12(sp)
  104c86: 22 44        	lw	s0, 8(sp)
  104c88: 92 44        	lw	s1, 4(sp)
  104c8a: 02 49        	lw	s2, 0(sp)
  104c8c: 41 01        	addi	sp, sp, 16
  104c8e: 82 80        	ret
  104c90: 18 41        	lw	a4, 0(a0)
  104c92: 98 c3        	sw	a4, 0(a5)
  104c94: 23 28 05 00  	sw	zero, 16(a0)
  104c98: 23 26 05 00  	sw	zero, 12(a0)
  104c9c: e5 b7        	j	0x104c84 <_Balloc+0x8c>

00104c9e <_Bfree>:
  104c9e: 5c 51        	lw	a5, 36(a0)
  104ca0: 41 11        	addi	sp, sp, -16
  104ca2: 22 c4        	sw	s0, 8(sp)
  104ca4: 26 c2        	sw	s1, 4(sp)
  104ca6: 06 c6        	sw	ra, 12(sp)
  104ca8: aa 84        	mv	s1, a0
  104caa: 2e 84        	mv	s0, a1
  104cac: 9d e7        	bnez	a5, 0x104cda <_Bfree+0x3c>
  104cae: 41 45        	li	a0, 16
  104cb0: ef c0 cf 94  	jal	0x100dfc <malloc>
  104cb4: c8 d0        	sw	a0, 36(s1)
  104cb6: 11 e9        	bnez	a0, 0x104cca <_Bfree+0x2c>
  104cb8: 93 86 41 b8  	addi	a3, gp, -1148
  104cbc: 01 46        	li	a2, 0
  104cbe: 93 05 a0 08  	li	a1, 138
  104cc2: 13 85 01 c2  	addi	a0, gp, -992
  104cc6: ef 20 50 72  	jal	0x107bea <__assert_func>
  104cca: 23 22 05 00  	sw	zero, 4(a0)
  104cce: 23 24 05 00  	sw	zero, 8(a0)
  104cd2: 23 20 05 00  	sw	zero, 0(a0)
  104cd6: 23 26 05 00  	sw	zero, 12(a0)
  104cda: 11 c8        	beqz	s0, 0x104cee <_Bfree+0x50>
  104cdc: d4 50        	lw	a3, 36(s1)
  104cde: 5c 40        	lw	a5, 4(s0)
  104ce0: 13 97 27 00  	slli	a4, a5, 2
  104ce4: dc 46        	lw	a5, 12(a3)
  104ce6: ba 97        	add	a5, a5, a4
  104ce8: 98 43        	lw	a4, 0(a5)
  104cea: 18 c0        	sw	a4, 0(s0)
  104cec: 80 c3        	sw	s0, 0(a5)
  104cee: b2 40        	lw	ra, 12(sp)
  104cf0: 22 44        	lw	s0, 8(sp)
  104cf2: 92 44        	lw	s1, 4(sp)
  104cf4: 41 01        	addi	sp, sp, 16
  104cf6: 82 80        	ret

00104cf8 <__multadd>:
  104cf8: 01 11        	addi	sp, sp, -32
  104cfa: 22 cc        	sw	s0, 24(sp)
  104cfc: 4a c8        	sw	s2, 16(sp)
  104cfe: 4e c6        	sw	s3, 12(sp)
  104d00: 03 a9 05 01  	lw	s2, 16(a1)
  104d04: 2e 84        	mv	s0, a1
  104d06: b6 89        	mv	s3, a3
  104d08: 93 86 45 01  	addi	a3, a1, 20
  104d0c: c1 65        	lui	a1, 16
  104d0e: 26 ca        	sw	s1, 20(sp)
  104d10: 06 ce        	sw	ra, 28(sp)
  104d12: aa 84        	mv	s1, a0
  104d14: 52 c4        	sw	s4, 8(sp)
  104d16: 01 45        	li	a0, 0
  104d18: fd 15        	addi	a1, a1, -1
  104d1a: 9c 42        	lw	a5, 0(a3)
  104d1c: 91 06        	addi	a3, a3, 4
  104d1e: 05 05        	addi	a0, a0, 1
  104d20: 33 f7 b7 00  	and	a4, a5, a1
  104d24: 33 07 c7 02  	mul	a4, a4, a2
  104d28: c1 83        	srli	a5, a5, 16
  104d2a: b3 87 c7 02  	mul	a5, a5, a2
  104d2e: 4e 97        	add	a4, a4, s3
  104d30: 13 58 07 01  	srli	a6, a4, 16
  104d34: 6d 8f        	and	a4, a4, a1
  104d36: c2 97        	add	a5, a5, a6
  104d38: 93 d9 07 01  	srli	s3, a5, 16
  104d3c: c2 07        	slli	a5, a5, 16
  104d3e: ba 97        	add	a5, a5, a4
  104d40: 23 ae f6 fe  	sw	a5, -4(a3)
  104d44: e3 4b 25 fd  	blt	a0, s2, 0x104d1a <__multadd+0x22>
  104d48: 63 8b 09 04  	beqz	s3, 0x104d9e <__multadd+0xa6>
  104d4c: 1c 44        	lw	a5, 8(s0)
  104d4e: 63 4f f9 02  	blt	s2, a5, 0x104d8c <__multadd+0x94>
  104d52: 4c 40        	lw	a1, 4(s0)
  104d54: 26 85        	mv	a0, s1
  104d56: 85 05        	addi	a1, a1, 1
  104d58: ef f0 1f ea  	jal	0x104bf8 <_Balloc>
  104d5c: 2a 8a        	mv	s4, a0
  104d5e: 11 e9        	bnez	a0, 0x104d72 <__multadd+0x7a>
  104d60: 93 86 c1 c0  	addi	a3, gp, -1012
  104d64: 01 46        	li	a2, 0
  104d66: 93 05 50 0b  	li	a1, 181
  104d6a: 13 85 01 c2  	addi	a0, gp, -992
  104d6e: ef 20 d0 67  	jal	0x107bea <__assert_func>
  104d72: 10 48        	lw	a2, 16(s0)
  104d74: 93 05 c4 00  	addi	a1, s0, 12
  104d78: 31 05        	addi	a0, a0, 12
  104d7a: 09 06        	addi	a2, a2, 2
  104d7c: 0a 06        	slli	a2, a2, 2
  104d7e: ef e0 7f f4  	jal	0x103cc4 <memcpy>
  104d82: a2 85        	mv	a1, s0
  104d84: 26 85        	mv	a0, s1
  104d86: ef f0 9f f1  	jal	0x104c9e <_Bfree>
  104d8a: 52 84        	mv	s0, s4
  104d8c: 93 07 49 00  	addi	a5, s2, 4
  104d90: 8a 07        	slli	a5, a5, 2
  104d92: a2 97        	add	a5, a5, s0
  104d94: 23 a2 37 01  	sw	s3, 4(a5)
  104d98: 05 09        	addi	s2, s2, 1
  104d9a: 23 28 24 01  	sw	s2, 16(s0)
  104d9e: f2 40        	lw	ra, 28(sp)
  104da0: 22 85        	mv	a0, s0
  104da2: 62 44        	lw	s0, 24(sp)
  104da4: d2 44        	lw	s1, 20(sp)
  104da6: 42 49        	lw	s2, 16(sp)
  104da8: b2 49        	lw	s3, 12(sp)
  104daa: 22 4a        	lw	s4, 8(sp)
  104dac: 05 61        	addi	sp, sp, 32
  104dae: 82 80        	ret

00104db0 <__s2b>:
  104db0: 01 11        	addi	sp, sp, -32
  104db2: 52 c4        	sw	s4, 8(sp)
  104db4: 93 87 86 00  	addi	a5, a3, 8
  104db8: 3a 8a        	mv	s4, a4
  104dba: 25 47        	li	a4, 9
  104dbc: b3 c7 e7 02  	div	a5, a5, a4
  104dc0: 22 cc        	sw	s0, 24(sp)
  104dc2: 26 ca        	sw	s1, 20(sp)
  104dc4: 4a c8        	sw	s2, 16(sp)
  104dc6: 4e c6        	sw	s3, 12(sp)
  104dc8: 2e 84        	mv	s0, a1
  104dca: 06 ce        	sw	ra, 28(sp)
  104dcc: 56 c2        	sw	s5, 4(sp)
  104dce: 2a 89        	mv	s2, a0
  104dd0: b2 84        	mv	s1, a2
  104dd2: b6 89        	mv	s3, a3
  104dd4: 05 47        	li	a4, 1
  104dd6: 81 45        	li	a1, 0
  104dd8: 63 4f f7 00  	blt	a4, a5, 0x104df6 <__s2b+0x46>
  104ddc: 4a 85        	mv	a0, s2
  104dde: ef f0 bf e1  	jal	0x104bf8 <_Balloc>
  104de2: 09 ed        	bnez	a0, 0x104dfc <__s2b+0x4c>
  104de4: 93 86 c1 c0  	addi	a3, gp, -1012
  104de8: 01 46        	li	a2, 0
  104dea: 93 05 e0 0c  	li	a1, 206
  104dee: 13 85 01 c2  	addi	a0, gp, -992
  104df2: ef 20 90 5f  	jal	0x107bea <__assert_func>
  104df6: 06 07        	slli	a4, a4, 1
  104df8: 85 05        	addi	a1, a1, 1
  104dfa: f9 bf        	j	0x104dd8 <__s2b+0x28>
  104dfc: 85 47        	li	a5, 1
  104dfe: 1c c9        	sw	a5, 16(a0)
  104e00: 23 2a 45 01  	sw	s4, 20(a0)
  104e04: a5 47        	li	a5, 9
  104e06: 63 d1 97 04  	bge	a5, s1, 0x104e48 <__s2b+0x98>
  104e0a: 93 0a 94 00  	addi	s5, s0, 9
  104e0e: 56 8a        	mv	s4, s5
  104e10: 26 94        	add	s0, s0, s1
  104e12: 83 46 0a 00  	lbu	a3, 0(s4)
  104e16: 05 0a        	addi	s4, s4, 1
  104e18: aa 85        	mv	a1, a0
  104e1a: 93 86 06 fd  	addi	a3, a3, -48
  104e1e: 29 46        	li	a2, 10
  104e20: 4a 85        	mv	a0, s2
  104e22: ef f0 7f ed  	jal	0x104cf8 <__multadd>
  104e26: e3 16 8a fe  	bne	s4, s0, 0x104e12 <__s2b+0x62>
  104e2a: 13 84 84 ff  	addi	s0, s1, -8
  104e2e: 56 94        	add	s0, s0, s5
  104e30: 26 8a        	mv	s4, s1
  104e32: 63 4e 3a 01  	blt	s4, s3, 0x104e4e <__s2b+0x9e>
  104e36: f2 40        	lw	ra, 28(sp)
  104e38: 62 44        	lw	s0, 24(sp)
  104e3a: d2 44        	lw	s1, 20(sp)
  104e3c: 42 49        	lw	s2, 16(sp)
  104e3e: b2 49        	lw	s3, 12(sp)
  104e40: 22 4a        	lw	s4, 8(sp)
  104e42: 92 4a        	lw	s5, 4(sp)
  104e44: 05 61        	addi	sp, sp, 32
  104e46: 82 80        	ret
  104e48: 29 04        	addi	s0, s0, 10
  104e4a: a5 44        	li	s1, 9
  104e4c: d5 b7        	j	0x104e30 <__s2b+0x80>
  104e4e: b3 07 9a 40  	sub	a5, s4, s1
  104e52: a2 97        	add	a5, a5, s0
  104e54: 83 c6 07 00  	lbu	a3, 0(a5)
  104e58: aa 85        	mv	a1, a0
  104e5a: 29 46        	li	a2, 10
  104e5c: 93 86 06 fd  	addi	a3, a3, -48
  104e60: 4a 85        	mv	a0, s2
  104e62: ef f0 7f e9  	jal	0x104cf8 <__multadd>
  104e66: 05 0a        	addi	s4, s4, 1
  104e68: e9 b7        	j	0x104e32 <__s2b+0x82>

00104e6a <__hi0bits>:
  104e6a: 41 77        	lui	a4, 1048560
  104e6c: 69 8f        	and	a4, a4, a0
  104e6e: aa 87        	mv	a5, a0
  104e70: 01 45        	li	a0, 0
  104e72: 19 e3        	bnez	a4, 0x104e78 <__hi0bits+0xe>
  104e74: c2 07        	slli	a5, a5, 16
  104e76: 41 45        	li	a0, 16
  104e78: 37 07 00 ff  	lui	a4, 1044480
  104e7c: 7d 8f        	and	a4, a4, a5
  104e7e: 19 e3        	bnez	a4, 0x104e84 <__hi0bits+0x1a>
  104e80: 21 05        	addi	a0, a0, 8
  104e82: a2 07        	slli	a5, a5, 8
  104e84: 37 07 00 f0  	lui	a4, 983040
  104e88: 7d 8f        	and	a4, a4, a5
  104e8a: 19 e3        	bnez	a4, 0x104e90 <__hi0bits+0x26>
  104e8c: 11 05        	addi	a0, a0, 4
  104e8e: 92 07        	slli	a5, a5, 4
  104e90: 37 07 00 c0  	lui	a4, 786432
  104e94: 7d 8f        	and	a4, a4, a5
  104e96: 19 e3        	bnez	a4, 0x104e9c <__hi0bits+0x32>
  104e98: 09 05        	addi	a0, a0, 2
  104e9a: 8a 07        	slli	a5, a5, 2
  104e9c: 63 c9 07 00  	bltz	a5, 0x104eae <__hi0bits+0x44>
  104ea0: 37 07 00 40  	lui	a4, 262144
  104ea4: f9 8f        	and	a5, a5, a4
  104ea6: 05 05        	addi	a0, a0, 1
  104ea8: 99 e3        	bnez	a5, 0x104eae <__hi0bits+0x44>
  104eaa: 13 05 00 02  	li	a0, 32
  104eae: 82 80        	ret

00104eb0 <__lo0bits>:
  104eb0: 1c 41        	lw	a5, 0(a0)
  104eb2: 2a 87        	mv	a4, a0
  104eb4: 93 f6 77 00  	andi	a3, a5, 7
  104eb8: 85 c2        	beqz	a3, 0x104ed8 <__lo0bits+0x28>
  104eba: 93 f6 17 00  	andi	a3, a5, 1
  104ebe: 01 45        	li	a0, 0
  104ec0: a1 ee        	bnez	a3, 0x104f18 <__lo0bits+0x68>
  104ec2: 93 f6 27 00  	andi	a3, a5, 2
  104ec6: 89 c6        	beqz	a3, 0x104ed0 <__lo0bits+0x20>
  104ec8: 85 83        	srli	a5, a5, 1
  104eca: 1c c3        	sw	a5, 0(a4)
  104ecc: 05 45        	li	a0, 1
  104ece: 82 80        	ret
  104ed0: 89 83        	srli	a5, a5, 2
  104ed2: 1c c3        	sw	a5, 0(a4)
  104ed4: 09 45        	li	a0, 2
  104ed6: 82 80        	ret
  104ed8: 93 96 07 01  	slli	a3, a5, 16
  104edc: c1 82        	srli	a3, a3, 16
  104ede: 01 45        	li	a0, 0
  104ee0: 99 e2        	bnez	a3, 0x104ee6 <__lo0bits+0x36>
  104ee2: c1 83        	srli	a5, a5, 16
  104ee4: 41 45        	li	a0, 16
  104ee6: 93 f6 f7 0f  	andi	a3, a5, 255
  104eea: 99 e2        	bnez	a3, 0x104ef0 <__lo0bits+0x40>
  104eec: 21 05        	addi	a0, a0, 8
  104eee: a1 83        	srli	a5, a5, 8
  104ef0: 93 f6 f7 00  	andi	a3, a5, 15
  104ef4: 99 e2        	bnez	a3, 0x104efa <__lo0bits+0x4a>
  104ef6: 11 05        	addi	a0, a0, 4
  104ef8: 91 83        	srli	a5, a5, 4
  104efa: 93 f6 37 00  	andi	a3, a5, 3
  104efe: 99 e2        	bnez	a3, 0x104f04 <__lo0bits+0x54>
  104f00: 09 05        	addi	a0, a0, 2
  104f02: 89 83        	srli	a5, a5, 2
  104f04: 93 f6 17 00  	andi	a3, a5, 1
  104f08: 81 e6        	bnez	a3, 0x104f10 <__lo0bits+0x60>
  104f0a: 85 83        	srli	a5, a5, 1
  104f0c: 05 05        	addi	a0, a0, 1
  104f0e: 99 c3        	beqz	a5, 0x104f14 <__lo0bits+0x64>
  104f10: 1c c3        	sw	a5, 0(a4)
  104f12: 82 80        	ret
  104f14: 13 05 00 02  	li	a0, 32
  104f18: 82 80        	ret

00104f1a <__i2b>:
  104f1a: 41 11        	addi	sp, sp, -16
  104f1c: 22 c4        	sw	s0, 8(sp)
  104f1e: 2e 84        	mv	s0, a1
  104f20: 85 45        	li	a1, 1
  104f22: 06 c6        	sw	ra, 12(sp)
  104f24: ef f0 5f cd  	jal	0x104bf8 <_Balloc>
  104f28: 11 e9        	bnez	a0, 0x104f3c <__i2b+0x22>
  104f2a: 93 86 c1 c0  	addi	a3, gp, -1012
  104f2e: 01 46        	li	a2, 0
  104f30: 93 05 00 14  	li	a1, 320
  104f34: 13 85 01 c2  	addi	a0, gp, -992
  104f38: ef 20 30 4b  	jal	0x107bea <__assert_func>
  104f3c: b2 40        	lw	ra, 12(sp)
  104f3e: 40 c9        	sw	s0, 20(a0)
  104f40: 22 44        	lw	s0, 8(sp)
  104f42: 05 47        	li	a4, 1
  104f44: 18 c9        	sw	a4, 16(a0)
  104f46: 41 01        	addi	sp, sp, 16
  104f48: 82 80        	ret

00104f4a <__multiply>:
  104f4a: 98 49        	lw	a4, 16(a1)
  104f4c: 1c 4a        	lw	a5, 16(a2)
  104f4e: 01 11        	addi	sp, sp, -32
  104f50: 22 cc        	sw	s0, 24(sp)
  104f52: 4a c8        	sw	s2, 16(sp)
  104f54: 06 ce        	sw	ra, 28(sp)
  104f56: 26 ca        	sw	s1, 20(sp)
  104f58: 4e c6        	sw	s3, 12(sp)
  104f5a: 52 c4        	sw	s4, 8(sp)
  104f5c: 2e 84        	mv	s0, a1
  104f5e: 32 89        	mv	s2, a2
  104f60: 63 54 f7 00  	bge	a4, a5, 0x104f68 <__multiply+0x1e>
  104f64: 32 84        	mv	s0, a2
  104f66: 2e 89        	mv	s2, a1
  104f68: 03 2a 04 01  	lw	s4, 16(s0)
  104f6c: 83 29 09 01  	lw	s3, 16(s2)
  104f70: 1c 44        	lw	a5, 8(s0)
  104f72: 4c 40        	lw	a1, 4(s0)
  104f74: b3 04 3a 01  	add	s1, s4, s3
  104f78: 63 d3 97 00  	bge	a5, s1, 0x104f7e <__multiply+0x34>
  104f7c: 85 05        	addi	a1, a1, 1
  104f7e: ef f0 bf c7  	jal	0x104bf8 <_Balloc>
  104f82: 11 e9        	bnez	a0, 0x104f96 <__multiply+0x4c>
  104f84: 93 86 c1 c0  	addi	a3, gp, -1012
  104f88: 01 46        	li	a2, 0
  104f8a: 93 05 d0 15  	li	a1, 349
  104f8e: 13 85 01 c2  	addi	a0, gp, -992
  104f92: ef 20 90 45  	jal	0x107bea <__assert_func>
  104f96: 93 06 45 01  	addi	a3, a0, 20
  104f9a: 13 98 24 00  	slli	a6, s1, 2
  104f9e: 36 98        	add	a6, a6, a3
  104fa0: b6 87        	mv	a5, a3
  104fa2: 63 ea 07 05  	bltu	a5, a6, 0x104ff6 <__multiply+0xac>
  104fa6: 13 03 44 01  	addi	t1, s0, 20
  104faa: 93 15 2a 00  	slli	a1, s4, 2
  104fae: 13 06 49 01  	addi	a2, s2, 20
  104fb2: 93 98 29 00  	slli	a7, s3, 2
  104fb6: 9a 95        	add	a1, a1, t1
  104fb8: 93 07 54 01  	addi	a5, s0, 21
  104fbc: b2 98        	add	a7, a7, a2
  104fbe: 11 4e        	li	t3, 4
  104fc0: 63 e8 f5 00  	bltu	a1, a5, 0x104fd0 <__multiply+0x86>
  104fc4: 33 84 85 40  	sub	s0, a1, s0
  104fc8: 2d 14        	addi	s0, s0, -21
  104fca: 71 98        	andi	s0, s0, -4
  104fcc: 13 0e 44 00  	addi	t3, s0, 4
  104fd0: c1 6e        	lui	t4, 16
  104fd2: fd 1e        	addi	t4, t4, -1
  104fd4: 63 65 16 03  	bltu	a2, a7, 0x104ffe <__multiply+0xb4>
  104fd8: 63 56 90 00  	blez	s1, 0x104fe4 <__multiply+0x9a>
  104fdc: 83 27 c8 ff  	lw	a5, -4(a6)
  104fe0: 71 18        	addi	a6, a6, -4
  104fe2: f1 cf        	beqz	a5, 0x1050be <__multiply+0x174>
  104fe4: f2 40        	lw	ra, 28(sp)
  104fe6: 62 44        	lw	s0, 24(sp)
  104fe8: 04 c9        	sw	s1, 16(a0)
  104fea: 42 49        	lw	s2, 16(sp)
  104fec: d2 44        	lw	s1, 20(sp)
  104fee: b2 49        	lw	s3, 12(sp)
  104ff0: 22 4a        	lw	s4, 8(sp)
  104ff2: 05 61        	addi	sp, sp, 32
  104ff4: 82 80        	ret
  104ff6: 23 a0 07 00  	sw	zero, 0(a5)
  104ffa: 91 07        	addi	a5, a5, 4
  104ffc: 5d b7        	j	0x104fa2 <__multiply+0x58>
  104ffe: 83 2f 06 00  	lw	t6, 0(a2)
  105002: b3 ff df 01  	and	t6, t6, t4
  105006: 63 8b 0f 04  	beqz	t6, 0x10505c <__multiply+0x112>
  10500a: b6 83        	mv	t2, a3
  10500c: 9a 82        	mv	t0, t1
  10500e: 01 49        	li	s2, 0
  105010: 03 a7 02 00  	lw	a4, 0(t0)
  105014: 03 a4 03 00  	lw	s0, 0(t2)
  105018: 91 03        	addi	t2, t2, 4
  10501a: 33 7f d7 01  	and	t5, a4, t4
  10501e: 33 0f ff 03  	mul	t5, t5, t6
  105022: b3 77 d4 01  	and	a5, s0, t4
  105026: 41 80        	srli	s0, s0, 16
  105028: 91 02        	addi	t0, t0, 4
  10502a: 3e 9f        	add	t5, t5, a5
  10502c: 93 57 07 01  	srli	a5, a4, 16
  105030: b3 87 f7 03  	mul	a5, a5, t6
  105034: 4a 9f        	add	t5, t5, s2
  105036: 13 57 0f 01  	srli	a4, t5, 16
  10503a: 33 7f df 01  	and	t5, t5, t4
  10503e: a2 97        	add	a5, a5, s0
  105040: ba 97        	add	a5, a5, a4
  105042: 13 d9 07 01  	srli	s2, a5, 16
  105046: c2 07        	slli	a5, a5, 16
  105048: b3 e7 e7 01  	or	a5, a5, t5
  10504c: 23 ae f3 fe  	sw	a5, -4(t2)
  105050: e3 e0 b2 fc  	bltu	t0, a1, 0x105010 <__multiply+0xc6>
  105054: b3 87 c6 01  	add	a5, a3, t3
  105058: 23 a0 27 01  	sw	s2, 0(a5)
  10505c: 83 53 26 00  	lhu	t2, 2(a2)
  105060: 63 8c 03 04  	beqz	t2, 0x1050b8 <__multiply+0x16e>
  105064: 9c 42        	lw	a5, 0(a3)
  105066: b6 8f        	mv	t6, a3
  105068: 1a 8f        	mv	t5, t1
  10506a: 81 42        	li	t0, 0
  10506c: 03 27 0f 00  	lw	a4, 0(t5)
  105070: 03 d4 2f 00  	lhu	s0, 2(t6)
  105074: b3 f7 d7 01  	and	a5, a5, t4
  105078: 33 77 d7 01  	and	a4, a4, t4
  10507c: 33 07 77 02  	mul	a4, a4, t2
  105080: 91 0f        	addi	t6, t6, 4
  105082: 11 0f        	addi	t5, t5, 4
  105084: 22 97        	add	a4, a4, s0
  105086: 16 97        	add	a4, a4, t0
  105088: 93 12 07 01  	slli	t0, a4, 16
  10508c: b3 e7 f2 00  	or	a5, t0, a5
  105090: 23 ae ff fe  	sw	a5, -4(t6)
  105094: 83 57 ef ff  	lhu	a5, -2(t5)
  105098: 83 a2 0f 00  	lw	t0, 0(t6)
  10509c: 41 83        	srli	a4, a4, 16
  10509e: b3 87 77 02  	mul	a5, a5, t2
  1050a2: b3 f2 d2 01  	and	t0, t0, t4
  1050a6: 96 97        	add	a5, a5, t0
  1050a8: ba 97        	add	a5, a5, a4
  1050aa: 93 d2 07 01  	srli	t0, a5, 16
  1050ae: e3 6f bf fa  	bltu	t5, a1, 0x10506c <__multiply+0x122>
  1050b2: 33 87 c6 01  	add	a4, a3, t3
  1050b6: 1c c3        	sw	a5, 0(a4)
  1050b8: 11 06        	addi	a2, a2, 4
  1050ba: 91 06        	addi	a3, a3, 4
  1050bc: 21 bf        	j	0x104fd4 <__multiply+0x8a>
  1050be: fd 14        	addi	s1, s1, -1
  1050c0: 21 bf        	j	0x104fd8 <__multiply+0x8e>

001050c2 <__pow5mult>:
  1050c2: 01 11        	addi	sp, sp, -32
  1050c4: 26 ca        	sw	s1, 20(sp)
  1050c6: 4a c8        	sw	s2, 16(sp)
  1050c8: 4e c6        	sw	s3, 12(sp)
  1050ca: 06 ce        	sw	ra, 28(sp)
  1050cc: 22 cc        	sw	s0, 24(sp)
  1050ce: 52 c4        	sw	s4, 8(sp)
  1050d0: 93 77 36 00  	andi	a5, a2, 3
  1050d4: 2a 89        	mv	s2, a0
  1050d6: b2 84        	mv	s1, a2
  1050d8: ae 89        	mv	s3, a1
  1050da: 99 cb        	beqz	a5, 0x1050f0 <__pow5mult+0x2e>
  1050dc: fd 17        	addi	a5, a5, -1
  1050de: 13 87 81 da  	addi	a4, gp, -600
  1050e2: 8a 07        	slli	a5, a5, 2
  1050e4: ba 97        	add	a5, a5, a4
  1050e6: 90 43        	lw	a2, 0(a5)
  1050e8: 81 46        	li	a3, 0
  1050ea: ef f0 ff c0  	jal	0x104cf8 <__multadd>
  1050ee: aa 89        	mv	s3, a0
  1050f0: 89 84        	srai	s1, s1, 2
  1050f2: d1 c4        	beqz	s1, 0x10517e <__pow5mult+0xbc>
  1050f4: 83 27 49 02  	lw	a5, 36(s2)
  1050f8: 85 eb        	bnez	a5, 0x105128 <__pow5mult+0x66>
  1050fa: 41 45        	li	a0, 16
  1050fc: ef b0 1f d0  	jal	0x100dfc <malloc>
  105100: 23 22 a9 02  	sw	a0, 36(s2)
  105104: 11 e9        	bnez	a0, 0x105118 <__pow5mult+0x56>
  105106: 93 86 41 b8  	addi	a3, gp, -1148
  10510a: 01 46        	li	a2, 0
  10510c: 93 05 e0 1a  	li	a1, 430
  105110: 13 85 01 c2  	addi	a0, gp, -992
  105114: ef 20 70 2d  	jal	0x107bea <__assert_func>
  105118: 23 22 05 00  	sw	zero, 4(a0)
  10511c: 23 24 05 00  	sw	zero, 8(a0)
  105120: 23 20 05 00  	sw	zero, 0(a0)
  105124: 23 26 05 00  	sw	zero, 12(a0)
  105128: 03 2a 49 02  	lw	s4, 36(s2)
  10512c: 03 24 8a 00  	lw	s0, 8(s4)
  105130: 19 e8        	bnez	s0, 0x105146 <__pow5mult+0x84>
  105132: 93 05 10 27  	li	a1, 625
  105136: 4a 85        	mv	a0, s2
  105138: ef f0 3f de  	jal	0x104f1a <__i2b>
  10513c: 23 24 aa 00  	sw	a0, 8(s4)
  105140: 2a 84        	mv	s0, a0
  105142: 23 20 05 00  	sw	zero, 0(a0)
  105146: 93 f7 14 00  	andi	a5, s1, 1
  10514a: 81 cf        	beqz	a5, 0x105162 <__pow5mult+0xa0>
  10514c: ce 85        	mv	a1, s3
  10514e: 22 86        	mv	a2, s0
  105150: 4a 85        	mv	a0, s2
  105152: ef f0 9f df  	jal	0x104f4a <__multiply>
  105156: 2a 8a        	mv	s4, a0
  105158: ce 85        	mv	a1, s3
  10515a: 4a 85        	mv	a0, s2
  10515c: ef f0 3f b4  	jal	0x104c9e <_Bfree>
  105160: d2 89        	mv	s3, s4
  105162: 85 84        	srai	s1, s1, 1
  105164: 89 cc        	beqz	s1, 0x10517e <__pow5mult+0xbc>
  105166: 08 40        	lw	a0, 0(s0)
  105168: 09 e9        	bnez	a0, 0x10517a <__pow5mult+0xb8>
  10516a: 22 86        	mv	a2, s0
  10516c: a2 85        	mv	a1, s0
  10516e: 4a 85        	mv	a0, s2
  105170: ef f0 bf dd  	jal	0x104f4a <__multiply>
  105174: 08 c0        	sw	a0, 0(s0)
  105176: 23 20 05 00  	sw	zero, 0(a0)
  10517a: 2a 84        	mv	s0, a0
  10517c: e9 b7        	j	0x105146 <__pow5mult+0x84>
  10517e: f2 40        	lw	ra, 28(sp)
  105180: 62 44        	lw	s0, 24(sp)
  105182: d2 44        	lw	s1, 20(sp)
  105184: 42 49        	lw	s2, 16(sp)
  105186: 22 4a        	lw	s4, 8(sp)
  105188: 4e 85        	mv	a0, s3
  10518a: b2 49        	lw	s3, 12(sp)
  10518c: 05 61        	addi	sp, sp, 32
  10518e: 82 80        	ret

00105190 <__lshift>:
  105190: 01 11        	addi	sp, sp, -32
  105192: 22 cc        	sw	s0, 24(sp)
  105194: 2e 84        	mv	s0, a1
  105196: 5a c0        	sw	s6, 0(sp)
  105198: 03 2b 04 01  	lw	s6, 16(s0)
  10519c: 26 ca        	sw	s1, 20(sp)
  10519e: cc 41        	lw	a1, 4(a1)
  1051a0: 93 54 56 40  	srai	s1, a2, 5
  1051a4: 1c 44        	lw	a5, 8(s0)
  1051a6: 26 9b        	add	s6, s6, s1
  1051a8: 4a c8        	sw	s2, 16(sp)
  1051aa: 52 c4        	sw	s4, 8(sp)
  1051ac: 56 c2        	sw	s5, 4(sp)
  1051ae: 06 ce        	sw	ra, 28(sp)
  1051b0: 4e c6        	sw	s3, 12(sp)
  1051b2: aa 8a        	mv	s5, a0
  1051b4: 32 89        	mv	s2, a2
  1051b6: 13 0a 1b 00  	addi	s4, s6, 1
  1051ba: 63 c0 47 03  	blt	a5, s4, 0x1051da <__lshift+0x4a>
  1051be: 56 85        	mv	a0, s5
  1051c0: ef f0 9f a3  	jal	0x104bf8 <_Balloc>
  1051c4: aa 89        	mv	s3, a0
  1051c6: 09 ed        	bnez	a0, 0x1051e0 <__lshift+0x50>
  1051c8: 93 86 c1 c0  	addi	a3, gp, -1012
  1051cc: 01 46        	li	a2, 0
  1051ce: 93 05 90 1d  	li	a1, 473
  1051d2: 13 85 01 c2  	addi	a0, gp, -992
  1051d6: ef 20 50 21  	jal	0x107bea <__assert_func>
  1051da: 85 05        	addi	a1, a1, 1
  1051dc: 86 07        	slli	a5, a5, 1
  1051de: f1 bf        	j	0x1051ba <__lshift+0x2a>
  1051e0: 93 07 45 01  	addi	a5, a0, 20
  1051e4: be 86        	mv	a3, a5
  1051e6: 01 47        	li	a4, 0
  1051e8: 91 06        	addi	a3, a3, 4
  1051ea: 63 45 97 08  	blt	a4, s1, 0x105274 <__lshift+0xe4>
  1051ee: 63 d3 04 00  	bgez	s1, 0x1051f4 <__lshift+0x64>
  1051f2: 81 44        	li	s1, 0
  1051f4: 8a 04        	slli	s1, s1, 2
  1051f6: b3 86 97 00  	add	a3, a5, s1
  1051fa: 1c 48        	lw	a5, 16(s0)
  1051fc: 13 07 44 01  	addi	a4, s0, 20
  105200: 13 76 f9 01  	andi	a2, s2, 31
  105204: 8a 07        	slli	a5, a5, 2
  105206: ba 97        	add	a5, a5, a4
  105208: 35 ca        	beqz	a2, 0x10527c <__lshift+0xec>
  10520a: 13 08 00 02  	li	a6, 32
  10520e: 33 08 c8 40  	sub	a6, a6, a2
  105212: b6 88        	mv	a7, a3
  105214: 81 45        	li	a1, 0
  105216: 08 43        	lw	a0, 0(a4)
  105218: 91 08        	addi	a7, a7, 4
  10521a: 11 07        	addi	a4, a4, 4
  10521c: 33 15 c5 00  	sll	a0, a0, a2
  105220: c9 8d        	or	a1, a1, a0
  105222: 23 ae b8 fe  	sw	a1, -4(a7)
  105226: 83 25 c7 ff  	lw	a1, -4(a4)
  10522a: b3 d5 05 01  	srl	a1, a1, a6
  10522e: e3 64 f7 fe  	bltu	a4, a5, 0x105216 <__lshift+0x86>
  105232: 13 07 54 01  	addi	a4, s0, 21
  105236: 11 46        	li	a2, 4
  105238: 63 e7 e7 00  	bltu	a5, a4, 0x105246 <__lshift+0xb6>
  10523c: 81 8f        	sub	a5, a5, s0
  10523e: ad 17        	addi	a5, a5, -21
  105240: f1 9b        	andi	a5, a5, -4
  105242: 13 86 47 00  	addi	a2, a5, 4
  105246: b2 96        	add	a3, a3, a2
  105248: 8c c2        	sw	a1, 0(a3)
  10524a: 99 c1        	beqz	a1, 0x105250 <__lshift+0xc0>
  10524c: 13 0a 2b 00  	addi	s4, s6, 2
  105250: 7d 1a        	addi	s4, s4, -1
  105252: 23 a8 49 01  	sw	s4, 16(s3)
  105256: 56 85        	mv	a0, s5
  105258: a2 85        	mv	a1, s0
  10525a: ef f0 5f a4  	jal	0x104c9e <_Bfree>
  10525e: f2 40        	lw	ra, 28(sp)
  105260: 62 44        	lw	s0, 24(sp)
  105262: d2 44        	lw	s1, 20(sp)
  105264: 42 49        	lw	s2, 16(sp)
  105266: 22 4a        	lw	s4, 8(sp)
  105268: 92 4a        	lw	s5, 4(sp)
  10526a: 02 4b        	lw	s6, 0(sp)
  10526c: 4e 85        	mv	a0, s3
  10526e: b2 49        	lw	s3, 12(sp)
  105270: 05 61        	addi	sp, sp, 32
  105272: 82 80        	ret
  105274: 23 ae 06 fe  	sw	zero, -4(a3)
  105278: 05 07        	addi	a4, a4, 1
  10527a: bd b7        	j	0x1051e8 <__lshift+0x58>
  10527c: 10 43        	lw	a2, 0(a4)
  10527e: 11 07        	addi	a4, a4, 4
  105280: 91 06        	addi	a3, a3, 4
  105282: 23 ae c6 fe  	sw	a2, -4(a3)
  105286: e3 6b f7 fe  	bltu	a4, a5, 0x10527c <__lshift+0xec>
  10528a: d9 b7        	j	0x105250 <__lshift+0xc0>

0010528c <__mcmp>:
  10528c: 14 49        	lw	a3, 16(a0)
  10528e: 98 49        	lw	a4, 16(a1)
  105290: aa 87        	mv	a5, a0
  105292: 33 85 e6 40  	sub	a0, a3, a4
  105296: 63 95 e6 02  	bne	a3, a4, 0x1052c0 <__mcmp+0x34>
  10529a: 0a 07        	slli	a4, a4, 2
  10529c: d1 07        	addi	a5, a5, 20
  10529e: d1 05        	addi	a1, a1, 20
  1052a0: b3 86 e7 00  	add	a3, a5, a4
  1052a4: ba 95        	add	a1, a1, a4
  1052a6: f1 16        	addi	a3, a3, -4
  1052a8: f1 15        	addi	a1, a1, -4
  1052aa: 90 42        	lw	a2, 0(a3)
  1052ac: 98 41        	lw	a4, 0(a1)
  1052ae: 63 07 e6 00  	beq	a2, a4, 0x1052bc <__mcmp+0x30>
  1052b2: 7d 55        	li	a0, -1
  1052b4: 63 66 e6 00  	bltu	a2, a4, 0x1052c0 <__mcmp+0x34>
  1052b8: 05 45        	li	a0, 1
  1052ba: 82 80        	ret
  1052bc: e3 e5 d7 fe  	bltu	a5, a3, 0x1052a6 <__mcmp+0x1a>
  1052c0: 82 80        	ret

001052c2 <__mdiff>:
  1052c2: 01 11        	addi	sp, sp, -32
  1052c4: 22 cc        	sw	s0, 24(sp)
  1052c6: 2e 84        	mv	s0, a1
  1052c8: 4a c8        	sw	s2, 16(sp)
  1052ca: b2 85        	mv	a1, a2
  1052cc: 2a 89        	mv	s2, a0
  1052ce: 22 85        	mv	a0, s0
  1052d0: 26 ca        	sw	s1, 20(sp)
  1052d2: 06 ce        	sw	ra, 28(sp)
  1052d4: 4e c6        	sw	s3, 12(sp)
  1052d6: b2 84        	mv	s1, a2
  1052d8: ef f0 5f fb  	jal	0x10528c <__mcmp>
  1052dc: 15 e9        	bnez	a0, 0x105310 <__mdiff+0x4e>
  1052de: 81 45        	li	a1, 0
  1052e0: 4a 85        	mv	a0, s2
  1052e2: ef f0 7f 91  	jal	0x104bf8 <_Balloc>
  1052e6: 11 e9        	bnez	a0, 0x1052fa <__mdiff+0x38>
  1052e8: 93 86 c1 c0  	addi	a3, gp, -1012
  1052ec: 01 46        	li	a2, 0
  1052ee: 93 05 20 23  	li	a1, 562
  1052f2: 13 85 01 c2  	addi	a0, gp, -992
  1052f6: ef 20 50 0f  	jal	0x107bea <__assert_func>
  1052fa: 85 47        	li	a5, 1
  1052fc: 1c c9        	sw	a5, 16(a0)
  1052fe: 23 2a 05 00  	sw	zero, 20(a0)
  105302: f2 40        	lw	ra, 28(sp)
  105304: 62 44        	lw	s0, 24(sp)
  105306: d2 44        	lw	s1, 20(sp)
  105308: 42 49        	lw	s2, 16(sp)
  10530a: b2 49        	lw	s3, 12(sp)
  10530c: 05 61        	addi	sp, sp, 32
  10530e: 82 80        	ret
  105310: 85 49        	li	s3, 1
  105312: 63 46 05 00  	bltz	a0, 0x10531e <__mdiff+0x5c>
  105316: a6 87        	mv	a5, s1
  105318: 81 49        	li	s3, 0
  10531a: a2 84        	mv	s1, s0
  10531c: 3e 84        	mv	s0, a5
  10531e: cc 40        	lw	a1, 4(s1)
  105320: 4a 85        	mv	a0, s2
  105322: ef f0 7f 8d  	jal	0x104bf8 <_Balloc>
  105326: 19 e5        	bnez	a0, 0x105334 <__mdiff+0x72>
  105328: 93 86 c1 c0  	addi	a3, gp, -1012
  10532c: 01 46        	li	a2, 0
  10532e: 93 05 00 24  	li	a1, 576
  105332: c1 b7        	j	0x1052f2 <__mdiff+0x30>
  105334: 03 a8 04 01  	lw	a6, 16(s1)
  105338: 18 48        	lw	a4, 16(s0)
  10533a: 93 88 44 01  	addi	a7, s1, 20
  10533e: 93 16 28 00  	slli	a3, a6, 2
  105342: 93 07 44 01  	addi	a5, s0, 20
  105346: 0a 07        	slli	a4, a4, 2
  105348: c1 6e        	lui	t4, 16
  10534a: 23 26 35 01  	sw	s3, 12(a0)
  10534e: c6 96        	add	a3, a3, a7
  105350: ba 97        	add	a5, a5, a4
  105352: 13 06 45 01  	addi	a2, a0, 20
  105356: 51 4e        	li	t3, 20
  105358: 01 43        	li	t1, 0
  10535a: fd 1e        	addi	t4, t4, -1
  10535c: 33 87 c4 01  	add	a4, s1, t3
  105360: 18 43        	lw	a4, 0(a4)
  105362: b3 05 c4 01  	add	a1, s0, t3
  105366: 03 af 05 00  	lw	t5, 0(a1)
  10536a: b3 75 d7 01  	and	a1, a4, t4
  10536e: 9a 95        	add	a1, a1, t1
  105370: 33 73 df 01  	and	t1, t5, t4
  105374: b3 85 65 40  	sub	a1, a1, t1
  105378: 13 5f 0f 01  	srli	t5, t5, 16
  10537c: 41 83        	srli	a4, a4, 16
  10537e: 13 d3 05 41  	srai	t1, a1, 16
  105382: 33 07 e7 41  	sub	a4, a4, t5
  105386: 1a 97        	add	a4, a4, t1
  105388: 13 53 07 41  	srai	t1, a4, 16
  10538c: b3 f5 d5 01  	and	a1, a1, t4
  105390: 42 07        	slli	a4, a4, 16
  105392: 33 0f c5 01  	add	t5, a0, t3
  105396: 4d 8f        	or	a4, a4, a1
  105398: 11 0e        	addi	t3, t3, 4
  10539a: 23 20 ef 00  	sw	a4, 0(t5)
  10539e: 33 07 8e 00  	add	a4, t3, s0
  1053a2: e3 6d f7 fa  	bltu	a4, a5, 0x10535c <__mdiff+0x9a>
  1053a6: 93 05 54 01  	addi	a1, s0, 21
  1053aa: 11 47        	li	a4, 4
  1053ac: 63 e7 b7 00  	bltu	a5, a1, 0x1053ba <__mdiff+0xf8>
  1053b0: 81 8f        	sub	a5, a5, s0
  1053b2: ad 17        	addi	a5, a5, -21
  1053b4: f1 9b        	andi	a5, a5, -4
  1053b6: 13 87 47 00  	addi	a4, a5, 4
  1053ba: ba 98        	add	a7, a7, a4
  1053bc: 41 6e        	lui	t3, 16
  1053be: 32 97        	add	a4, a4, a2
  1053c0: ba 8e        	mv	t4, a4
  1053c2: c6 85        	mv	a1, a7
  1053c4: 7d 1e        	addi	t3, t3, -1
  1053c6: 63 e2 d5 02  	bltu	a1, a3, 0x1053ea <__mdiff+0x128>
  1053ca: 13 86 d8 ff  	addi	a2, a7, -3
  1053ce: 81 47        	li	a5, 0
  1053d0: 63 e6 c6 00  	bltu	a3, a2, 0x1053dc <__mdiff+0x11a>
  1053d4: 8d 06        	addi	a3, a3, 3
  1053d6: b3 87 16 41  	sub	a5, a3, a7
  1053da: f1 9b        	andi	a5, a5, -4
  1053dc: ba 97        	add	a5, a5, a4
  1053de: f1 17        	addi	a5, a5, -4
  1053e0: 98 43        	lw	a4, 0(a5)
  1053e2: 1d c7        	beqz	a4, 0x105410 <__mdiff+0x14e>
  1053e4: 23 28 05 01  	sw	a6, 16(a0)
  1053e8: 29 bf        	j	0x105302 <__mdiff+0x40>
  1053ea: 9c 41        	lw	a5, 0(a1)
  1053ec: 91 0e        	addi	t4, t4, 4
  1053ee: 91 05        	addi	a1, a1, 4
  1053f0: 33 f6 c7 01  	and	a2, a5, t3
  1053f4: 1a 96        	add	a2, a2, t1
  1053f6: 13 53 06 41  	srai	t1, a2, 16
  1053fa: c1 83        	srli	a5, a5, 16
  1053fc: 9a 97        	add	a5, a5, t1
  1053fe: 13 d3 07 41  	srai	t1, a5, 16
  105402: 33 76 c6 01  	and	a2, a2, t3
  105406: c2 07        	slli	a5, a5, 16
  105408: d1 8f        	or	a5, a5, a2
  10540a: 23 ae fe fe  	sw	a5, -4(t4)
  10540e: 65 bf        	j	0x1053c6 <__mdiff+0x104>
  105410: 7d 18        	addi	a6, a6, -1
  105412: f1 b7        	j	0x1053de <__mdiff+0x11c>

00105414 <__ulp>:
  105414: b7 07 f0 7f  	lui	a5, 524032
  105418: fd 8d        	and	a1, a1, a5
  10541a: b7 07 c0 fc  	lui	a5, 1035264
  10541e: be 95        	add	a1, a1, a5
  105420: 63 55 b0 00  	blez	a1, 0x10542a <__ulp+0x16>
  105424: 81 47        	li	a5, 0
  105426: 3e 85        	mv	a0, a5
  105428: 82 80        	ret
  10542a: b3 05 b0 40  	neg	a1, a1
  10542e: 93 d7 45 41  	srai	a5, a1, 20
  105432: 4d 47        	li	a4, 19
  105434: 63 47 f7 00  	blt	a4, a5, 0x105442 <__ulp+0x2e>
  105438: b7 05 08 00  	lui	a1, 128
  10543c: b3 d5 f5 40  	sra	a1, a1, a5
  105440: d5 b7        	j	0x105424 <__ulp+0x10>
  105442: 13 87 c7 fe  	addi	a4, a5, -20
  105446: f9 46        	li	a3, 30
  105448: 81 45        	li	a1, 0
  10544a: 85 47        	li	a5, 1
  10544c: e3 cd e6 fc  	blt	a3, a4, 0x105426 <__ulp+0x12>
  105450: b7 07 00 80  	lui	a5, 524288
  105454: b3 d7 e7 00  	srl	a5, a5, a4
  105458: f9 b7        	j	0x105426 <__ulp+0x12>

0010545a <__b2d>:
  10545a: 01 11        	addi	sp, sp, -32
  10545c: 26 ca        	sw	s1, 20(sp)
  10545e: 04 49        	lw	s1, 16(a0)
  105460: 4e c6        	sw	s3, 12(sp)
  105462: 93 09 45 01  	addi	s3, a0, 20
  105466: 8a 04        	slli	s1, s1, 2
  105468: ce 94        	add	s1, s1, s3
  10546a: 22 cc        	sw	s0, 24(sp)
  10546c: 03 a4 c4 ff  	lw	s0, -4(s1)
  105470: 4a c8        	sw	s2, 16(sp)
  105472: 52 c4        	sw	s4, 8(sp)
  105474: 22 85        	mv	a0, s0
  105476: 2e 8a        	mv	s4, a1
  105478: 06 ce        	sw	ra, 28(sp)
  10547a: ef f0 1f 9f  	jal	0x104e6a <__hi0bits>
  10547e: 93 07 00 02  	li	a5, 32
  105482: 89 8f        	sub	a5, a5, a0
  105484: 23 20 fa 00  	sw	a5, 0(s4)
  105488: a9 47        	li	a5, 10
  10548a: 13 89 c4 ff  	addi	s2, s1, -4
  10548e: 63 ce a7 02  	blt	a5, a0, 0x1054ca <__b2d+0x70>
  105492: ad 47        	li	a5, 11
  105494: 89 8f        	sub	a5, a5, a0
  105496: 37 07 f0 3f  	lui	a4, 261888
  10549a: b3 56 f4 00  	srl	a3, s0, a5
  10549e: d9 8e        	or	a3, a3, a4
  1054a0: 01 47        	li	a4, 0
  1054a2: 63 f4 29 01  	bgeu	s3, s2, 0x1054aa <__b2d+0x50>
  1054a6: 03 a7 84 ff  	lw	a4, -8(s1)
  1054aa: 55 05        	addi	a0, a0, 21
  1054ac: 33 15 a4 00  	sll	a0, s0, a0
  1054b0: b3 57 f7 00  	srl	a5, a4, a5
  1054b4: c9 8f        	or	a5, a5, a0
  1054b6: f2 40        	lw	ra, 28(sp)
  1054b8: 62 44        	lw	s0, 24(sp)
  1054ba: d2 44        	lw	s1, 20(sp)
  1054bc: 42 49        	lw	s2, 16(sp)
  1054be: b2 49        	lw	s3, 12(sp)
  1054c0: 22 4a        	lw	s4, 8(sp)
  1054c2: 3e 85        	mv	a0, a5
  1054c4: b6 85        	mv	a1, a3
  1054c6: 05 61        	addi	sp, sp, 32
  1054c8: 82 80        	ret
  1054ca: 81 47        	li	a5, 0
  1054cc: 63 f6 29 01  	bgeu	s3, s2, 0x1054d8 <__b2d+0x7e>
  1054d0: 83 a7 84 ff  	lw	a5, -8(s1)
  1054d4: 13 89 84 ff  	addi	s2, s1, -8
  1054d8: 55 15        	addi	a0, a0, -11
  1054da: 05 c9        	beqz	a0, 0x10550a <__b2d+0xb0>
  1054dc: 13 07 00 02  	li	a4, 32
  1054e0: 33 06 a7 40  	sub	a2, a4, a0
  1054e4: 33 d7 c7 00  	srl	a4, a5, a2
  1054e8: 33 14 a4 00  	sll	s0, s0, a0
  1054ec: 59 8c        	or	s0, s0, a4
  1054ee: b7 06 f0 3f  	lui	a3, 261888
  1054f2: c1 8e        	or	a3, a3, s0
  1054f4: 01 47        	li	a4, 0
  1054f6: 63 f4 29 01  	bgeu	s3, s2, 0x1054fe <__b2d+0xa4>
  1054fa: 03 27 c9 ff  	lw	a4, -4(s2)
  1054fe: b3 97 a7 00  	sll	a5, a5, a0
  105502: 33 57 c7 00  	srl	a4, a4, a2
  105506: d9 8f        	or	a5, a5, a4
  105508: 7d b7        	j	0x1054b6 <__b2d+0x5c>
  10550a: b7 06 f0 3f  	lui	a3, 261888
  10550e: c1 8e        	or	a3, a3, s0
  105510: 5d b7        	j	0x1054b6 <__b2d+0x5c>

00105512 <__d2b>:
  105512: 79 71        	addi	sp, sp, -48
  105514: 26 d2        	sw	s1, 36(sp)
  105516: ae 84        	mv	s1, a1
  105518: 85 45        	li	a1, 1
  10551a: 22 d4        	sw	s0, 40(sp)
  10551c: 4a d0        	sw	s2, 32(sp)
  10551e: 4e ce        	sw	s3, 28(sp)
  105520: 06 d6        	sw	ra, 44(sp)
  105522: 52 cc        	sw	s4, 24(sp)
  105524: 32 84        	mv	s0, a2
  105526: b6 89        	mv	s3, a3
  105528: 3a 89        	mv	s2, a4
  10552a: ef f0 ef ec  	jal	0x104bf8 <_Balloc>
  10552e: 11 e9        	bnez	a0, 0x105542 <__d2b+0x30>
  105530: 93 86 c1 c0  	addi	a3, gp, -1012
  105534: 01 46        	li	a2, 0
  105536: 93 05 a0 30  	li	a1, 778
  10553a: 13 85 01 c2  	addi	a0, gp, -992
  10553e: ef 20 c0 6a  	jal	0x107bea <__assert_func>
  105542: 37 07 10 00  	lui	a4, 256
  105546: 93 07 f7 ff  	addi	a5, a4, -1
  10554a: e1 8f        	and	a5, a5, s0
  10554c: 51 80        	srli	s0, s0, 20
  10554e: 13 74 f4 7f  	andi	s0, s0, 2047
  105552: 2a 8a        	mv	s4, a0
  105554: 35 e0        	bnez	s0, 0x1055b8 <__d2b+0xa6>
  105556: 3e c6        	sw	a5, 12(sp)
  105558: ad c4        	beqz	s1, 0x1055c2 <__d2b+0xb0>
  10555a: 28 00        	addi	a0, sp, 8
  10555c: 26 c4        	sw	s1, 8(sp)
  10555e: ef f0 3f 95  	jal	0x104eb0 <__lo0bits>
  105562: a2 46        	lw	a3, 8(sp)
  105564: 21 cd        	beqz	a0, 0x1055bc <__d2b+0xaa>
  105566: 32 47        	lw	a4, 12(sp)
  105568: 93 07 00 02  	li	a5, 32
  10556c: 89 8f        	sub	a5, a5, a0
  10556e: b3 17 f7 00  	sll	a5, a4, a5
  105572: d5 8f        	or	a5, a5, a3
  105574: 33 57 a7 00  	srl	a4, a4, a0
  105578: 23 2a fa 00  	sw	a5, 20(s4)
  10557c: 3a c6        	sw	a4, 12(sp)
  10557e: b2 44        	lw	s1, 12(sp)
  105580: 23 2c 9a 00  	sw	s1, 24(s4)
  105584: b3 34 90 00  	snez	s1, s1
  105588: 85 04        	addi	s1, s1, 1
  10558a: 23 28 9a 00  	sw	s1, 16(s4)
  10558e: 39 c4        	beqz	s0, 0x1055dc <__d2b+0xca>
  105590: 13 04 d4 bc  	addi	s0, s0, -1075
  105594: 2a 94        	add	s0, s0, a0
  105596: 93 07 50 03  	li	a5, 53
  10559a: 23 a0 89 00  	sw	s0, 0(s3)
  10559e: 33 85 a7 40  	sub	a0, a5, a0
  1055a2: 23 20 a9 00  	sw	a0, 0(s2)
  1055a6: b2 50        	lw	ra, 44(sp)
  1055a8: 22 54        	lw	s0, 40(sp)
  1055aa: 92 54        	lw	s1, 36(sp)
  1055ac: 02 59        	lw	s2, 32(sp)
  1055ae: f2 49        	lw	s3, 28(sp)
  1055b0: 52 85        	mv	a0, s4
  1055b2: 62 4a        	lw	s4, 24(sp)
  1055b4: 45 61        	addi	sp, sp, 48
  1055b6: 82 80        	ret
  1055b8: d9 8f        	or	a5, a5, a4
  1055ba: 71 bf        	j	0x105556 <__d2b+0x44>
  1055bc: 23 2a da 00  	sw	a3, 20(s4)
  1055c0: 7d bf        	j	0x10557e <__d2b+0x6c>
  1055c2: 68 00        	addi	a0, sp, 12
  1055c4: ef f0 df 8e  	jal	0x104eb0 <__lo0bits>
  1055c8: b2 47        	lw	a5, 12(sp)
  1055ca: 13 05 05 02  	addi	a0, a0, 32
  1055ce: 85 44        	li	s1, 1
  1055d0: 23 2a fa 00  	sw	a5, 20(s4)
  1055d4: 85 47        	li	a5, 1
  1055d6: 23 28 fa 00  	sw	a5, 16(s4)
  1055da: 55 bf        	j	0x10558e <__d2b+0x7c>
  1055dc: 93 07 e5 bc  	addi	a5, a0, -1074
  1055e0: 23 a0 f9 00  	sw	a5, 0(s3)
  1055e4: 93 97 24 00  	slli	a5, s1, 2
  1055e8: d2 97        	add	a5, a5, s4
  1055ea: 88 4b        	lw	a0, 16(a5)
  1055ec: 96 04        	slli	s1, s1, 5
  1055ee: ef f0 df 87  	jal	0x104e6a <__hi0bits>
  1055f2: 89 8c        	sub	s1, s1, a0
  1055f4: 23 20 99 00  	sw	s1, 0(s2)
  1055f8: 7d b7        	j	0x1055a6 <__d2b+0x94>

001055fa <__ratio>:
  1055fa: 79 71        	addi	sp, sp, -48
  1055fc: 26 d2        	sw	s1, 36(sp)
  1055fe: ae 84        	mv	s1, a1
  105600: 2c 00        	addi	a1, sp, 8
  105602: 06 d6        	sw	ra, 44(sp)
  105604: 22 d4        	sw	s0, 40(sp)
  105606: 4a d0        	sw	s2, 32(sp)
  105608: 4e ce        	sw	s3, 28(sp)
  10560a: 52 cc        	sw	s4, 24(sp)
  10560c: aa 89        	mv	s3, a0
  10560e: ef f0 df e4  	jal	0x10545a <__b2d>
  105612: 2a 89        	mv	s2, a0
  105614: 2e 84        	mv	s0, a1
  105616: 2e 8a        	mv	s4, a1
  105618: 26 85        	mv	a0, s1
  10561a: 6c 00        	addi	a1, sp, 12
  10561c: ef f0 ff e3  	jal	0x10545a <__b2d>
  105620: 9c 48        	lw	a5, 16(s1)
  105622: 03 a7 09 01  	lw	a4, 16(s3)
  105626: ae 86        	mv	a3, a1
  105628: 2e 86        	mv	a2, a1
  10562a: 1d 8f        	sub	a4, a4, a5
  10562c: b2 45        	lw	a1, 12(sp)
  10562e: a2 47        	lw	a5, 8(sp)
  105630: 16 07        	slli	a4, a4, 5
  105632: 8d 8f        	sub	a5, a5, a1
  105634: ba 97        	add	a5, a5, a4
  105636: 63 54 f0 02  	blez	a5, 0x10565e <__ratio+0x64>
  10563a: d2 07        	slli	a5, a5, 20
  10563c: 33 8a 87 00  	add	s4, a5, s0
  105640: 32 87        	mv	a4, a2
  105642: d2 85        	mv	a1, s4
  105644: 2a 86        	mv	a2, a0
  105646: ba 86        	mv	a3, a4
  105648: 4a 85        	mv	a0, s2
  10564a: ef 30 50 67  	jal	0x1094be <__divdf3>
  10564e: b2 50        	lw	ra, 44(sp)
  105650: 22 54        	lw	s0, 40(sp)
  105652: 92 54        	lw	s1, 36(sp)
  105654: 02 59        	lw	s2, 32(sp)
  105656: f2 49        	lw	s3, 28(sp)
  105658: 62 4a        	lw	s4, 24(sp)
  10565a: 45 61        	addi	sp, sp, 48
  10565c: 82 80        	ret
  10565e: 37 07 f0 ff  	lui	a4, 1048320
  105662: b3 87 e7 02  	mul	a5, a5, a4
  105666: 33 86 d7 00  	add	a2, a5, a3
  10566a: d9 bf        	j	0x105640 <__ratio+0x46>

0010566c <_mprec_log10>:
  10566c: 41 11        	addi	sp, sp, -16
  10566e: 22 c4        	sw	s0, 8(sp)
  105670: 06 c6        	sw	ra, 12(sp)
  105672: 4a c2        	sw	s2, 4(sp)
  105674: 4e c0        	sw	s3, 0(sp)
  105676: dd 47        	li	a5, 23
  105678: 2a 84        	mv	s0, a0
  10567a: 63 c0 a7 02  	blt	a5, a0, 0x10569a <_mprec_log10+0x2e>
  10567e: 13 14 35 00  	slli	s0, a0, 3
  105682: 13 85 81 cb  	addi	a0, gp, -840
  105686: 2a 94        	add	s0, s0, a0
  105688: 1c 40        	lw	a5, 0(s0)
  10568a: 4c 40        	lw	a1, 4(s0)
  10568c: b2 40        	lw	ra, 12(sp)
  10568e: 22 44        	lw	s0, 8(sp)
  105690: 12 49        	lw	s2, 4(sp)
  105692: 82 49        	lw	s3, 0(sp)
  105694: 3e 85        	mv	a0, a5
  105696: 41 01        	addi	sp, sp, 16
  105698: 82 80        	ret
  10569a: 83 a7 81 82  	lw	a5, -2008(gp)
  10569e: 83 a5 c1 82  	lw	a1, -2004(gp)
  1056a2: 03 a9 01 83  	lw	s2, -2000(gp)
  1056a6: 83 a9 41 83  	lw	s3, -1996(gp)
  1056aa: 3e 85        	mv	a0, a5
  1056ac: 4a 86        	mv	a2, s2
  1056ae: ce 86        	mv	a3, s3
  1056b0: ef 40 20 69  	jal	0x109d42 <__muldf3>
  1056b4: 7d 14        	addi	s0, s0, -1
  1056b6: aa 87        	mv	a5, a0
  1056b8: 6d f8        	bnez	s0, 0x1056aa <_mprec_log10+0x3e>
  1056ba: c9 bf        	j	0x10568c <_mprec_log10+0x20>

001056bc <__copybits>:
  1056bc: 93 87 f5 ff  	addi	a5, a1, -1
  1056c0: 14 4a        	lw	a3, 16(a2)
  1056c2: 95 87        	srai	a5, a5, 5
  1056c4: 85 07        	addi	a5, a5, 1
  1056c6: 8a 06        	slli	a3, a3, 2
  1056c8: 8a 07        	slli	a5, a5, 2
  1056ca: 93 05 46 01  	addi	a1, a2, 20
  1056ce: 33 87 d5 00  	add	a4, a1, a3
  1056d2: aa 97        	add	a5, a5, a0
  1056d4: aa 86        	mv	a3, a0
  1056d6: 63 e0 e5 02  	bltu	a1, a4, 0x1056f6 <__copybits+0x3a>
  1056da: 93 06 16 01  	addi	a3, a2, 17
  1056de: 81 45        	li	a1, 0
  1056e0: 63 66 d7 00  	bltu	a4, a3, 0x1056ec <__copybits+0x30>
  1056e4: 11 8f        	sub	a4, a4, a2
  1056e6: 3d 17        	addi	a4, a4, -17
  1056e8: 93 75 c7 ff  	andi	a1, a4, -4
  1056ec: 33 07 b5 00  	add	a4, a0, a1
  1056f0: 63 6a f7 00  	bltu	a4, a5, 0x105704 <__copybits+0x48>
  1056f4: 82 80        	ret
  1056f6: 03 a8 05 00  	lw	a6, 0(a1)
  1056fa: 91 05        	addi	a1, a1, 4
  1056fc: 91 06        	addi	a3, a3, 4
  1056fe: 23 ae 06 ff  	sw	a6, -4(a3)
  105702: d1 bf        	j	0x1056d6 <__copybits+0x1a>
  105704: 11 07        	addi	a4, a4, 4
  105706: 23 2e 07 fe  	sw	zero, -4(a4)
  10570a: dd b7        	j	0x1056f0 <__copybits+0x34>

0010570c <__any_on>:
  10570c: 14 49        	lw	a3, 16(a0)
  10570e: 93 d7 55 40  	srai	a5, a1, 5
  105712: 13 07 45 01  	addi	a4, a0, 20
  105716: 63 c7 f6 02  	blt	a3, a5, 0x105744 <__any_on+0x38>
  10571a: 63 df d7 00  	bge	a5, a3, 0x105738 <__any_on+0x2c>
  10571e: fd 89        	andi	a1, a1, 31
  105720: 81 cd        	beqz	a1, 0x105738 <__any_on+0x2c>
  105722: 93 96 27 00  	slli	a3, a5, 2
  105726: ba 96        	add	a3, a3, a4
  105728: 90 42        	lw	a2, 0(a3)
  10572a: 05 45        	li	a0, 1
  10572c: b3 56 b6 00  	srl	a3, a2, a1
  105730: b3 95 b6 00  	sll	a1, a3, a1
  105734: 63 1e b6 00  	bne	a2, a1, 0x105750 <__any_on+0x44>
  105738: 8a 07        	slli	a5, a5, 2
  10573a: ba 97        	add	a5, a5, a4
  10573c: 63 66 f7 00  	bltu	a4, a5, 0x105748 <__any_on+0x3c>
  105740: 01 45        	li	a0, 0
  105742: 82 80        	ret
  105744: b6 87        	mv	a5, a3
  105746: cd bf        	j	0x105738 <__any_on+0x2c>
  105748: f1 17        	addi	a5, a5, -4
  10574a: 94 43        	lw	a3, 0(a5)
  10574c: e5 da        	beqz	a3, 0x10573c <__any_on+0x30>
  10574e: 05 45        	li	a0, 1
  105750: 82 80        	ret

00105752 <_malloc_usable_size_r>:
  105752: 83 a7 c5 ff  	lw	a5, -4(a1)
  105756: 13 85 c7 ff  	addi	a0, a5, -4
  10575a: 63 d5 07 00  	bgez	a5, 0x105764 <_malloc_usable_size_r+0x12>
  10575e: aa 95        	add	a1, a1, a0
  105760: 9c 41        	lw	a5, 0(a1)
  105762: 3e 95        	add	a0, a0, a5
  105764: 82 80        	ret

00105766 <sulp>:
  105766: 41 11        	addi	sp, sp, -16
  105768: 2a 87        	mv	a4, a0
  10576a: 22 c4        	sw	s0, 8(sp)
  10576c: 2e 84        	mv	s0, a1
  10576e: 3a 85        	mv	a0, a4
  105770: a2 85        	mv	a1, s0
  105772: 26 c2        	sw	s1, 4(sp)
  105774: 06 c6        	sw	ra, 12(sp)
  105776: b2 84        	mv	s1, a2
  105778: ef f0 df c9  	jal	0x105414 <__ulp>
  10577c: 2a 87        	mv	a4, a0
  10577e: ae 87        	mv	a5, a1
  105780: 8d c4        	beqz	s1, 0x1057aa <sulp+0x44>
  105782: 51 80        	srli	s0, s0, 20
  105784: 13 74 f4 7f  	andi	s0, s0, 2047
  105788: 93 06 b0 06  	li	a3, 107
  10578c: 33 84 86 40  	sub	s0, a3, s0
  105790: 63 5d 80 00  	blez	s0, 0x1057aa <sulp+0x44>
  105794: 52 04        	slli	s0, s0, 20
  105796: b7 07 f0 3f  	lui	a5, 261888
  10579a: 01 47        	li	a4, 0
  10579c: a2 97        	add	a5, a5, s0
  10579e: 3a 86        	mv	a2, a4
  1057a0: be 86        	mv	a3, a5
  1057a2: ef 40 00 5a  	jal	0x109d42 <__muldf3>
  1057a6: 2a 87        	mv	a4, a0
  1057a8: ae 87        	mv	a5, a1
  1057aa: b2 40        	lw	ra, 12(sp)
  1057ac: 22 44        	lw	s0, 8(sp)
  1057ae: 92 44        	lw	s1, 4(sp)
  1057b0: 3a 85        	mv	a0, a4
  1057b2: be 85        	mv	a1, a5
  1057b4: 41 01        	addi	sp, sp, 16
  1057b6: 82 80        	ret

001057b8 <_strtod_l>:
  1057b8: 31 71        	addi	sp, sp, -192
  1057ba: 22 dd        	sw	s0, 184(sp)
  1057bc: 26 db        	sw	s1, 180(sp)
  1057be: 4a d9        	sw	s2, 176(sp)
  1057c0: 5a d1        	sw	s6, 160(sp)
  1057c2: 2a 89        	mv	s2, a0
  1057c4: 2e 8b        	mv	s6, a1
  1057c6: 32 d2        	sw	a2, 36(sp)
  1057c8: 36 88        	mv	a6, a3
  1057ca: ae d6        	sw	a1, 108(sp)
  1057cc: 06 df        	sw	ra, 188(sp)
  1057ce: 4e d7        	sw	s3, 172(sp)
  1057d0: 52 d5        	sw	s4, 168(sp)
  1057d2: 56 d3        	sw	s5, 164(sp)
  1057d4: 5e cf        	sw	s7, 156(sp)
  1057d6: 62 cd        	sw	s8, 152(sp)
  1057d8: 66 cb        	sw	s9, 148(sp)
  1057da: 6a c9        	sw	s10, 144(sp)
  1057dc: 6e c7        	sw	s11, 140(sp)
  1057de: 82 d8        	sw	zero, 112(sp)
  1057e0: 81 44        	li	s1, 0
  1057e2: 01 44        	li	s0, 0
  1057e4: 93 06 b0 02  	li	a3, 43
  1057e8: 35 46        	li	a2, 13
  1057ea: 93 05 00 02  	li	a1, 32
  1057ee: 21 45        	li	a0, 8
  1057f0: 36 57        	lw	a4, 108(sp)
  1057f2: 83 47 07 00  	lbu	a5, 0(a4)
  1057f6: 63 80 d7 0c  	beq	a5, a3, 0x1058b6 <_strtod_l+0xfe>
  1057fa: 63 ed f6 08  	bltu	a3, a5, 0x105894 <_strtod_l+0xdc>
  1057fe: 63 66 f6 08  	bltu	a2, a5, 0x10588a <_strtod_l+0xd2>
  105802: 63 66 f5 08  	bltu	a0, a5, 0x10588e <_strtod_l+0xd6>
  105806: d5 c3        	beqz	a5, 0x1058aa <_strtod_l+0xf2>
  105808: 01 4d        	li	s10, 0
  10580a: b6 5a        	lw	s5, 108(sp)
  10580c: 93 07 00 03  	li	a5, 48
  105810: 81 4d        	li	s11, 0
  105812: 03 c7 0a 00  	lbu	a4, 0(s5)
  105816: 63 1a f7 12  	bne	a4, a5, 0x10594a <_strtod_l+0x192>
  10581a: 83 c7 1a 00  	lbu	a5, 1(s5)
  10581e: 93 06 80 05  	li	a3, 88
  105822: 13 07 00 03  	li	a4, 48
  105826: 93 f7 f7 0d  	andi	a5, a5, 223
  10582a: 63 96 d7 10  	bne	a5, a3, 0x105936 <_strtod_l+0x17e>
  10582e: ea 87        	mv	a5, s10
  105830: 98 18        	addi	a4, sp, 112
  105832: d4 18        	addi	a3, sp, 116
  105834: 13 86 c1 dd  	addi	a2, gp, -548
  105838: ec 10        	addi	a1, sp, 108
  10583a: 4a 85        	mv	a0, s2
  10583c: ef 20 00 4d  	jal	0x107d0c <__gethex>
  105840: 93 79 f5 00  	andi	s3, a0, 15
  105844: 2a 8a        	mv	s4, a0
  105846: 63 88 09 00  	beqz	s3, 0x105856 <_strtod_l+0x9e>
  10584a: 99 47        	li	a5, 6
  10584c: 63 97 f9 06  	bne	s3, a5, 0x1058ba <_strtod_l+0x102>
  105850: 85 0a        	addi	s5, s5, 1
  105852: d6 d6        	sw	s5, 108(sp)
  105854: 01 4d        	li	s10, 0
  105856: 92 57        	lw	a5, 36(sp)
  105858: 81 c7        	beqz	a5, 0x105860 <_strtod_l+0xa8>
  10585a: b6 57        	lw	a5, 108(sp)
  10585c: 12 57        	lw	a4, 36(sp)
  10585e: 1c c3        	sw	a5, 0(a4)
  105860: 63 09 0d 04  	beqz	s10, 0x1058b2 <_strtod_l+0xfa>
  105864: b7 05 00 80  	lui	a1, 524288
  105868: a1 8d        	xor	a1, a1, s0
  10586a: fa 50        	lw	ra, 188(sp)
  10586c: 6a 54        	lw	s0, 184(sp)
  10586e: 4a 59        	lw	s2, 176(sp)
  105870: ba 59        	lw	s3, 172(sp)
  105872: 2a 5a        	lw	s4, 168(sp)
  105874: 9a 5a        	lw	s5, 164(sp)
  105876: 0a 5b        	lw	s6, 160(sp)
  105878: fa 4b        	lw	s7, 156(sp)
  10587a: 6a 4c        	lw	s8, 152(sp)
  10587c: da 4c        	lw	s9, 148(sp)
  10587e: 4a 4d        	lw	s10, 144(sp)
  105880: ba 4d        	lw	s11, 140(sp)
  105882: 26 85        	mv	a0, s1
  105884: da 54        	lw	s1, 180(sp)
  105886: 29 61        	addi	sp, sp, 192
  105888: 82 80        	ret
  10588a: e3 9f b7 f6  	bne	a5, a1, 0x105808 <_strtod_l+0x50>
  10588e: 05 07        	addi	a4, a4, 1
  105890: ba d6        	sw	a4, 108(sp)
  105892: b9 bf        	j	0x1057f0 <_strtod_l+0x38>
  105894: 93 06 d0 02  	li	a3, 45
  105898: 05 4d        	li	s10, 1
  10589a: e3 97 d7 f6  	bne	a5, a3, 0x105808 <_strtod_l+0x50>
  10589e: 93 07 17 00  	addi	a5, a4, 1
  1058a2: be d6        	sw	a5, 108(sp)
  1058a4: 83 47 17 00  	lbu	a5, 1(a4)
  1058a8: ad f3        	bnez	a5, 0x10580a <_strtod_l+0x52>
  1058aa: 92 57        	lw	a5, 36(sp)
  1058ac: da d6        	sw	s6, 108(sp)
  1058ae: 01 4d        	li	s10, 0
  1058b0: cd f7        	bnez	a5, 0x10585a <_strtod_l+0xa2>
  1058b2: a2 85        	mv	a1, s0
  1058b4: 5d bf        	j	0x10586a <_strtod_l+0xb2>
  1058b6: 01 4d        	li	s10, 0
  1058b8: dd b7        	j	0x10589e <_strtod_l+0xe6>
  1058ba: 46 56        	lw	a2, 112(sp)
  1058bc: 11 ca        	beqz	a2, 0x1058d0 <_strtod_l+0x118>
  1058be: 93 05 50 03  	li	a1, 53
  1058c2: a8 18        	addi	a0, sp, 120
  1058c4: ef f0 9f df  	jal	0x1056bc <__copybits>
  1058c8: c6 55        	lw	a1, 112(sp)
  1058ca: 4a 85        	mv	a0, s2
  1058cc: ef f0 2f bd  	jal	0x104c9e <_Bfree>
  1058d0: fd 19        	addi	s3, s3, -1
  1058d2: 91 47        	li	a5, 4
  1058d4: 63 eb 37 01  	bltu	a5, s3, 0x1058ea <_strtod_l+0x132>
  1058d8: 93 87 81 dc  	addi	a5, gp, -568
  1058dc: 8a 09        	slli	s3, s3, 2
  1058de: be 99        	add	s3, s3, a5
  1058e0: 83 a7 09 00  	lw	a5, 0(s3)
  1058e4: 82 87        	jr	a5
  1058e6: e6 54        	lw	s1, 120(sp)
  1058e8: 76 54        	lw	s0, 124(sp)
  1058ea: 13 7a 0a 10  	andi	s4, s4, 256
  1058ee: 63 05 0a 00  	beqz	s4, 0x1058f8 <_strtod_l+0x140>
  1058f2: b7 07 00 80  	lui	a5, 524288
  1058f6: 5d 8c        	or	s0, s0, a5
  1058f8: b7 07 f0 7f  	lui	a5, 524032
  1058fc: e1 8f        	and	a5, a5, s0
  1058fe: a1 ff        	bnez	a5, 0x105856 <_strtod_l+0x9e>
  105900: ef 20 a0 2d  	jal	0x107bda <__errno>
  105904: 93 07 20 02  	li	a5, 34
  105908: 1c c1        	sw	a5, 0(a0)
  10590a: b1 b7        	j	0x105856 <_strtod_l+0x9e>
  10590c: 76 54        	lw	s0, 124(sp)
  10590e: b7 05 f0 ff  	lui	a1, 1048320
  105912: fd 15        	addi	a1, a1, -1
  105914: 6d 8c        	and	s0, s0, a1
  105916: d6 55        	lw	a1, 116(sp)
  105918: e6 54        	lw	s1, 120(sp)
  10591a: 93 85 35 43  	addi	a1, a1, 1075
  10591e: d2 05        	slli	a1, a1, 20
  105920: 4d 8c        	or	s0, s0, a1
  105922: e1 b7        	j	0x1058ea <_strtod_l+0x132>
  105924: 37 04 f0 7f  	lui	s0, 524032
  105928: c9 b7        	j	0x1058ea <_strtod_l+0x132>
  10592a: 37 04 00 80  	lui	s0, 524288
  10592e: 13 44 f4 ff  	not	s0, s0
  105932: fd 54        	li	s1, -1
  105934: 5d bf        	j	0x1058ea <_strtod_l+0x132>
  105936: b6 57        	lw	a5, 108(sp)
  105938: 93 86 17 00  	addi	a3, a5, 1
  10593c: b6 d6        	sw	a3, 108(sp)
  10593e: 83 c7 17 00  	lbu	a5, 1(a5)
  105942: e3 8a e7 fe  	beq	a5, a4, 0x105936 <_strtod_l+0x17e>
  105946: 81 db        	beqz	a5, 0x105856 <_strtod_l+0x9e>
  105948: 85 4d        	li	s11, 1
  10594a: b6 57        	lw	a5, 108(sp)
  10594c: 81 4b        	li	s7, 0
  10594e: 81 4a        	li	s5, 0
  105950: 3e c6        	sw	a5, 12(sp)
  105952: 01 4c        	li	s8, 0
  105954: a5 46        	li	a3, 9
  105956: a1 45        	li	a1, 8
  105958: a9 47        	li	a5, 10
  10595a: 36 55        	lw	a0, 108(sp)
  10595c: 83 49 05 00  	lbu	s3, 0(a0)
  105960: 13 87 09 fd  	addi	a4, s3, -48
  105964: 13 76 f7 0f  	andi	a2, a4, 255
  105968: 63 fe c6 04  	bgeu	a3, a2, 0x1059c4 <_strtod_l+0x20c>
  10596c: 05 46        	li	a2, 1
  10596e: 93 85 41 db  	addi	a1, gp, -588
  105972: ef 20 20 18  	jal	0x107af4 <strncmp>
  105976: 25 c5        	beqz	a0, 0x1059de <_strtod_l+0x226>
  105978: ce 87        	mv	a5, s3
  10597a: e2 8c        	mv	s9, s8
  10597c: 01 47        	li	a4, 0
  10597e: 01 4a        	li	s4, 0
  105980: 01 45        	li	a0, 0
  105982: 93 06 50 06  	li	a3, 101
  105986: 63 87 d7 00  	beq	a5, a3, 0x105994 <_strtod_l+0x1dc>
  10598a: 93 06 50 04  	li	a3, 69
  10598e: 81 49        	li	s3, 0
  105990: 63 9e d7 16  	bne	a5, a3, 0x105b0c <_strtod_l+0x354>
  105994: 63 97 0c 00  	bnez	s9, 0x1059a2 <_strtod_l+0x1ea>
  105998: b3 67 b7 01  	or	a5, a4, s11
  10599c: e3 87 07 f0  	beqz	a5, 0x1058aa <_strtod_l+0xf2>
  1059a0: 81 4c        	li	s9, 0
  1059a2: 36 5b        	lw	s6, 108(sp)
  1059a4: 93 06 b0 02  	li	a3, 43
  1059a8: 93 07 1b 00  	addi	a5, s6, 1
  1059ac: be d6        	sw	a5, 108(sp)
  1059ae: 83 47 1b 00  	lbu	a5, 1(s6)
  1059b2: 63 86 d7 0e  	beq	a5, a3, 0x105a9e <_strtod_l+0x2e6>
  1059b6: 93 06 d0 02  	li	a3, 45
  1059ba: 81 48        	li	a7, 0
  1059bc: 63 97 d7 0e  	bne	a5, a3, 0x105aaa <_strtod_l+0x2f2>
  1059c0: 85 48        	li	a7, 1
  1059c2: f9 a8        	j	0x105aa0 <_strtod_l+0x2e8>
  1059c4: 63 c9 85 01  	blt	a1, s8, 0x1059d6 <_strtod_l+0x21e>
  1059c8: b3 8a fa 02  	mul	s5, s5, a5
  1059cc: ba 9a        	add	s5, s5, a4
  1059ce: 05 05        	addi	a0, a0, 1
  1059d0: 05 0c        	addi	s8, s8, 1
  1059d2: aa d6        	sw	a0, 108(sp)
  1059d4: 59 b7        	j	0x10595a <_strtod_l+0x1a2>
  1059d6: b3 8b fb 02  	mul	s7, s7, a5
  1059da: ba 9b        	add	s7, s7, a4
  1059dc: cd bf        	j	0x1059ce <_strtod_l+0x216>
  1059de: b6 57        	lw	a5, 108(sp)
  1059e0: 13 87 17 00  	addi	a4, a5, 1
  1059e4: ba d6        	sw	a4, 108(sp)
  1059e6: 83 c7 17 00  	lbu	a5, 1(a5)
  1059ea: 01 47        	li	a4, 0
  1059ec: 63 00 0c 08  	beqz	s8, 0x105a6c <_strtod_l+0x2b4>
  1059f0: 01 4a        	li	s4, 0
  1059f2: e2 8c        	mv	s9, s8
  1059f4: 93 86 07 fd  	addi	a3, a5, -48
  1059f8: 25 46        	li	a2, 9
  1059fa: 63 77 d6 02  	bgeu	a2, a3, 0x105a28 <_strtod_l+0x270>
  1059fe: 05 45        	li	a0, 1
  105a00: 49 b7        	j	0x105982 <_strtod_l+0x1ca>
  105a02: b6 57        	lw	a5, 108(sp)
  105a04: 05 07        	addi	a4, a4, 1
  105a06: 13 86 17 00  	addi	a2, a5, 1
  105a0a: b2 d6        	sw	a2, 108(sp)
  105a0c: 83 c7 17 00  	lbu	a5, 1(a5)
  105a10: e3 89 d7 fe  	beq	a5, a3, 0x105a02 <_strtod_l+0x24a>
  105a14: 93 86 f7 fc  	addi	a3, a5, -49
  105a18: 21 46        	li	a2, 8
  105a1a: e3 60 d6 1e  	bltu	a2, a3, 0x1063fa <_strtod_l+0xc42>
  105a1e: b6 56        	lw	a3, 108(sp)
  105a20: 3a 8a        	mv	s4, a4
  105a22: 81 4c        	li	s9, 0
  105a24: 36 c6        	sw	a3, 12(sp)
  105a26: 01 47        	li	a4, 0
  105a28: 93 87 07 fd  	addi	a5, a5, -48
  105a2c: 93 06 17 00  	addi	a3, a4, 1
  105a30: 95 c7        	beqz	a5, 0x105a5c <_strtod_l+0x2a4>
  105a32: 36 9a        	add	s4, s4, a3
  105a34: 33 05 97 01  	add	a0, a4, s9
  105a38: e6 86        	mv	a3, s9
  105a3a: a1 48        	li	a7, 8
  105a3c: 41 43        	li	t1, 16
  105a3e: 29 46        	li	a2, 10
  105a40: 63 99 a6 02  	bne	a3, a0, 0x105a72 <_strtod_l+0x2ba>
  105a44: 13 88 1c 00  	addi	a6, s9, 1
  105a48: b3 0c e8 00  	add	s9, a6, a4
  105a4c: 21 47        	li	a4, 8
  105a4e: 63 4f d7 02  	blt	a4, a3, 0x105a8c <_strtod_l+0x2d4>
  105a52: 29 47        	li	a4, 10
  105a54: b3 8a ea 02  	mul	s5, s5, a4
  105a58: 81 46        	li	a3, 0
  105a5a: be 9a        	add	s5, s5, a5
  105a5c: b6 57        	lw	a5, 108(sp)
  105a5e: 13 87 17 00  	addi	a4, a5, 1
  105a62: ba d6        	sw	a4, 108(sp)
  105a64: 83 c7 17 00  	lbu	a5, 1(a5)
  105a68: 36 87        	mv	a4, a3
  105a6a: 69 b7        	j	0x1059f4 <_strtod_l+0x23c>
  105a6c: 93 06 00 03  	li	a3, 48
  105a70: 45 b7        	j	0x105a10 <_strtod_l+0x258>
  105a72: 93 85 16 00  	addi	a1, a3, 1
  105a76: 63 c6 d8 00  	blt	a7, a3, 0x105a82 <_strtod_l+0x2ca>
  105a7a: b3 8a ca 02  	mul	s5, s5, a2
  105a7e: ae 86        	mv	a3, a1
  105a80: c1 b7        	j	0x105a40 <_strtod_l+0x288>
  105a82: e3 4e b3 fe  	blt	t1, a1, 0x105a7e <_strtod_l+0x2c6>
  105a86: b3 8b cb 02  	mul	s7, s7, a2
  105a8a: d5 bf        	j	0x105a7e <_strtod_l+0x2c6>
  105a8c: 41 47        	li	a4, 16
  105a8e: 81 46        	li	a3, 0
  105a90: e3 46 97 fd  	blt	a4, s9, 0x105a5c <_strtod_l+0x2a4>
  105a94: 29 47        	li	a4, 10
  105a96: b3 8b eb 02  	mul	s7, s7, a4
  105a9a: be 9b        	add	s7, s7, a5
  105a9c: c1 b7        	j	0x105a5c <_strtod_l+0x2a4>
  105a9e: 81 48        	li	a7, 0
  105aa0: 93 07 2b 00  	addi	a5, s6, 2
  105aa4: be d6        	sw	a5, 108(sp)
  105aa6: 83 47 2b 00  	lbu	a5, 2(s6)
  105aaa: 93 86 07 fd  	addi	a3, a5, -48
  105aae: 25 46        	li	a2, 9
  105ab0: 63 6e d6 0c  	bltu	a2, a3, 0x105b8c <_strtod_l+0x3d4>
  105ab4: 93 06 00 03  	li	a3, 48
  105ab8: 63 8d d7 0a  	beq	a5, a3, 0x105b72 <_strtod_l+0x3ba>
  105abc: 93 86 f7 fc  	addi	a3, a5, -49
  105ac0: 21 46        	li	a2, 8
  105ac2: 81 49        	li	s3, 0
  105ac4: 63 64 d6 04  	bltu	a2, a3, 0x105b0c <_strtod_l+0x354>
  105ac8: 36 53        	lw	t1, 108(sp)
  105aca: 93 86 07 fd  	addi	a3, a5, -48
  105ace: 25 4e        	li	t3, 9
  105ad0: a9 4e        	li	t4, 10
  105ad2: b6 57        	lw	a5, 108(sp)
  105ad4: 13 86 17 00  	addi	a2, a5, 1
  105ad8: b2 d6        	sw	a2, 108(sp)
  105ada: 83 c7 17 00  	lbu	a5, 1(a5)
  105ade: 93 85 07 fd  	addi	a1, a5, -48
  105ae2: 93 f5 f5 0f  	andi	a1, a1, 255
  105ae6: 63 7d be 08  	bgeu	t3, a1, 0x105b80 <_strtod_l+0x3c8>
  105aea: 95 69        	lui	s3, 5
  105aec: 33 06 66 40  	sub	a2, a2, t1
  105af0: 93 89 f9 e1  	addi	s3, s3, -481
  105af4: 21 43        	li	t1, 8
  105af6: ce 85        	mv	a1, s3
  105af8: 63 46 c3 00  	blt	t1, a2, 0x105b04 <_strtod_l+0x34c>
  105afc: b6 89        	mv	s3, a3
  105afe: 63 d3 d5 00  	bge	a1, a3, 0x105b04 <_strtod_l+0x34c>
  105b02: ae 89        	mv	s3, a1
  105b04: 63 84 08 00  	beqz	a7, 0x105b0c <_strtod_l+0x354>
  105b08: b3 09 30 41  	neg	s3, s3
  105b0c: 63 94 0c 0c  	bnez	s9, 0x105bd4 <_strtod_l+0x41c>
  105b10: 33 e7 ed 00  	or	a4, s11, a4
  105b14: e3 11 07 d4  	bnez	a4, 0x105856 <_strtod_l+0x9e>
  105b18: e3 19 05 d8  	bnez	a0, 0x1058aa <_strtod_l+0xf2>
  105b1c: 13 07 90 06  	li	a4, 105
  105b20: 63 8c e7 06  	beq	a5, a4, 0x105b98 <_strtod_l+0x3e0>
  105b24: 63 47 f7 06  	blt	a4, a5, 0x105b92 <_strtod_l+0x3da>
  105b28: 13 07 90 04  	li	a4, 73
  105b2c: 63 86 e7 06  	beq	a5, a4, 0x105b98 <_strtod_l+0x3e0>
  105b30: 13 07 e0 04  	li	a4, 78
  105b34: e3 9b e7 d6  	bne	a5, a4, 0x1058aa <_strtod_l+0xf2>
  105b38: 93 85 41 dc  	addi	a1, gp, -572
  105b3c: e8 10        	addi	a0, sp, 108
  105b3e: ef 20 a0 69  	jal	0x1081d8 <__match>
  105b42: e3 04 05 d6  	beqz	a0, 0x1058aa <_strtod_l+0xf2>
  105b46: b6 57        	lw	a5, 108(sp)
  105b48: 03 c7 07 00  	lbu	a4, 0(a5)
  105b4c: 93 07 80 02  	li	a5, 40
  105b50: 63 1b f7 06  	bne	a4, a5, 0x105bc6 <_strtod_l+0x40e>
  105b54: b0 18        	addi	a2, sp, 120
  105b56: 93 85 01 df  	addi	a1, gp, -528
  105b5a: e8 10        	addi	a0, sp, 108
  105b5c: ef 20 c0 6a  	jal	0x108208 <__hexnan>
  105b60: 95 47        	li	a5, 5
  105b62: 63 12 f5 06  	bne	a0, a5, 0x105bc6 <_strtod_l+0x40e>
  105b66: f6 55        	lw	a1, 124(sp)
  105b68: 37 04 f0 7f  	lui	s0, 524032
  105b6c: e6 54        	lw	s1, 120(sp)
  105b6e: 4d 8c        	or	s0, s0, a1
  105b70: dd b1        	j	0x105856 <_strtod_l+0x9e>
  105b72: b6 57        	lw	a5, 108(sp)
  105b74: 13 86 17 00  	addi	a2, a5, 1
  105b78: b2 d6        	sw	a2, 108(sp)
  105b7a: 83 c7 17 00  	lbu	a5, 1(a5)
  105b7e: 2d bf        	j	0x105ab8 <_strtod_l+0x300>
  105b80: b3 86 d6 03  	mul	a3, a3, t4
  105b84: be 96        	add	a3, a3, a5
  105b86: 93 86 06 fd  	addi	a3, a3, -48
  105b8a: a1 b7        	j	0x105ad2 <_strtod_l+0x31a>
  105b8c: da d6        	sw	s6, 108(sp)
  105b8e: 81 49        	li	s3, 0
  105b90: b5 bf        	j	0x105b0c <_strtod_l+0x354>
  105b92: 13 07 e0 06  	li	a4, 110
  105b96: 79 bf        	j	0x105b34 <_strtod_l+0x37c>
  105b98: 93 85 81 db  	addi	a1, gp, -584
  105b9c: e8 10        	addi	a0, sp, 108
  105b9e: ef 20 a0 63  	jal	0x1081d8 <__match>
  105ba2: e3 04 05 d0  	beqz	a0, 0x1058aa <_strtod_l+0xf2>
  105ba6: b6 57        	lw	a5, 108(sp)
  105ba8: 93 85 c1 db  	addi	a1, gp, -580
  105bac: fd 17        	addi	a5, a5, -1
  105bae: e8 10        	addi	a0, sp, 108
  105bb0: be d6        	sw	a5, 108(sp)
  105bb2: ef 20 60 62  	jal	0x1081d8 <__match>
  105bb6: 01 e5        	bnez	a0, 0x105bbe <_strtod_l+0x406>
  105bb8: b6 57        	lw	a5, 108(sp)
  105bba: 85 07        	addi	a5, a5, 1
  105bbc: be d6        	sw	a5, 108(sp)
  105bbe: 37 04 f0 7f  	lui	s0, 524032
  105bc2: 81 44        	li	s1, 0
  105bc4: 49 b9        	j	0x105856 <_strtod_l+0x9e>
  105bc6: 13 85 41 07  	addi	a0, gp, 116
  105bca: ef 20 60 01  	jal	0x107be0 <nan>
  105bce: aa 84        	mv	s1, a0
  105bd0: 2e 84        	mv	s0, a1
  105bd2: 51 b1        	j	0x105856 <_strtod_l+0x9e>
  105bd4: 33 8b 49 41  	sub	s6, s3, s4
  105bd8: 63 13 0c 00  	bnez	s8, 0x105bde <_strtod_l+0x426>
  105bdc: 66 8c        	mv	s8, s9
  105bde: c1 47        	li	a5, 16
  105be0: e6 8d        	mv	s11, s9
  105be2: 63 d3 97 01  	bge	a5, s9, 0x105be8 <_strtod_l+0x430>
  105be6: c1 4d        	li	s11, 16
  105be8: 56 85        	mv	a0, s5
  105bea: ef 50 20 1e  	jal	0x10adcc <__floatunsidf>
  105bee: a5 47        	li	a5, 9
  105bf0: aa 84        	mv	s1, a0
  105bf2: 2e 84        	mv	s0, a1
  105bf4: 63 d9 97 03  	bge	a5, s9, 0x105c26 <_strtod_l+0x46e>
  105bf8: 93 87 7d ff  	addi	a5, s11, -9
  105bfc: 13 87 81 cb  	addi	a4, gp, -840
  105c00: 8e 07        	slli	a5, a5, 3
  105c02: ba 97        	add	a5, a5, a4
  105c04: 90 43        	lw	a2, 0(a5)
  105c06: d4 43        	lw	a3, 4(a5)
  105c08: ef 40 a0 13  	jal	0x109d42 <__muldf3>
  105c0c: aa 84        	mv	s1, a0
  105c0e: 5e 85        	mv	a0, s7
  105c10: 2e 84        	mv	s0, a1
  105c12: ef 50 a0 1b  	jal	0x10adcc <__floatunsidf>
  105c16: 2a 86        	mv	a2, a0
  105c18: ae 86        	mv	a3, a1
  105c1a: 26 85        	mv	a0, s1
  105c1c: a2 85        	mv	a1, s0
  105c1e: ef 20 70 7f  	jal	0x108c14 <__adddf3>
  105c22: aa 84        	mv	s1, a0
  105c24: 2e 84        	mv	s0, a1
  105c26: bd 47        	li	a5, 15
  105c28: 63 c4 97 09  	blt	a5, s9, 0x105cb0 <_strtod_l+0x4f8>
  105c2c: e3 05 0b c2  	beqz	s6, 0x105856 <_strtod_l+0x9e>
  105c30: 63 5e 60 05  	blez	s6, 0x105c8c <_strtod_l+0x4d4>
  105c34: 59 47        	li	a4, 22
  105c36: 63 4f 67 01  	blt	a4, s6, 0x105c54 <_strtod_l+0x49c>
  105c3a: 0e 0b        	slli	s6, s6, 3
  105c3c: 93 87 81 cb  	addi	a5, gp, -840
  105c40: 3e 9b        	add	s6, s6, a5
  105c42: 03 25 0b 00  	lw	a0, 0(s6)
  105c46: 83 25 4b 00  	lw	a1, 4(s6)
  105c4a: 26 86        	mv	a2, s1
  105c4c: a2 86        	mv	a3, s0
  105c4e: ef 40 40 0f  	jal	0x109d42 <__muldf3>
  105c52: b5 bf        	j	0x105bce <_strtod_l+0x416>
  105c54: 13 07 50 02  	li	a4, 37
  105c58: 33 07 97 41  	sub	a4, a4, s9
  105c5c: 63 4a 67 05  	blt	a4, s6, 0x105cb0 <_strtod_l+0x4f8>
  105c60: b3 8c 97 41  	sub	s9, a5, s9
  105c64: 93 89 81 cb  	addi	s3, gp, -840
  105c68: 93 97 3c 00  	slli	a5, s9, 3
  105c6c: ce 97        	add	a5, a5, s3
  105c6e: 88 43        	lw	a0, 0(a5)
  105c70: cc 43        	lw	a1, 4(a5)
  105c72: 26 86        	mv	a2, s1
  105c74: a2 86        	mv	a3, s0
  105c76: ef 40 c0 0c  	jal	0x109d42 <__muldf3>
  105c7a: 33 08 9b 41  	sub	a6, s6, s9
  105c7e: 0e 08        	slli	a6, a6, 3
  105c80: 4e 98        	add	a6, a6, s3
  105c82: 03 26 08 00  	lw	a2, 0(a6)
  105c86: 83 26 48 00  	lw	a3, 4(a6)
  105c8a: d1 b7        	j	0x105c4e <_strtod_l+0x496>
  105c8c: a9 57        	li	a5, -22
  105c8e: 63 41 fb 02  	blt	s6, a5, 0x105cb0 <_strtod_l+0x4f8>
  105c92: b3 09 3a 41  	sub	s3, s4, s3
  105c96: 13 8a 81 cb  	addi	s4, gp, -840
  105c9a: 8e 09        	slli	s3, s3, 3
  105c9c: d2 99        	add	s3, s3, s4
  105c9e: 03 a6 09 00  	lw	a2, 0(s3)
  105ca2: 83 a6 49 00  	lw	a3, 4(s3)
  105ca6: 26 85        	mv	a0, s1
  105ca8: a2 85        	mv	a1, s0
  105caa: ef 30 50 01  	jal	0x1094be <__divdf3>
  105cae: 05 b7        	j	0x105bce <_strtod_l+0x416>
  105cb0: b3 8d bc 41  	sub	s11, s9, s11
  105cb4: da 9d        	add	s11, s11, s6
  105cb6: 63 52 b0 11  	blez	s11, 0x105dba <_strtod_l+0x602>
  105cba: 93 f7 fd 00  	andi	a5, s11, 15
  105cbe: 89 cf        	beqz	a5, 0x105cd8 <_strtod_l+0x520>
  105cc0: 13 87 81 cb  	addi	a4, gp, -840
  105cc4: 8e 07        	slli	a5, a5, 3
  105cc6: ba 97        	add	a5, a5, a4
  105cc8: 88 43        	lw	a0, 0(a5)
  105cca: cc 43        	lw	a1, 4(a5)
  105ccc: 26 86        	mv	a2, s1
  105cce: a2 86        	mv	a3, s0
  105cd0: ef 40 20 07  	jal	0x109d42 <__muldf3>
  105cd4: aa 84        	mv	s1, a0
  105cd6: 2e 84        	mv	s0, a1
  105cd8: 93 fd 0d ff  	andi	s11, s11, -16
  105cdc: 63 83 0d 0a  	beqz	s11, 0x105d82 <_strtod_l+0x5ca>
  105ce0: 93 07 40 13  	li	a5, 308
  105ce4: 63 d4 b7 05  	bge	a5, s11, 0x105d2c <_strtod_l+0x574>
  105ce8: 81 4a        	li	s5, 0
  105cea: 81 49        	li	s3, 0
  105cec: 01 4c        	li	s8, 0
  105cee: 01 4a        	li	s4, 0
  105cf0: 93 07 20 02  	li	a5, 34
  105cf4: 23 20 f9 00  	sw	a5, 0(s2)
  105cf8: 37 04 f0 7f  	lui	s0, 524032
  105cfc: 81 44        	li	s1, 0
  105cfe: e3 0c 0c b4  	beqz	s8, 0x105856 <_strtod_l+0x9e>
  105d02: c6 55        	lw	a1, 112(sp)
  105d04: 4a 85        	mv	a0, s2
  105d06: ef e0 9f f9  	jal	0x104c9e <_Bfree>
  105d0a: d2 85        	mv	a1, s4
  105d0c: 4a 85        	mv	a0, s2
  105d0e: ef e0 1f f9  	jal	0x104c9e <_Bfree>
  105d12: ce 85        	mv	a1, s3
  105d14: 4a 85        	mv	a0, s2
  105d16: ef e0 9f f8  	jal	0x104c9e <_Bfree>
  105d1a: e2 85        	mv	a1, s8
  105d1c: 4a 85        	mv	a0, s2
  105d1e: ef e0 1f f8  	jal	0x104c9e <_Bfree>
  105d22: d6 85        	mv	a1, s5
  105d24: 4a 85        	mv	a0, s2
  105d26: ef e0 9f f7  	jal	0x104c9e <_Bfree>
  105d2a: 35 b6        	j	0x105856 <_strtod_l+0x9e>
  105d2c: 93 88 01 c9  	addi	a7, gp, -880
  105d30: 93 dd 4d 40  	srai	s11, s11, 4
  105d34: a6 87        	mv	a5, s1
  105d36: a2 85        	mv	a1, s0
  105d38: 81 46        	li	a3, 0
  105d3a: 01 47        	li	a4, 0
  105d3c: 93 8b 01 c9  	addi	s7, gp, -880
  105d40: 05 4e        	li	t3, 1
  105d42: 63 42 be 05  	blt	t3, s11, 0x105d86 <_strtod_l+0x5ce>
  105d46: 99 c2        	beqz	a3, 0x105d4c <_strtod_l+0x594>
  105d48: be 84        	mv	s1, a5
  105d4a: 2e 84        	mv	s0, a1
  105d4c: 93 17 37 00  	slli	a5, a4, 3
  105d50: de 97        	add	a5, a5, s7
  105d52: 88 43        	lw	a0, 0(a5)
  105d54: cc 43        	lw	a1, 4(a5)
  105d56: 37 07 b0 fc  	lui	a4, 1035008
  105d5a: 22 97        	add	a4, a4, s0
  105d5c: 26 86        	mv	a2, s1
  105d5e: ba 86        	mv	a3, a4
  105d60: ef 30 30 7e  	jal	0x109d42 <__muldf3>
  105d64: 37 04 f0 7f  	lui	s0, 524032
  105d68: b3 77 b4 00  	and	a5, s0, a1
  105d6c: 37 07 a0 7c  	lui	a4, 510464
  105d70: aa 84        	mv	s1, a0
  105d72: e3 6b f7 f6  	bltu	a4, a5, 0x105ce8 <_strtod_l+0x530>
  105d76: 37 07 90 7c  	lui	a4, 510208
  105d7a: 63 7c f7 02  	bgeu	a4, a5, 0x105db2 <_strtod_l+0x5fa>
  105d7e: 7d 14        	addi	s0, s0, -1
  105d80: fd 54        	li	s1, -1
  105d82: 81 4b        	li	s7, 0
  105d84: dd a8        	j	0x105e7a <_strtod_l+0x6c2>
  105d86: 13 f6 1d 00  	andi	a2, s11, 1
  105d8a: 19 ce        	beqz	a2, 0x105da8 <_strtod_l+0x5f0>
  105d8c: 83 a6 48 00  	lw	a3, 4(a7)
  105d90: 03 a6 08 00  	lw	a2, 0(a7)
  105d94: 3e 85        	mv	a0, a5
  105d96: 3a ca        	sw	a4, 20(sp)
  105d98: 46 c8        	sw	a7, 16(sp)
  105d9a: ef 30 90 7a  	jal	0x109d42 <__muldf3>
  105d9e: 52 47        	lw	a4, 20(sp)
  105da0: c2 48        	lw	a7, 16(sp)
  105da2: aa 87        	mv	a5, a0
  105da4: 85 46        	li	a3, 1
  105da6: 05 4e        	li	t3, 1
  105da8: 05 07        	addi	a4, a4, 1
  105daa: 93 dd 1d 40  	srai	s11, s11, 1
  105dae: a1 08        	addi	a7, a7, 8
  105db0: 49 bf        	j	0x105d42 <_strtod_l+0x58a>
  105db2: 37 04 50 03  	lui	s0, 13568
  105db6: 2e 94        	add	s0, s0, a1
  105db8: e9 b7        	j	0x105d82 <_strtod_l+0x5ca>
  105dba: e3 84 0d fc  	beqz	s11, 0x105d82 <_strtod_l+0x5ca>
  105dbe: b3 0d b0 41  	neg	s11, s11
  105dc2: 93 f7 fd 00  	andi	a5, s11, 15
  105dc6: 89 cf        	beqz	a5, 0x105de0 <_strtod_l+0x628>
  105dc8: 13 87 81 cb  	addi	a4, gp, -840
  105dcc: 8e 07        	slli	a5, a5, 3
  105dce: ba 97        	add	a5, a5, a4
  105dd0: 90 43        	lw	a2, 0(a5)
  105dd2: d4 43        	lw	a3, 4(a5)
  105dd4: 26 85        	mv	a0, s1
  105dd6: a2 85        	mv	a1, s0
  105dd8: ef 30 60 6e  	jal	0x1094be <__divdf3>
  105ddc: aa 84        	mv	s1, a0
  105dde: 2e 84        	mv	s0, a1
  105de0: 93 dd 4d 40  	srai	s11, s11, 4
  105de4: e3 8f 0d f8  	beqz	s11, 0x105d82 <_strtod_l+0x5ca>
  105de8: fd 47        	li	a5, 31
  105dea: 63 dd b7 01  	bge	a5, s11, 0x105e04 <_strtod_l+0x64c>
  105dee: 81 4a        	li	s5, 0
  105df0: 81 49        	li	s3, 0
  105df2: 01 4c        	li	s8, 0
  105df4: 01 4a        	li	s4, 0
  105df6: 93 07 20 02  	li	a5, 34
  105dfa: 81 44        	li	s1, 0
  105dfc: 01 44        	li	s0, 0
  105dfe: 23 20 f9 00  	sw	a5, 0(s2)
  105e02: f5 bd        	j	0x105cfe <_strtod_l+0x546>
  105e04: 93 fb 0d 01  	andi	s7, s11, 16
  105e08: 63 84 0b 00  	beqz	s7, 0x105e10 <_strtod_l+0x658>
  105e0c: 93 0b a0 06  	li	s7, 106
  105e10: a6 87        	mv	a5, s1
  105e12: a2 85        	mv	a1, s0
  105e14: 13 87 81 e0  	addi	a4, gp, -504
  105e18: 81 46        	li	a3, 0
  105e1a: 13 f6 1d 00  	andi	a2, s11, 1
  105e1e: 11 ca        	beqz	a2, 0x105e32 <_strtod_l+0x67a>
  105e20: 54 43        	lw	a3, 4(a4)
  105e22: 10 43        	lw	a2, 0(a4)
  105e24: 3e 85        	mv	a0, a5
  105e26: 3a c8        	sw	a4, 16(sp)
  105e28: ef 30 b0 71  	jal	0x109d42 <__muldf3>
  105e2c: 42 47        	lw	a4, 16(sp)
  105e2e: aa 87        	mv	a5, a0
  105e30: 85 46        	li	a3, 1
  105e32: 93 dd 1d 40  	srai	s11, s11, 1
  105e36: 21 07        	addi	a4, a4, 8
  105e38: e3 91 0d fe  	bnez	s11, 0x105e1a <_strtod_l+0x662>
  105e3c: 99 c2        	beqz	a3, 0x105e42 <_strtod_l+0x68a>
  105e3e: be 84        	mv	s1, a5
  105e40: 2e 84        	mv	s0, a1
  105e42: 63 85 0b 02  	beqz	s7, 0x105e6c <_strtod_l+0x6b4>
  105e46: 13 57 44 01  	srli	a4, s0, 20
  105e4a: 13 77 f7 7f  	andi	a4, a4, 2047
  105e4e: 93 07 b0 06  	li	a5, 107
  105e52: 99 8f        	sub	a5, a5, a4
  105e54: 63 5c f0 00  	blez	a5, 0x105e6c <_strtod_l+0x6b4>
  105e58: fd 46        	li	a3, 31
  105e5a: 63 df f6 24  	bge	a3, a5, 0x1060b8 <_strtod_l+0x900>
  105e5e: 93 06 40 03  	li	a3, 52
  105e62: 81 44        	li	s1, 0
  105e64: 63 d2 f6 24  	bge	a3, a5, 0x1060a8 <_strtod_l+0x8f0>
  105e68: 37 04 70 03  	lui	s0, 14080
  105e6c: 01 46        	li	a2, 0
  105e6e: 81 46        	li	a3, 0
  105e70: 26 85        	mv	a0, s1
  105e72: a2 85        	mv	a1, s0
  105e74: ef 30 f0 4c  	jal	0x109b42 <__nedf2>
  105e78: 3d d9        	beqz	a0, 0x105dee <_strtod_l+0x636>
  105e7a: b2 45        	lw	a1, 12(sp)
  105e7c: 62 86        	mv	a2, s8
  105e7e: 56 87        	mv	a4, s5
  105e80: e6 86        	mv	a3, s9
  105e82: 4a 85        	mv	a0, s2
  105e84: ef e0 df f2  	jal	0x104db0 <__s2b>
  105e88: 2a 8c        	mv	s8, a0
  105e8a: e3 0f 05 e4  	beqz	a0, 0x105ce8 <_strtod_l+0x530>
  105e8e: 93 57 fb 41  	srai	a5, s6, 31
  105e92: b3 09 3a 41  	sub	s3, s4, s3
  105e96: b3 f7 f9 00  	and	a5, s3, a5
  105e9a: 3e ce        	sw	a5, 28(sp)
  105e9c: 5a cc        	sw	s6, 24(sp)
  105e9e: 63 53 0b 00  	bgez	s6, 0x105ea4 <_strtod_l+0x6ec>
  105ea2: 02 cc        	sw	zero, 24(sp)
  105ea4: 03 a8 41 85  	lw	a6, -1964(gp)
  105ea8: 83 a7 01 85  	lw	a5, -1968(gp)
  105eac: 81 4a        	li	s5, 0
  105eae: 42 d6        	sw	a6, 44(sp)
  105eb0: 3e d4        	sw	a5, 40(sp)
  105eb2: 03 a8 c1 82  	lw	a6, -2004(gp)
  105eb6: 83 a7 81 82  	lw	a5, -2008(gp)
  105eba: 81 49        	li	s3, 0
  105ebc: 42 da        	sw	a6, 52(sp)
  105ebe: 3e d8        	sw	a5, 48(sp)
  105ec0: 03 a8 41 87  	lw	a6, -1932(gp)
  105ec4: 83 a7 01 87  	lw	a5, -1936(gp)
  105ec8: 42 de        	sw	a6, 60(sp)
  105eca: 3e dc        	sw	a5, 56(sp)
  105ecc: 03 a8 41 86  	lw	a6, -1948(gp)
  105ed0: 83 a7 01 86  	lw	a5, -1952(gp)
  105ed4: c2 c2        	sw	a6, 68(sp)
  105ed6: be c0        	sw	a5, 64(sp)
  105ed8: 03 a8 c1 86  	lw	a6, -1940(gp)
  105edc: 83 a7 81 86  	lw	a5, -1944(gp)
  105ee0: c2 c6        	sw	a6, 76(sp)
  105ee2: be c4        	sw	a5, 72(sp)
  105ee4: 83 25 4c 00  	lw	a1, 4(s8)
  105ee8: 4a 85        	mv	a0, s2
  105eea: ef e0 ff d0  	jal	0x104bf8 <_Balloc>
  105eee: 2a 8a        	mv	s4, a0
  105ef0: e3 00 05 e0  	beqz	a0, 0x105cf0 <_strtod_l+0x538>
  105ef4: 03 26 0c 01  	lw	a2, 16(s8)
  105ef8: 93 05 cc 00  	addi	a1, s8, 12
  105efc: 31 05        	addi	a0, a0, 12
  105efe: 09 06        	addi	a2, a2, 2
  105f00: 0a 06        	slli	a2, a2, 2
  105f02: ef d0 3f dc  	jal	0x103cc4 <memcpy>
  105f06: b8 18        	addi	a4, sp, 120
  105f08: d4 18        	addi	a3, sp, 116
  105f0a: 22 86        	mv	a2, s0
  105f0c: a6 85        	mv	a1, s1
  105f0e: 4a 85        	mv	a0, s2
  105f10: 26 c6        	sw	s1, 12(sp)
  105f12: 22 c8        	sw	s0, 16(sp)
  105f14: ef f0 ef df  	jal	0x105512 <__d2b>
  105f18: aa d8        	sw	a0, 112(sp)
  105f1a: e3 0b 05 dc  	beqz	a0, 0x105cf0 <_strtod_l+0x538>
  105f1e: 85 45        	li	a1, 1
  105f20: 4a 85        	mv	a0, s2
  105f22: ef e0 9f ff  	jal	0x104f1a <__i2b>
  105f26: aa 89        	mv	s3, a0
  105f28: e3 04 05 dc  	beqz	a0, 0x105cf0 <_strtod_l+0x538>
  105f2c: d6 57        	lw	a5, 116(sp)
  105f2e: 63 ca 07 18  	bltz	a5, 0x1060c2 <_strtod_l+0x90a>
  105f32: 72 47        	lw	a4, 28(sp)
  105f34: e2 4c        	lw	s9, 24(sp)
  105f36: b3 8d e7 00  	add	s11, a5, a4
  105f3a: 66 57        	lw	a4, 120(sp)
  105f3c: b3 87 77 41  	sub	a5, a5, s7
  105f40: 93 06 60 03  	li	a3, 54
  105f44: ba 97        	add	a5, a5, a4
  105f46: 99 8e        	sub	a3, a3, a4
  105f48: fd 17        	addi	a5, a5, -1
  105f4a: 13 07 20 c0  	li	a4, -1022
  105f4e: 63 da e7 18  	bge	a5, a4, 0x1060e2 <_strtod_l+0x92a>
  105f52: 1d 8f        	sub	a4, a4, a5
  105f54: 7d 46        	li	a2, 31
  105f56: 99 8e        	sub	a3, a3, a4
  105f58: 63 4a e6 16  	blt	a2, a4, 0x1060cc <_strtod_l+0x914>
  105f5c: 85 47        	li	a5, 1
  105f5e: b3 97 e7 00  	sll	a5, a5, a4
  105f62: 3e d0        	sw	a5, 32(sp)
  105f64: 02 ca        	sw	zero, 20(sp)
  105f66: b6 9c        	add	s9, s9, a3
  105f68: 33 87 dd 00  	add	a4, s11, a3
  105f6c: de 9c        	add	s9, s9, s7
  105f6e: ee 87        	mv	a5, s11
  105f70: 63 53 b7 01  	bge	a4, s11, 0x105f76 <_strtod_l+0x7be>
  105f74: ba 87        	mv	a5, a4
  105f76: 63 d3 fc 00  	bge	s9, a5, 0x105f7c <_strtod_l+0x7c4>
  105f7a: e6 87        	mv	a5, s9
  105f7c: 63 57 f0 00  	blez	a5, 0x105f8a <_strtod_l+0x7d2>
  105f80: 1d 8f        	sub	a4, a4, a5
  105f82: b3 8c fc 40  	sub	s9, s9, a5
  105f86: b3 8d fd 40  	sub	s11, s11, a5
  105f8a: f2 47        	lw	a5, 28(sp)
  105f8c: 63 5a f0 02  	blez	a5, 0x105fc0 <_strtod_l+0x808>
  105f90: ce 85        	mv	a1, s3
  105f92: 3e 86        	mv	a2, a5
  105f94: 4a 85        	mv	a0, s2
  105f96: ba ca        	sw	a4, 84(sp)
  105f98: ef f0 af 92  	jal	0x1050c2 <__pow5mult>
  105f9c: aa 89        	mv	s3, a0
  105f9e: e3 09 05 d4  	beqz	a0, 0x105cf0 <_strtod_l+0x538>
  105fa2: 46 56        	lw	a2, 112(sp)
  105fa4: aa 85        	mv	a1, a0
  105fa6: 4a 85        	mv	a0, s2
  105fa8: ef e0 3f fa  	jal	0x104f4a <__multiply>
  105fac: aa c8        	sw	a0, 80(sp)
  105fae: e3 01 05 d4  	beqz	a0, 0x105cf0 <_strtod_l+0x538>
  105fb2: c6 55        	lw	a1, 112(sp)
  105fb4: 4a 85        	mv	a0, s2
  105fb6: ef e0 9f ce  	jal	0x104c9e <_Bfree>
  105fba: c6 47        	lw	a5, 80(sp)
  105fbc: 56 47        	lw	a4, 84(sp)
  105fbe: be d8        	sw	a5, 112(sp)
  105fc0: 63 43 e0 12  	bgtz	a4, 0x1060e6 <_strtod_l+0x92e>
  105fc4: 63 5a 60 01  	blez	s6, 0x105fd8 <_strtod_l+0x820>
  105fc8: 62 46        	lw	a2, 24(sp)
  105fca: d2 85        	mv	a1, s4
  105fcc: 4a 85        	mv	a0, s2
  105fce: ef f0 4f 8f  	jal	0x1050c2 <__pow5mult>
  105fd2: 2a 8a        	mv	s4, a0
  105fd4: e3 0e 05 d0  	beqz	a0, 0x105cf0 <_strtod_l+0x538>
  105fd8: 63 5a 90 01  	blez	s9, 0x105fec <_strtod_l+0x834>
  105fdc: d2 85        	mv	a1, s4
  105fde: 66 86        	mv	a2, s9
  105fe0: 4a 85        	mv	a0, s2
  105fe2: ef f0 ef 9a  	jal	0x105190 <__lshift>
  105fe6: 2a 8a        	mv	s4, a0
  105fe8: e3 04 05 d0  	beqz	a0, 0x105cf0 <_strtod_l+0x538>
  105fec: 63 5a b0 01  	blez	s11, 0x106000 <_strtod_l+0x848>
  105ff0: ce 85        	mv	a1, s3
  105ff2: 6e 86        	mv	a2, s11
  105ff4: 4a 85        	mv	a0, s2
  105ff6: ef f0 af 99  	jal	0x105190 <__lshift>
  105ffa: aa 89        	mv	s3, a0
  105ffc: e3 0a 05 ce  	beqz	a0, 0x105cf0 <_strtod_l+0x538>
  106000: c6 55        	lw	a1, 112(sp)
  106002: 52 86        	mv	a2, s4
  106004: 4a 85        	mv	a0, s2
  106006: ef f0 cf ab  	jal	0x1052c2 <__mdiff>
  10600a: aa 8a        	mv	s5, a0
  10600c: e3 02 05 ce  	beqz	a0, 0x105cf0 <_strtod_l+0x538>
  106010: 83 2c c5 00  	lw	s9, 12(a0)
  106014: ce 85        	mv	a1, s3
  106016: 23 26 05 00  	sw	zero, 12(a0)
  10601a: ef f0 2f a7  	jal	0x10528c <__mcmp>
  10601e: 63 5d 05 0c  	bgez	a0, 0x1060f8 <_strtod_l+0x940>
  106022: b3 ec 9c 00  	or	s9, s9, s1
  106026: 63 95 0c 12  	bnez	s9, 0x106150 <_strtod_l+0x998>
  10602a: 93 17 c4 00  	slli	a5, s0, 12
  10602e: 63 91 07 12  	bnez	a5, 0x106150 <_strtod_l+0x998>
  106032: b7 07 f0 7f  	lui	a5, 524032
  106036: e1 8f        	and	a5, a5, s0
  106038: 37 07 b0 06  	lui	a4, 27392
  10603c: 63 7a f7 10  	bgeu	a4, a5, 0x106150 <_strtod_l+0x998>
  106040: 83 a7 4a 01  	lw	a5, 20(s5)
  106044: 91 e7        	bnez	a5, 0x106050 <_strtod_l+0x898>
  106046: 03 a7 0a 01  	lw	a4, 16(s5)
  10604a: 85 47        	li	a5, 1
  10604c: 63 d2 e7 10  	bge	a5, a4, 0x106150 <_strtod_l+0x998>
  106050: d6 85        	mv	a1, s5
  106052: 05 46        	li	a2, 1
  106054: 4a 85        	mv	a0, s2
  106056: ef f0 af 93  	jal	0x105190 <__lshift>
  10605a: ce 85        	mv	a1, s3
  10605c: aa 8a        	mv	s5, a0
  10605e: ef f0 ef a2  	jal	0x10528c <__mcmp>
  106062: 63 57 a0 0e  	blez	a0, 0x106150 <_strtod_l+0x998>
  106066: 63 8e 0b 10  	beqz	s7, 0x106182 <_strtod_l+0x9ca>
  10606a: b7 07 f0 7f  	lui	a5, 524032
  10606e: e1 8f        	and	a5, a5, s0
  106070: 37 07 b0 06  	lui	a4, 27392
  106074: 63 47 f7 10  	blt	a4, a5, 0x106182 <_strtod_l+0x9ca>
  106078: 37 07 70 03  	lui	a4, 14080
  10607c: e3 5d f7 d6  	bge	a4, a5, 0x105df6 <_strtod_l+0x63e>
  106080: 03 a6 81 87  	lw	a2, -1928(gp)
  106084: 83 a6 c1 87  	lw	a3, -1924(gp)
  106088: 26 85        	mv	a0, s1
  10608a: a2 85        	mv	a1, s0
  10608c: ef 30 70 4b  	jal	0x109d42 <__muldf3>
  106090: b7 07 f0 7f  	lui	a5, 524032
  106094: 2e 84        	mv	s0, a1
  106096: fd 8d        	and	a1, a1, a5
  106098: aa 84        	mv	s1, a0
  10609a: e3 94 05 c6  	bnez	a1, 0x105d02 <_strtod_l+0x54a>
  10609e: 93 07 20 02  	li	a5, 34
  1060a2: 23 20 f9 00  	sw	a5, 0(s2)
  1060a6: b1 b9        	j	0x105d02 <_strtod_l+0x54a>
  1060a8: 93 07 b0 04  	li	a5, 75
  1060ac: 99 8f        	sub	a5, a5, a4
  1060ae: 7d 57        	li	a4, -1
  1060b0: 33 17 f7 00  	sll	a4, a4, a5
  1060b4: 79 8c        	and	s0, s0, a4
  1060b6: 5d bb        	j	0x105e6c <_strtod_l+0x6b4>
  1060b8: 7d 57        	li	a4, -1
  1060ba: b3 17 f7 00  	sll	a5, a4, a5
  1060be: fd 8c        	and	s1, s1, a5
  1060c0: 75 b3        	j	0x105e6c <_strtod_l+0x6b4>
  1060c2: 62 47        	lw	a4, 24(sp)
  1060c4: f2 4d        	lw	s11, 28(sp)
  1060c6: b3 0c f7 40  	sub	s9, a4, a5
  1060ca: 85 bd        	j	0x105f3a <_strtod_l+0x782>
  1060cc: 13 07 20 be  	li	a4, -1054
  1060d0: b3 07 f7 40  	sub	a5, a4, a5
  1060d4: 05 47        	li	a4, 1
  1060d6: b3 17 f7 00  	sll	a5, a4, a5
  1060da: 3e ca        	sw	a5, 20(sp)
  1060dc: 85 47        	li	a5, 1
  1060de: 3e d0        	sw	a5, 32(sp)
  1060e0: 59 b5        	j	0x105f66 <_strtod_l+0x7ae>
  1060e2: 02 ca        	sw	zero, 20(sp)
  1060e4: e5 bf        	j	0x1060dc <_strtod_l+0x924>
  1060e6: c6 55        	lw	a1, 112(sp)
  1060e8: 3a 86        	mv	a2, a4
  1060ea: 4a 85        	mv	a0, s2
  1060ec: ef f0 4f 8a  	jal	0x105190 <__lshift>
  1060f0: aa d8        	sw	a0, 112(sp)
  1060f2: e3 19 05 ec  	bnez	a0, 0x105fc4 <_strtod_l+0x80c>
  1060f6: ed be        	j	0x105cf0 <_strtod_l+0x538>
  1060f8: 61 e5        	bnez	a0, 0x1061c0 <_strtod_l+0xa08>
  1060fa: 37 07 10 00  	lui	a4, 256
  1060fe: 7d 17        	addi	a4, a4, -1
  106100: b3 77 e4 00  	and	a5, s0, a4
  106104: 63 89 0c 04  	beqz	s9, 0x106156 <_strtod_l+0x99e>
  106108: 63 99 e7 04  	bne	a5, a4, 0x10615a <_strtod_l+0x9a2>
  10610c: 7d 57        	li	a4, -1
  10610e: 63 80 0b 02  	beqz	s7, 0x10612e <_strtod_l+0x976>
  106112: b7 07 f0 7f  	lui	a5, 524032
  106116: e1 8f        	and	a5, a5, s0
  106118: b7 06 a0 06  	lui	a3, 27136
  10611c: 63 e9 f6 00  	bltu	a3, a5, 0x10612e <_strtod_l+0x976>
  106120: d1 83        	srli	a5, a5, 20
  106122: 93 06 b0 06  	li	a3, 107
  106126: b3 87 f6 40  	sub	a5, a3, a5
  10612a: 33 17 f7 00  	sll	a4, a4, a5
  10612e: 63 96 e4 02  	bne	s1, a4, 0x10615a <_strtod_l+0x9a2>
  106132: b7 07 f0 7f  	lui	a5, 524032
  106136: fd 17        	addi	a5, a5, -1
  106138: 63 15 f4 00  	bne	s0, a5, 0x106142 <_strtod_l+0x98a>
  10613c: fd 57        	li	a5, -1
  10613e: e3 89 f4 ba  	beq	s1, a5, 0x105cf0 <_strtod_l+0x538>
  106142: b7 05 f0 7f  	lui	a1, 524032
  106146: e1 8d        	and	a1, a1, s0
  106148: 37 04 10 00  	lui	s0, 256
  10614c: 2e 94        	add	s0, s0, a1
  10614e: 81 44        	li	s1, 0
  106150: e3 98 0b f2  	bnez	s7, 0x106080 <_strtod_l+0x8c8>
  106154: 7d b6        	j	0x105d02 <_strtod_l+0x54a>
  106156: c5 8f        	or	a5, a5, s1
  106158: 99 d7        	beqz	a5, 0x106066 <_strtod_l+0x8ae>
  10615a: d2 47        	lw	a5, 20(sp)
  10615c: 9d cf        	beqz	a5, 0x10619a <_strtod_l+0x9e2>
  10615e: e1 8f        	and	a5, a5, s0
  106160: e5 db        	beqz	a5, 0x106150 <_strtod_l+0x998>
  106162: 5e 86        	mv	a2, s7
  106164: 26 85        	mv	a0, s1
  106166: a2 85        	mv	a1, s0
  106168: 63 8c 0c 02  	beqz	s9, 0x1061a0 <_strtod_l+0x9e8>
  10616c: ef f0 af df  	jal	0x105766 <sulp>
  106170: 2a 86        	mv	a2, a0
  106172: ae 86        	mv	a3, a1
  106174: 32 45        	lw	a0, 12(sp)
  106176: c2 45        	lw	a1, 16(sp)
  106178: ef 20 d0 29  	jal	0x108c14 <__adddf3>
  10617c: aa 84        	mv	s1, a0
  10617e: 2e 84        	mv	s0, a1
  106180: c1 bf        	j	0x106150 <_strtod_l+0x998>
  106182: b7 05 f0 7f  	lui	a1, 524032
  106186: 6d 8c        	and	s0, s0, a1
  106188: b7 05 f0 ff  	lui	a1, 1048320
  10618c: a2 95        	add	a1, a1, s0
  10618e: 37 04 10 00  	lui	s0, 256
  106192: 7d 14        	addi	s0, s0, -1
  106194: 4d 8c        	or	s0, s0, a1
  106196: fd 54        	li	s1, -1
  106198: 65 bf        	j	0x106150 <_strtod_l+0x998>
  10619a: 82 57        	lw	a5, 32(sp)
  10619c: e5 8f        	and	a5, a5, s1
  10619e: c9 b7        	j	0x106160 <_strtod_l+0x9a8>
  1061a0: ef f0 6f dc  	jal	0x105766 <sulp>
  1061a4: 2a 86        	mv	a2, a0
  1061a6: ae 86        	mv	a3, a1
  1061a8: 32 45        	lw	a0, 12(sp)
  1061aa: c2 45        	lw	a1, 16(sp)
  1061ac: ef 40 c0 12  	jal	0x10a2d8 <__subdf3>
  1061b0: 01 46        	li	a2, 0
  1061b2: 81 46        	li	a3, 0
  1061b4: aa 84        	mv	s1, a0
  1061b6: 2e 84        	mv	s0, a1
  1061b8: ef 30 b0 18  	jal	0x109b42 <__nedf2>
  1061bc: 51 f9        	bnez	a0, 0x106150 <_strtod_l+0x998>
  1061be: 25 b9        	j	0x105df6 <_strtod_l+0x63e>
  1061c0: ce 85        	mv	a1, s3
  1061c2: 56 85        	mv	a0, s5
  1061c4: ef f0 6f c3  	jal	0x1055fa <__ratio>
  1061c8: 22 56        	lw	a2, 40(sp)
  1061ca: b2 56        	lw	a3, 44(sp)
  1061cc: 2a ca        	sw	a0, 20(sp)
  1061ce: ae 8d        	mv	s11, a1
  1061d0: ef 30 50 2c  	jal	0x109c94 <__ltdf2>
  1061d4: d2 47        	lw	a5, 20(sp)
  1061d6: 63 40 a0 10  	bgtz	a0, 0x1062d6 <_strtod_l+0xb1e>
  1061da: 63 83 0c 0a  	beqz	s9, 0x106280 <_strtod_l+0xac8>
  1061de: 01 47        	li	a4, 0
  1061e0: b7 07 f0 3f  	lui	a5, 261888
  1061e4: 81 48        	li	a7, 0
  1061e6: 37 08 f0 3f  	lui	a6, 261888
  1061ea: 37 03 f0 7f  	lui	t1, 524032
  1061ee: b3 7d 64 00  	and	s11, s0, t1
  1061f2: b7 06 e0 7f  	lui	a3, 523776
  1061f6: 63 95 dd 16  	bne	s11, a3, 0x106360 <_strtod_l+0xba8>
  1061fa: be c8        	sw	a5, 80(sp)
  1061fc: b7 07 b0 fc  	lui	a5, 1035008
  106200: a2 97        	add	a5, a5, s0
  106202: be 85        	mv	a1, a5
  106204: 26 85        	mv	a0, s1
  106206: c2 ce        	sw	a6, 92(sp)
  106208: c6 cc        	sw	a7, 88(sp)
  10620a: ba ca        	sw	a4, 84(sp)
  10620c: 3e ca        	sw	a5, 20(sp)
  10620e: 26 d0        	sw	s1, 32(sp)
  106210: ef f0 4f a0  	jal	0x105414 <__ulp>
  106214: d6 4e        	lw	t4, 84(sp)
  106216: 46 4e        	lw	t3, 80(sp)
  106218: 2a 86        	mv	a2, a0
  10621a: ae 86        	mv	a3, a1
  10621c: 76 85        	mv	a0, t4
  10621e: f2 85        	mv	a1, t3
  106220: ef 30 30 32  	jal	0x109d42 <__muldf3>
  106224: 02 57        	lw	a4, 32(sp)
  106226: d2 47        	lw	a5, 20(sp)
  106228: 3a 86        	mv	a2, a4
  10622a: be 86        	mv	a3, a5
  10622c: ef 20 90 1e  	jal	0x108c14 <__adddf3>
  106230: 37 03 f0 7f  	lui	t1, 524032
  106234: 33 77 b3 00  	and	a4, t1, a1
  106238: b7 07 a0 7c  	lui	a5, 510464
  10623c: e6 48        	lw	a7, 88(sp)
  10623e: 76 48        	lw	a6, 92(sp)
  106240: aa 84        	mv	s1, a0
  106242: 63 6c f7 0a  	bltu	a4, a5, 0x1062fa <_strtod_l+0xb42>
  106246: c2 47        	lw	a5, 16(sp)
  106248: 7d 13        	addi	t1, t1, -1
  10624a: 63 16 f3 00  	bne	t1, a5, 0x106256 <_strtod_l+0xa9e>
  10624e: 32 47        	lw	a4, 12(sp)
  106250: fd 57        	li	a5, -1
  106252: e3 8f e7 a8  	beq	a5, a4, 0x105cf0 <_strtod_l+0x538>
  106256: 37 04 f0 7f  	lui	s0, 524032
  10625a: 7d 14        	addi	s0, s0, -1
  10625c: fd 54        	li	s1, -1
  10625e: c6 55        	lw	a1, 112(sp)
  106260: 4a 85        	mv	a0, s2
  106262: ef e0 df a3  	jal	0x104c9e <_Bfree>
  106266: d2 85        	mv	a1, s4
  106268: 4a 85        	mv	a0, s2
  10626a: ef e0 5f a3  	jal	0x104c9e <_Bfree>
  10626e: ce 85        	mv	a1, s3
  106270: 4a 85        	mv	a0, s2
  106272: ef e0 df a2  	jal	0x104c9e <_Bfree>
  106276: d6 85        	mv	a1, s5
  106278: 4a 85        	mv	a0, s2
  10627a: ef e0 5f a2  	jal	0x104c9e <_Bfree>
  10627e: 9d b1        	j	0x105ee4 <_strtod_l+0x72c>
  106280: 95 ec        	bnez	s1, 0x1062bc <_strtod_l+0xb04>
  106282: 13 17 c4 00  	slli	a4, s0, 12
  106286: 21 e3        	bnez	a4, 0x1062c6 <_strtod_l+0xb0e>
  106288: 42 56        	lw	a2, 48(sp)
  10628a: d2 56        	lw	a3, 52(sp)
  10628c: 3e 85        	mv	a0, a5
  10628e: ee 85        	mv	a1, s11
  106290: 3e ca        	sw	a5, 20(sp)
  106292: ef 30 30 20  	jal	0x109c94 <__ltdf2>
  106296: 63 4c 05 02  	bltz	a0, 0x1062ce <_strtod_l+0xb16>
  10629a: 03 a6 81 84  	lw	a2, -1976(gp)
  10629e: 83 a6 c1 84  	lw	a3, -1972(gp)
  1062a2: d2 47        	lw	a5, 20(sp)
  1062a4: ee 85        	mv	a1, s11
  1062a6: 3e 85        	mv	a0, a5
  1062a8: ef 30 b0 29  	jal	0x109d42 <__muldf3>
  1062ac: aa 88        	mv	a7, a0
  1062ae: 2e 88        	mv	a6, a1
  1062b0: b7 07 00 80  	lui	a5, 524288
  1062b4: 46 87        	mv	a4, a7
  1062b6: b3 c7 07 01  	xor	a5, a5, a6
  1062ba: 05 bf        	j	0x1061ea <_strtod_l+0xa32>
  1062bc: 85 47        	li	a5, 1
  1062be: 63 94 f4 00  	bne	s1, a5, 0x1062c6 <_strtod_l+0xb0e>
  1062c2: e3 0a 04 b2  	beqz	s0, 0x105df6 <_strtod_l+0x63e>
  1062c6: 01 47        	li	a4, 0
  1062c8: b7 07 f0 bf  	lui	a5, 786176
  1062cc: 21 bf        	j	0x1061e4 <_strtod_l+0xa2c>
  1062ce: 81 48        	li	a7, 0
  1062d0: 37 08 e0 3f  	lui	a6, 261632
  1062d4: f1 bf        	j	0x1062b0 <_strtod_l+0xaf8>
  1062d6: 03 a6 81 84  	lw	a2, -1976(gp)
  1062da: 83 a6 c1 84  	lw	a3, -1972(gp)
  1062de: 3e 85        	mv	a0, a5
  1062e0: ee 85        	mv	a1, s11
  1062e2: ef 30 10 26  	jal	0x109d42 <__muldf3>
  1062e6: 2a 87        	mv	a4, a0
  1062e8: aa 88        	mv	a7, a0
  1062ea: 2e 88        	mv	a6, a1
  1062ec: ae 87        	mv	a5, a1
  1062ee: e3 9e 0c ee  	bnez	s9, 0x1061ea <_strtod_l+0xa32>
  1062f2: b7 07 00 80  	lui	a5, 524288
  1062f6: ad 8f        	xor	a5, a5, a1
  1062f8: cd bd        	j	0x1061ea <_strtod_l+0xa32>
  1062fa: 37 04 50 03  	lui	s0, 13568
  1062fe: 2e 94        	add	s0, s0, a1
  106300: e3 9f 0b f4  	bnez	s7, 0x10625e <_strtod_l+0xaa6>
  106304: b7 07 f0 7f  	lui	a5, 524032
  106308: e1 8f        	and	a5, a5, s0
  10630a: e3 9a fd f4  	bne	s11, a5, 0x10625e <_strtod_l+0xaa6>
  10630e: 46 85        	mv	a0, a7
  106310: c2 85        	mv	a1, a6
  106312: c2 8d        	mv	s11, a6
  106314: 46 c6        	sw	a7, 12(sp)
  106316: ef 40 70 30  	jal	0x10ae1c <__fixdfdi>
  10631a: ef 40 70 40  	jal	0x10af20 <__floatdidf>
  10631e: b2 47        	lw	a5, 12(sp)
  106320: 2a 86        	mv	a2, a0
  106322: ae 86        	mv	a3, a1
  106324: 3e 85        	mv	a0, a5
  106326: ee 85        	mv	a1, s11
  106328: ef 30 10 7b  	jal	0x10a2d8 <__subdf3>
  10632c: 13 17 c4 00  	slli	a4, s0, 12
  106330: 31 83        	srli	a4, a4, 12
  106332: 45 8f        	or	a4, a4, s1
  106334: 2a c6        	sw	a0, 12(sp)
  106336: b3 6c 97 01  	or	s9, a4, s9
  10633a: ae 8d        	mv	s11, a1
  10633c: 63 87 0c 0a  	beqz	s9, 0x1063ea <_strtod_l+0xc32>
  106340: 06 46        	lw	a2, 64(sp)
  106342: 96 46        	lw	a3, 68(sp)
  106344: ef 30 10 15  	jal	0x109c94 <__ltdf2>
  106348: e3 4d 05 9a  	bltz	a0, 0x105d02 <_strtod_l+0x54a>
  10634c: b2 47        	lw	a5, 12(sp)
  10634e: 26 46        	lw	a2, 72(sp)
  106350: b6 46        	lw	a3, 76(sp)
  106352: 3e 85        	mv	a0, a5
  106354: ee 85        	mv	a1, s11
  106356: ef 30 10 09  	jal	0x109be6 <__gtdf2>
  10635a: e3 52 a0 f0  	blez	a0, 0x10625e <_strtod_l+0xaa6>
  10635e: 55 b2        	j	0x105d02 <_strtod_l+0x54a>
  106360: 63 8e 0b 04  	beqz	s7, 0x1063bc <_strtod_l+0xc04>
  106364: b7 06 a0 06  	lui	a3, 27136
  106368: 63 ea b6 05  	bltu	a3, s11, 0x1063bc <_strtod_l+0xc04>
  10636c: 03 a6 81 85  	lw	a2, -1960(gp)
  106370: 83 a6 c1 85  	lw	a3, -1956(gp)
  106374: 46 85        	mv	a0, a7
  106376: c2 85        	mv	a1, a6
  106378: be ca        	sw	a5, 84(sp)
  10637a: ba c8        	sw	a4, 80(sp)
  10637c: 46 d0        	sw	a7, 32(sp)
  10637e: 42 ca        	sw	a6, 20(sp)
  106380: ef 30 50 11  	jal	0x109c94 <__ltdf2>
  106384: 52 48        	lw	a6, 20(sp)
  106386: 82 58        	lw	a7, 32(sp)
  106388: 46 47        	lw	a4, 80(sp)
  10638a: d6 47        	lw	a5, 84(sp)
  10638c: 63 43 a0 02  	bgtz	a0, 0x1063b2 <_strtod_l+0xbfa>
  106390: 46 85        	mv	a0, a7
  106392: c2 85        	mv	a1, a6
  106394: ef 40 b0 13  	jal	0x10acce <__fixunsdfsi>
  106398: 11 e1        	bnez	a0, 0x10639c <_strtod_l+0xbe4>
  10639a: 05 45        	li	a0, 1
  10639c: ef 40 10 23  	jal	0x10adcc <__floatunsidf>
  1063a0: 2a 87        	mv	a4, a0
  1063a2: aa 88        	mv	a7, a0
  1063a4: 2e 88        	mv	a6, a1
  1063a6: ae 87        	mv	a5, a1
  1063a8: 63 95 0c 00  	bnez	s9, 0x1063b2 <_strtod_l+0xbfa>
  1063ac: b7 07 00 80  	lui	a5, 524288
  1063b0: ad 8f        	xor	a5, a5, a1
  1063b2: b7 06 b0 06  	lui	a3, 27392
  1063b6: b6 97        	add	a5, a5, a3
  1063b8: b3 87 b7 41  	sub	a5, a5, s11
  1063bc: 32 45        	lw	a0, 12(sp)
  1063be: c2 45        	lw	a1, 16(sp)
  1063c0: ba 84        	mv	s1, a4
  1063c2: 3e 84        	mv	s0, a5
  1063c4: 42 d0        	sw	a6, 32(sp)
  1063c6: 46 ca        	sw	a7, 20(sp)
  1063c8: ef f0 cf 84  	jal	0x105414 <__ulp>
  1063cc: 2a 86        	mv	a2, a0
  1063ce: ae 86        	mv	a3, a1
  1063d0: 26 85        	mv	a0, s1
  1063d2: a2 85        	mv	a1, s0
  1063d4: ef 30 f0 16  	jal	0x109d42 <__muldf3>
  1063d8: 32 46        	lw	a2, 12(sp)
  1063da: c2 46        	lw	a3, 16(sp)
  1063dc: ef 20 90 03  	jal	0x108c14 <__adddf3>
  1063e0: 02 58        	lw	a6, 32(sp)
  1063e2: d2 48        	lw	a7, 20(sp)
  1063e4: aa 84        	mv	s1, a0
  1063e6: 2e 84        	mv	s0, a1
  1063e8: 21 bf        	j	0x106300 <_strtod_l+0xb48>
  1063ea: 62 56        	lw	a2, 56(sp)
  1063ec: f2 56        	lw	a3, 60(sp)
  1063ee: ef 30 70 0a  	jal	0x109c94 <__ltdf2>
  1063f2: e3 56 05 e6  	bgez	a0, 0x10625e <_strtod_l+0xaa6>
  1063f6: 6f f0 df 90  	j	0x105d02 <_strtod_l+0x54a>
  1063fa: 93 06 50 06  	li	a3, 101
  1063fe: 63 87 d7 00  	beq	a5, a3, 0x10640c <_strtod_l+0xc54>
  106402: 93 06 50 04  	li	a3, 69
  106406: 05 45        	li	a0, 1
  106408: 63 94 d7 f0  	bne	a5, a3, 0x105b10 <_strtod_l+0x358>
  10640c: 01 4a        	li	s4, 0
  10640e: 05 45        	li	a0, 1
  106410: 6f f0 8f d8  	j	0x105998 <_strtod_l+0x1e0>

00106414 <_strtod_r>:
  106414: c1 66        	lui	a3, 16
  106416: 93 86 06 06  	addi	a3, a3, 96
  10641a: 6f f0 ef b9  	j	0x1057b8 <_strtod_l>

0010641e <strtod_l>:
  10641e: b2 86        	mv	a3, a2
  106420: 2e 86        	mv	a2, a1
  106422: aa 85        	mv	a1, a0
  106424: 03 a5 41 8a  	lw	a0, -1884(gp)
  106428: 6f f0 0f b9  	j	0x1057b8 <_strtod_l>

0010642c <strtod>:
  10642c: 2e 86        	mv	a2, a1
  10642e: aa 85        	mv	a1, a0
  106430: 03 a5 41 8a  	lw	a0, -1884(gp)
  106434: c1 66        	lui	a3, 16
  106436: 93 86 06 06  	addi	a3, a3, 96
  10643a: 6f f0 ef b7  	j	0x1057b8 <_strtod_l>

0010643e <strtof_l>:
  10643e: 79 71        	addi	sp, sp, -48
  106440: 4a d0        	sw	s2, 32(sp)
  106442: b2 86        	mv	a3, a2
  106444: 2e 86        	mv	a2, a1
  106446: aa 85        	mv	a1, a0
  106448: 03 a5 41 8a  	lw	a0, -1884(gp)
  10644c: 22 d4        	sw	s0, 40(sp)
  10644e: 26 d2        	sw	s1, 36(sp)
  106450: 06 d6        	sw	ra, 44(sp)
  106452: 52 ce        	sw	s4, 28(sp)
  106454: 56 cc        	sw	s5, 24(sp)
  106456: 22 e6        	fsw	fs0, 12(sp)
  106458: ef f0 0f b6  	jal	0x1057b8 <_strtod_l>
  10645c: 2a 86        	mv	a2, a0
  10645e: ae 86        	mv	a3, a1
  106460: aa 84        	mv	s1, a0
  106462: 2e 84        	mv	s0, a1
  106464: ef 40 c0 72  	jal	0x10ab90 <__unorddf2>
  106468: 15 cd        	beqz	a0, 0x1064a4 <strtof_l+0x66>
  10646a: 13 85 41 07  	addi	a0, gp, 116
  10646e: 63 51 04 02  	bgez	s0, 0x106490 <strtof_l+0x52>
  106472: ef d0 3f 89  	jal	0x103d04 <nanf>
  106476: 53 14 a5 20  	fneg.s	fs0, fa0
  10647a: b2 50        	lw	ra, 44(sp)
  10647c: 22 54        	lw	s0, 40(sp)
  10647e: 53 05 84 20  	fmv.s	fa0, fs0
  106482: 92 54        	lw	s1, 36(sp)
  106484: 02 59        	lw	s2, 32(sp)
  106486: 72 4a        	lw	s4, 28(sp)
  106488: e2 4a        	lw	s5, 24(sp)
  10648a: 32 64        	flw	fs0, 12(sp)
  10648c: 45 61        	addi	sp, sp, 48
  10648e: 82 80        	ret
  106490: 22 54        	lw	s0, 40(sp)
  106492: b2 50        	lw	ra, 44(sp)
  106494: 92 54        	lw	s1, 36(sp)
  106496: 02 59        	lw	s2, 32(sp)
  106498: 72 4a        	lw	s4, 28(sp)
  10649a: e2 4a        	lw	s5, 24(sp)
  10649c: 32 64        	flw	fs0, 12(sp)
  10649e: 45 61        	addi	sp, sp, 48
  1064a0: 6f d0 5f 86  	j	0x103d04 <nanf>
  1064a4: 26 85        	mv	a0, s1
  1064a6: a2 85        	mv	a1, s0
  1064a8: ef 40 b0 5a  	jal	0x10b252 <__truncdfsf2>
  1064ac: 53 27 a5 20  	fabs.s	fa4, fa0
  1064b0: 87 a7 c1 88  	flw	fa5, -1908(gp)
  1064b4: 53 04 a5 20  	fmv.s	fs0, fa0
  1064b8: 73 27 10 00  	frflags	a4
  1064bc: d3 97 e7 a0  	flt.s	a5, fa5, fa4
  1064c0: 73 10 17 00  	fsflags	a4
  1064c4: dd db        	beqz	a5, 0x10647a <strtof_l+0x3c>
  1064c6: c1 67        	lui	a5, 16
  1064c8: 03 aa 07 1d  	lw	s4, 464(a5)
  1064cc: 83 aa 47 1d  	lw	s5, 468(a5)
  1064d0: 06 04        	slli	s0, s0, 1
  1064d2: 05 80        	srli	s0, s0, 1
  1064d4: 52 86        	mv	a2, s4
  1064d6: d6 86        	mv	a3, s5
  1064d8: 26 85        	mv	a0, s1
  1064da: a2 85        	mv	a1, s0
  1064dc: ef 40 40 6b  	jal	0x10ab90 <__unorddf2>
  1064e0: 09 e9        	bnez	a0, 0x1064f2 <strtof_l+0xb4>
  1064e2: 52 86        	mv	a2, s4
  1064e4: d6 86        	mv	a3, s5
  1064e6: 26 85        	mv	a0, s1
  1064e8: a2 85        	mv	a1, s0
  1064ea: ef 30 a0 7a  	jal	0x109c94 <__ltdf2>
  1064ee: e3 46 a0 f8  	bgtz	a0, 0x10647a <strtof_l+0x3c>
  1064f2: 83 a7 41 8a  	lw	a5, -1884(gp)
  1064f6: 13 07 20 02  	li	a4, 34
  1064fa: 98 c3        	sw	a4, 0(a5)
  1064fc: bd bf        	j	0x10647a <strtof_l+0x3c>

001064fe <strtof>:
  1064fe: 01 11        	addi	sp, sp, -32
  106500: 4e c6        	sw	s3, 12(sp)
  106502: 2e 86        	mv	a2, a1
  106504: aa 85        	mv	a1, a0
  106506: 03 a5 41 8a  	lw	a0, -1884(gp)
  10650a: c1 66        	lui	a3, 16
  10650c: 93 86 06 06  	addi	a3, a3, 96
  106510: 26 ca        	sw	s1, 20(sp)
  106512: 4a c8        	sw	s2, 16(sp)
  106514: 06 ce        	sw	ra, 28(sp)
  106516: 22 cc        	sw	s0, 24(sp)
  106518: 52 c4        	sw	s4, 8(sp)
  10651a: 5a c2        	sw	s6, 4(sp)
  10651c: 5e c0        	sw	s7, 0(sp)
  10651e: ef f0 af a9  	jal	0x1057b8 <_strtod_l>
  106522: 2a 86        	mv	a2, a0
  106524: ae 86        	mv	a3, a1
  106526: 2a 89        	mv	s2, a0
  106528: ae 84        	mv	s1, a1
  10652a: ef 40 60 66  	jal	0x10ab90 <__unorddf2>
  10652e: 31 c1        	beqz	a0, 0x106572 <strtof+0x74>
  106530: 13 85 41 07  	addi	a0, gp, 116
  106534: 63 d4 04 02  	bgez	s1, 0x10655c <strtof+0x5e>
  106538: ef d0 cf fc  	jal	0x103d04 <nanf>
  10653c: d3 17 a5 20  	fneg.s	fa5, fa0
  106540: 53 84 07 e0  	fmv.x.w	s0, fa5
  106544: 53 05 04 f0  	fmv.w.x	fa0, s0
  106548: f2 40        	lw	ra, 28(sp)
  10654a: 62 44        	lw	s0, 24(sp)
  10654c: d2 44        	lw	s1, 20(sp)
  10654e: 42 49        	lw	s2, 16(sp)
  106550: b2 49        	lw	s3, 12(sp)
  106552: 22 4a        	lw	s4, 8(sp)
  106554: 12 4b        	lw	s6, 4(sp)
  106556: 82 4b        	lw	s7, 0(sp)
  106558: 05 61        	addi	sp, sp, 32
  10655a: 82 80        	ret
  10655c: 62 44        	lw	s0, 24(sp)
  10655e: f2 40        	lw	ra, 28(sp)
  106560: d2 44        	lw	s1, 20(sp)
  106562: 42 49        	lw	s2, 16(sp)
  106564: b2 49        	lw	s3, 12(sp)
  106566: 22 4a        	lw	s4, 8(sp)
  106568: 12 4b        	lw	s6, 4(sp)
  10656a: 82 4b        	lw	s7, 0(sp)
  10656c: 05 61        	addi	sp, sp, 32
  10656e: 6f d0 6f f9  	j	0x103d04 <nanf>
  106572: 4a 85        	mv	a0, s2
  106574: a6 85        	mv	a1, s1
  106576: ef 40 d0 4d  	jal	0x10b252 <__truncdfsf2>
  10657a: 53 27 a5 20  	fabs.s	fa4, fa0
  10657e: 87 a7 c1 88  	flw	fa5, -1908(gp)
  106582: 53 04 05 e0  	fmv.x.w	s0, fa0
  106586: 73 27 10 00  	frflags	a4
  10658a: d3 97 e7 a0  	flt.s	a5, fa5, fa4
  10658e: 73 10 17 00  	fsflags	a4
  106592: 8d cb        	beqz	a5, 0x1065c4 <strtof+0xc6>
  106594: c1 67        	lui	a5, 16
  106596: 03 ab 07 1d  	lw	s6, 464(a5)
  10659a: 83 ab 47 1d  	lw	s7, 468(a5)
  10659e: 13 9a 14 00  	slli	s4, s1, 1
  1065a2: 13 5a 1a 00  	srli	s4, s4, 1
  1065a6: 5a 86        	mv	a2, s6
  1065a8: de 86        	mv	a3, s7
  1065aa: 4a 85        	mv	a0, s2
  1065ac: d2 85        	mv	a1, s4
  1065ae: ef 40 20 5e  	jal	0x10ab90 <__unorddf2>
  1065b2: 0d e1        	bnez	a0, 0x1065d4 <strtof+0xd6>
  1065b4: 5a 86        	mv	a2, s6
  1065b6: de 86        	mv	a3, s7
  1065b8: 4a 85        	mv	a0, s2
  1065ba: d2 85        	mv	a1, s4
  1065bc: ef 30 80 6d  	jal	0x109c94 <__ltdf2>
  1065c0: 63 5a a0 00  	blez	a0, 0x1065d4 <strtof+0xd6>
  1065c4: b7 07 80 7f  	lui	a5, 522240
  1065c8: e1 8f        	and	a5, a5, s0
  1065ca: ad ff        	bnez	a5, 0x106544 <strtof+0x46>
  1065cc: b7 05 f0 7f  	lui	a1, 524032
  1065d0: ed 8c        	and	s1, s1, a1
  1065d2: ad d8        	beqz	s1, 0x106544 <strtof+0x46>
  1065d4: 83 a7 41 8a  	lw	a5, -1884(gp)
  1065d8: 13 07 20 02  	li	a4, 34
  1065dc: 98 c3        	sw	a4, 0(a5)
  1065de: 9d b7        	j	0x106544 <strtof+0x46>

001065e0 <_strtol_l.constprop.0>:
  1065e0: 85 47        	li	a5, 1
  1065e2: 63 86 f6 0a  	beq	a3, a5, 0x10668e <_strtol_l.constprop.0+0xae>
  1065e6: 93 07 40 02  	li	a5, 36
  1065ea: 2e 87        	mv	a4, a1
  1065ec: 63 e1 d7 0a  	bltu	a5, a3, 0x10668e <_strtol_l.constprop.0+0xae>
  1065f0: aa 8e        	mv	t4, a0
  1065f2: 13 88 11 e3  	addi	a6, gp, -463
  1065f6: ba 88        	mv	a7, a4
  1065f8: 83 47 07 00  	lbu	a5, 0(a4)
  1065fc: 05 07        	addi	a4, a4, 1
  1065fe: 33 85 07 01  	add	a0, a5, a6
  106602: 03 45 05 00  	lbu	a0, 0(a0)
  106606: 21 89        	andi	a0, a0, 8
  106608: 7d f5        	bnez	a0, 0x1065f6 <_strtol_l.constprop.0+0x16>
  10660a: 13 05 d0 02  	li	a0, 45
  10660e: 63 9a a7 08  	bne	a5, a0, 0x1066a2 <_strtol_l.constprop.0+0xc2>
  106612: 83 47 07 00  	lbu	a5, 0(a4)
  106616: 05 4e        	li	t3, 1
  106618: 13 87 28 00  	addi	a4, a7, 2
  10661c: f5 c6        	beqz	a3, 0x106708 <_strtol_l.constprop.0+0x128>
  10661e: 41 45        	li	a0, 16
  106620: 63 92 a6 02  	bne	a3, a0, 0x106644 <_strtol_l.constprop.0+0x64>
  106624: 13 05 00 03  	li	a0, 48
  106628: 63 9e a7 00  	bne	a5, a0, 0x106644 <_strtol_l.constprop.0+0x64>
  10662c: 83 47 07 00  	lbu	a5, 0(a4)
  106630: 13 05 80 05  	li	a0, 88
  106634: 93 f7 f7 0d  	andi	a5, a5, 223
  106638: 63 93 a7 0c  	bne	a5, a0, 0x1066fe <_strtol_l.constprop.0+0x11e>
  10663c: 83 47 17 00  	lbu	a5, 1(a4)
  106640: c1 46        	li	a3, 16
  106642: 09 07        	addi	a4, a4, 2
  106644: b7 08 00 80  	lui	a7, 524288
  106648: 93 c8 f8 ff  	not	a7, a7
  10664c: f2 98        	add	a7, a7, t3
  10664e: b3 f2 d8 02  	remu	t0, a7, a3
  106652: 01 43        	li	t1, 0
  106654: 01 45        	li	a0, 0
  106656: a5 43        	li	t2, 9
  106658: e5 4f        	li	t6, 25
  10665a: 33 df d8 02  	divu	t5, a7, a3
  10665e: 13 88 07 fd  	addi	a6, a5, -48
  106662: 63 ea 03 05  	bltu	t2, a6, 0x1066b6 <_strtol_l.constprop.0+0xd6>
  106666: c2 87        	mv	a5, a6
  106668: 63 d7 d7 06  	bge	a5, a3, 0x1066d6 <_strtol_l.constprop.0+0xf6>
  10666c: 63 43 03 06  	bltz	t1, 0x1066d2 <_strtol_l.constprop.0+0xf2>
  106670: 7d 53        	li	t1, -1
  106672: 63 6a af 00  	bltu	t5, a0, 0x106686 <_strtol_l.constprop.0+0xa6>
  106676: 63 14 af 00  	bne	t5, a0, 0x10667e <_strtol_l.constprop.0+0x9e>
  10667a: 63 c6 f2 00  	blt	t0, a5, 0x106686 <_strtol_l.constprop.0+0xa6>
  10667e: 05 43        	li	t1, 1
  106680: 33 85 a6 02  	mul	a0, a3, a0
  106684: 3e 95        	add	a0, a0, a5
  106686: 05 07        	addi	a4, a4, 1
  106688: 83 47 f7 ff  	lbu	a5, -1(a4)
  10668c: c9 bf        	j	0x10665e <_strtol_l.constprop.0+0x7e>
  10668e: 41 11        	addi	sp, sp, -16
  106690: 06 c6        	sw	ra, 12(sp)
  106692: ef 10 80 54  	jal	0x107bda <__errno>
  106696: b2 40        	lw	ra, 12(sp)
  106698: d9 47        	li	a5, 22
  10669a: 1c c1        	sw	a5, 0(a0)
  10669c: 01 45        	li	a0, 0
  10669e: 41 01        	addi	sp, sp, 16
  1066a0: 82 80        	ret
  1066a2: 13 05 b0 02  	li	a0, 43
  1066a6: 01 4e        	li	t3, 0
  1066a8: e3 9a a7 f6  	bne	a5, a0, 0x10661c <_strtol_l.constprop.0+0x3c>
  1066ac: 83 47 07 00  	lbu	a5, 0(a4)
  1066b0: 13 87 28 00  	addi	a4, a7, 2
  1066b4: a5 b7        	j	0x10661c <_strtol_l.constprop.0+0x3c>
  1066b6: 13 88 f7 fb  	addi	a6, a5, -65
  1066ba: 63 e5 0f 01  	bltu	t6, a6, 0x1066c4 <_strtol_l.constprop.0+0xe4>
  1066be: 93 87 97 fc  	addi	a5, a5, -55
  1066c2: 5d b7        	j	0x106668 <_strtol_l.constprop.0+0x88>
  1066c4: 13 88 f7 f9  	addi	a6, a5, -97
  1066c8: 63 e7 0f 01  	bltu	t6, a6, 0x1066d6 <_strtol_l.constprop.0+0xf6>
  1066cc: 93 87 97 fa  	addi	a5, a5, -87
  1066d0: 61 bf        	j	0x106668 <_strtol_l.constprop.0+0x88>
  1066d2: 7d 53        	li	t1, -1
  1066d4: 4d bf        	j	0x106686 <_strtol_l.constprop.0+0xa6>
  1066d6: 63 59 03 00  	bgez	t1, 0x1066e8 <_strtol_l.constprop.0+0x108>
  1066da: 93 07 20 02  	li	a5, 34
  1066de: 23 a0 fe 00  	sw	a5, 0(t4)
  1066e2: 46 85        	mv	a0, a7
  1066e4: 09 ea        	bnez	a2, 0x1066f6 <_strtol_l.constprop.0+0x116>
  1066e6: 82 80        	ret
  1066e8: 63 04 0e 00  	beqz	t3, 0x1066f0 <_strtol_l.constprop.0+0x110>
  1066ec: 33 05 a0 40  	neg	a0, a0
  1066f0: 15 c2        	beqz	a2, 0x106714 <_strtol_l.constprop.0+0x134>
  1066f2: 63 04 03 00  	beqz	t1, 0x1066fa <_strtol_l.constprop.0+0x11a>
  1066f6: 93 05 f7 ff  	addi	a1, a4, -1
  1066fa: 0c c2        	sw	a1, 0(a2)
  1066fc: 82 80        	ret
  1066fe: 93 07 00 03  	li	a5, 48
  106702: a9 f2        	bnez	a3, 0x106644 <_strtol_l.constprop.0+0x64>
  106704: a1 46        	li	a3, 8
  106706: 3d bf        	j	0x106644 <_strtol_l.constprop.0+0x64>
  106708: 13 05 00 03  	li	a0, 48
  10670c: e3 80 a7 f2  	beq	a5, a0, 0x10662c <_strtol_l.constprop.0+0x4c>
  106710: a9 46        	li	a3, 10
  106712: 0d bf        	j	0x106644 <_strtol_l.constprop.0+0x64>
  106714: 82 80        	ret

00106716 <_strtol_r>:
  106716: 6f f0 bf ec  	j	0x1065e0 <_strtol_l.constprop.0>

0010671a <strtol_l>:
  10671a: b2 86        	mv	a3, a2
  10671c: 2e 86        	mv	a2, a1
  10671e: aa 85        	mv	a1, a0
  106720: 03 a5 41 8a  	lw	a0, -1884(gp)
  106724: 6f f0 df eb  	j	0x1065e0 <_strtol_l.constprop.0>

00106728 <strtol>:
  106728: b2 86        	mv	a3, a2
  10672a: 2e 86        	mv	a2, a1
  10672c: aa 85        	mv	a1, a0
  10672e: 03 a5 41 8a  	lw	a0, -1884(gp)
  106732: 6f f0 ff ea  	j	0x1065e0 <_strtol_l.constprop.0>

00106736 <__ssputs_r>:
  106736: 01 11        	addi	sp, sp, -32
  106738: 4a c8        	sw	s2, 16(sp)
  10673a: 03 a9 85 00  	lw	s2, 8(a1)
  10673e: 22 cc        	sw	s0, 24(sp)
  106740: 4e c6        	sw	s3, 12(sp)
  106742: 52 c4        	sw	s4, 8(sp)
  106744: 06 ce        	sw	ra, 28(sp)
  106746: 26 ca        	sw	s1, 20(sp)
  106748: 56 c2        	sw	s5, 4(sp)
  10674a: 5a c0        	sw	s6, 0(sp)
  10674c: 2e 84        	mv	s0, a1
  10674e: 32 8a        	mv	s4, a2
  106750: b6 89        	mv	s3, a3
  106752: 63 ee 26 09  	bltu	a3, s2, 0x1067ee <__ssputs_r+0xb8>
  106756: 83 d7 c5 00  	lhu	a5, 12(a1)
  10675a: 13 f7 07 48  	andi	a4, a5, 1152
  10675e: 51 c7        	beqz	a4, 0x1067ea <__ssputs_r+0xb4>
  106760: 04 40        	lw	s1, 0(s0)
  106762: 8c 49        	lw	a1, 16(a1)
  106764: 58 48        	lw	a4, 20(s0)
  106766: 2a 8b        	mv	s6, a0
  106768: b3 8a b4 40  	sub	s5, s1, a1
  10676c: 8d 44        	li	s1, 3
  10676e: b3 84 e4 02  	mul	s1, s1, a4
  106772: 09 47        	li	a4, 2
  106774: b3 c4 e4 02  	div	s1, s1, a4
  106778: 13 87 16 00  	addi	a4, a3, 1
  10677c: 56 97        	add	a4, a4, s5
  10677e: 63 f3 e4 00  	bgeu	s1, a4, 0x106784 <__ssputs_r+0x4e>
  106782: ba 84        	mv	s1, a4
  106784: 93 f7 07 40  	andi	a5, a5, 1024
  106788: d1 c3        	beqz	a5, 0x10680c <__ssputs_r+0xd6>
  10678a: a6 85        	mv	a1, s1
  10678c: 5a 85        	mv	a0, s6
  10678e: ef a0 8f ed  	jal	0x100e66 <_malloc_r>
  106792: 2a 89        	mv	s2, a0
  106794: 0d e5        	bnez	a0, 0x1067be <__ssputs_r+0x88>
  106796: b1 47        	li	a5, 12
  106798: 23 20 fb 00  	sw	a5, 0(s6)
  10679c: 83 57 c4 00  	lhu	a5, 12(s0)
  1067a0: 7d 55        	li	a0, -1
  1067a2: 93 e7 07 04  	ori	a5, a5, 64
  1067a6: 23 16 f4 00  	sh	a5, 12(s0)
  1067aa: f2 40        	lw	ra, 28(sp)
  1067ac: 62 44        	lw	s0, 24(sp)
  1067ae: d2 44        	lw	s1, 20(sp)
  1067b0: 42 49        	lw	s2, 16(sp)
  1067b2: b2 49        	lw	s3, 12(sp)
  1067b4: 22 4a        	lw	s4, 8(sp)
  1067b6: 92 4a        	lw	s5, 4(sp)
  1067b8: 02 4b        	lw	s6, 0(sp)
  1067ba: 05 61        	addi	sp, sp, 32
  1067bc: 82 80        	ret
  1067be: 0c 48        	lw	a1, 16(s0)
  1067c0: 56 86        	mv	a2, s5
  1067c2: ef d0 2f d0  	jal	0x103cc4 <memcpy>
  1067c6: 83 57 c4 00  	lhu	a5, 12(s0)
  1067ca: 93 f7 f7 b7  	andi	a5, a5, -1153
  1067ce: 93 e7 07 08  	ori	a5, a5, 128
  1067d2: 23 16 f4 00  	sh	a5, 12(s0)
  1067d6: 23 28 24 01  	sw	s2, 16(s0)
  1067da: 44 c8        	sw	s1, 20(s0)
  1067dc: 56 99        	add	s2, s2, s5
  1067de: b3 84 54 41  	sub	s1, s1, s5
  1067e2: 23 20 24 01  	sw	s2, 0(s0)
  1067e6: 04 c4        	sw	s1, 8(s0)
  1067e8: 4e 89        	mv	s2, s3
  1067ea: 63 f3 29 01  	bgeu	s3, s2, 0x1067f0 <__ssputs_r+0xba>
  1067ee: 4e 89        	mv	s2, s3
  1067f0: 08 40        	lw	a0, 0(s0)
  1067f2: 4a 86        	mv	a2, s2
  1067f4: d2 85        	mv	a1, s4
  1067f6: ef d0 8f c9  	jal	0x103c8e <memmove>
  1067fa: 1c 44        	lw	a5, 8(s0)
  1067fc: 01 45        	li	a0, 0
  1067fe: b3 87 27 41  	sub	a5, a5, s2
  106802: 1c c4        	sw	a5, 8(s0)
  106804: 1c 40        	lw	a5, 0(s0)
  106806: ca 97        	add	a5, a5, s2
  106808: 1c c0        	sw	a5, 0(s0)
  10680a: 45 b7        	j	0x1067aa <__ssputs_r+0x74>
  10680c: 26 86        	mv	a2, s1
  10680e: 5a 85        	mv	a0, s6
  106810: ef a0 ef f7  	jal	0x100f8e <_realloc_r>
  106814: 2a 89        	mv	s2, a0
  106816: 61 f1        	bnez	a0, 0x1067d6 <__ssputs_r+0xa0>
  106818: 0c 48        	lw	a1, 16(s0)
  10681a: 5a 85        	mv	a0, s6
  10681c: ef e0 0f b3  	jal	0x104b4c <_free_r>
  106820: 9d bf        	j	0x106796 <__ssputs_r+0x60>

00106822 <__ssprint_r>:
  106822: 1c 46        	lw	a5, 8(a2)
  106824: 79 71        	addi	sp, sp, -48
  106826: 66 c2        	sw	s9, 4(sp)
  106828: 06 d6        	sw	ra, 44(sp)
  10682a: 22 d4        	sw	s0, 40(sp)
  10682c: 26 d2        	sw	s1, 36(sp)
  10682e: 4a d0        	sw	s2, 32(sp)
  106830: 4e ce        	sw	s3, 28(sp)
  106832: 52 cc        	sw	s4, 24(sp)
  106834: 56 ca        	sw	s5, 20(sp)
  106836: 5a c8        	sw	s6, 16(sp)
  106838: 5e c6        	sw	s7, 12(sp)
  10683a: 62 c4        	sw	s8, 8(sp)
  10683c: 6a c0        	sw	s10, 0(sp)
  10683e: b2 8c        	mv	s9, a2
  106840: f1 cf        	beqz	a5, 0x10691c <__ssprint_r+0xfa>
  106842: 03 2a 06 00  	lw	s4, 0(a2)
  106846: aa 89        	mv	s3, a0
  106848: 2e 84        	mv	s0, a1
  10684a: 81 4a        	li	s5, 0
  10684c: 01 4d        	li	s10, 0
  10684e: 0d 4b        	li	s6, 3
  106850: 89 4b        	li	s7, 2
  106852: 63 02 0d 06  	beqz	s10, 0x1068b6 <__ssprint_r+0x94>
  106856: 03 29 84 00  	lw	s2, 8(s0)
  10685a: 63 6a 2d 09  	bltu	s10, s2, 0x1068ee <__ssprint_r+0xcc>
  10685e: 83 57 c4 00  	lhu	a5, 12(s0)
  106862: 13 f7 07 48  	andi	a4, a5, 1152
  106866: 41 c7        	beqz	a4, 0x1068ee <__ssprint_r+0xcc>
  106868: 04 40        	lw	s1, 0(s0)
  10686a: 0c 48        	lw	a1, 16(s0)
  10686c: 33 8c b4 40  	sub	s8, s1, a1
  106870: 44 48        	lw	s1, 20(s0)
  106872: 13 07 1c 00  	addi	a4, s8, 1
  106876: 6a 97        	add	a4, a4, s10
  106878: b3 04 9b 02  	mul	s1, s6, s1
  10687c: b3 c4 74 03  	div	s1, s1, s7
  106880: 63 f3 e4 00  	bgeu	s1, a4, 0x106886 <__ssprint_r+0x64>
  106884: ba 84        	mv	s1, a4
  106886: 93 f7 07 40  	andi	a5, a5, 1024
  10688a: d5 cb        	beqz	a5, 0x10693e <__ssprint_r+0x11c>
  10688c: a6 85        	mv	a1, s1
  10688e: 4e 85        	mv	a0, s3
  106890: ef a0 6f dd  	jal	0x100e66 <_malloc_r>
  106894: 2a 89        	mv	s2, a0
  106896: 15 e5        	bnez	a0, 0x1068c2 <__ssprint_r+0xa0>
  106898: b1 47        	li	a5, 12
  10689a: 23 a0 f9 00  	sw	a5, 0(s3)
  10689e: 83 57 c4 00  	lhu	a5, 12(s0)
  1068a2: 7d 55        	li	a0, -1
  1068a4: 93 e7 07 04  	ori	a5, a5, 64
  1068a8: 23 16 f4 00  	sh	a5, 12(s0)
  1068ac: 23 a4 0c 00  	sw	zero, 8(s9)
  1068b0: 23 a2 0c 00  	sw	zero, 4(s9)
  1068b4: bd a0        	j	0x106922 <__ssprint_r+0x100>
  1068b6: 83 2a 0a 00  	lw	s5, 0(s4)
  1068ba: 03 2d 4a 00  	lw	s10, 4(s4)
  1068be: 21 0a        	addi	s4, s4, 8
  1068c0: 49 bf        	j	0x106852 <__ssprint_r+0x30>
  1068c2: 0c 48        	lw	a1, 16(s0)
  1068c4: 62 86        	mv	a2, s8
  1068c6: ef d0 ef bf  	jal	0x103cc4 <memcpy>
  1068ca: 83 57 c4 00  	lhu	a5, 12(s0)
  1068ce: 93 f7 f7 b7  	andi	a5, a5, -1153
  1068d2: 93 e7 07 08  	ori	a5, a5, 128
  1068d6: 23 16 f4 00  	sh	a5, 12(s0)
  1068da: 23 28 24 01  	sw	s2, 16(s0)
  1068de: 44 c8        	sw	s1, 20(s0)
  1068e0: 62 99        	add	s2, s2, s8
  1068e2: b3 84 84 41  	sub	s1, s1, s8
  1068e6: 23 20 24 01  	sw	s2, 0(s0)
  1068ea: 04 c4        	sw	s1, 8(s0)
  1068ec: 6a 89        	mv	s2, s10
  1068ee: 63 73 2d 01  	bgeu	s10, s2, 0x1068f4 <__ssprint_r+0xd2>
  1068f2: 6a 89        	mv	s2, s10
  1068f4: 08 40        	lw	a0, 0(s0)
  1068f6: 4a 86        	mv	a2, s2
  1068f8: d6 85        	mv	a1, s5
  1068fa: ef d0 4f b9  	jal	0x103c8e <memmove>
  1068fe: 1c 44        	lw	a5, 8(s0)
  106900: b3 87 27 41  	sub	a5, a5, s2
  106904: 1c c4        	sw	a5, 8(s0)
  106906: 1c 40        	lw	a5, 0(s0)
  106908: ca 97        	add	a5, a5, s2
  10690a: 1c c0        	sw	a5, 0(s0)
  10690c: 83 a7 8c 00  	lw	a5, 8(s9)
  106910: 33 8d a7 41  	sub	s10, a5, s10
  106914: 23 a4 ac 01  	sw	s10, 8(s9)
  106918: e3 1f 0d f8  	bnez	s10, 0x1068b6 <__ssprint_r+0x94>
  10691c: 23 a2 0c 00  	sw	zero, 4(s9)
  106920: 01 45        	li	a0, 0
  106922: b2 50        	lw	ra, 44(sp)
  106924: 22 54        	lw	s0, 40(sp)
  106926: 92 54        	lw	s1, 36(sp)
  106928: 02 59        	lw	s2, 32(sp)
  10692a: f2 49        	lw	s3, 28(sp)
  10692c: 62 4a        	lw	s4, 24(sp)
  10692e: d2 4a        	lw	s5, 20(sp)
  106930: 42 4b        	lw	s6, 16(sp)
  106932: b2 4b        	lw	s7, 12(sp)
  106934: 22 4c        	lw	s8, 8(sp)
  106936: 92 4c        	lw	s9, 4(sp)
  106938: 02 4d        	lw	s10, 0(sp)
  10693a: 45 61        	addi	sp, sp, 48
  10693c: 82 80        	ret
  10693e: 26 86        	mv	a2, s1
  106940: 4e 85        	mv	a0, s3
  106942: ef a0 cf e4  	jal	0x100f8e <_realloc_r>
  106946: 2a 89        	mv	s2, a0
  106948: 49 f9        	bnez	a0, 0x1068da <__ssprint_r+0xb8>
  10694a: 0c 48        	lw	a1, 16(s0)
  10694c: 4e 85        	mv	a0, s3
  10694e: ef e0 ef 9f  	jal	0x104b4c <_free_r>
  106952: 99 b7        	j	0x106898 <__ssprint_r+0x76>

00106954 <_svfprintf_r>:
  106954: 83 d7 c5 00  	lhu	a5, 12(a1)
  106958: 71 71        	addi	sp, sp, -176
  10695a: 22 d5        	sw	s0, 168(sp)
  10695c: 26 d3        	sw	s1, 164(sp)
  10695e: 4a d1        	sw	s2, 160(sp)
  106960: 52 cd        	sw	s4, 152(sp)
  106962: 06 d7        	sw	ra, 172(sp)
  106964: 4e cf        	sw	s3, 156(sp)
  106966: 56 cb        	sw	s5, 148(sp)
  106968: 5a c9        	sw	s6, 144(sp)
  10696a: 5e c7        	sw	s7, 140(sp)
  10696c: 62 c5        	sw	s8, 136(sp)
  10696e: 66 c3        	sw	s9, 132(sp)
  106970: 6a c1        	sw	s10, 128(sp)
  106972: ee de        	sw	s11, 124(sp)
  106974: 93 f7 07 08  	andi	a5, a5, 128
  106978: 2a 8a        	mv	s4, a0
  10697a: 2e 89        	mv	s2, a1
  10697c: b2 84        	mv	s1, a2
  10697e: 36 84        	mv	s0, a3
  106980: b9 c3        	beqz	a5, 0x1069c6 <_svfprintf_r+0x72>
  106982: 9c 49        	lw	a5, 16(a1)
  106984: a9 e3        	bnez	a5, 0x1069c6 <_svfprintf_r+0x72>
  106986: 93 05 00 04  	li	a1, 64
  10698a: ef a0 cf cd  	jal	0x100e66 <_malloc_r>
  10698e: 23 20 a9 00  	sw	a0, 0(s2)
  106992: 23 28 a9 00  	sw	a0, 16(s2)
  106996: 05 e5        	bnez	a0, 0x1069be <_svfprintf_r+0x6a>
  106998: b1 47        	li	a5, 12
  10699a: 23 20 fa 00  	sw	a5, 0(s4)
  10699e: 7d 55        	li	a0, -1
  1069a0: ba 50        	lw	ra, 172(sp)
  1069a2: 2a 54        	lw	s0, 168(sp)
  1069a4: 9a 54        	lw	s1, 164(sp)
  1069a6: 0a 59        	lw	s2, 160(sp)
  1069a8: fa 49        	lw	s3, 156(sp)
  1069aa: 6a 4a        	lw	s4, 152(sp)
  1069ac: da 4a        	lw	s5, 148(sp)
  1069ae: 4a 4b        	lw	s6, 144(sp)
  1069b0: ba 4b        	lw	s7, 140(sp)
  1069b2: 2a 4c        	lw	s8, 136(sp)
  1069b4: 9a 4c        	lw	s9, 132(sp)
  1069b6: 0a 4d        	lw	s10, 128(sp)
  1069b8: f6 5d        	lw	s11, 124(sp)
  1069ba: 4d 61        	addi	sp, sp, 176
  1069bc: 82 80        	ret
  1069be: 93 07 00 04  	li	a5, 64
  1069c2: 23 2a f9 00  	sw	a5, 20(s2)
  1069c6: 93 07 00 02  	li	a5, 32
  1069ca: a3 04 f1 02  	sb	a5, 41(sp)
  1069ce: b7 1a 10 00  	lui	s5, 257
  1069d2: 93 07 00 03  	li	a5, 48
  1069d6: 02 d2        	sw	zero, 36(sp)
  1069d8: 23 05 f1 02  	sb	a5, 42(sp)
  1069dc: 22 c6        	sw	s0, 12(sp)
  1069de: 93 0c 50 02  	li	s9, 37
  1069e2: 37 6c 10 00  	lui	s8, 262
  1069e6: 93 8a 0a 19  	addi	s5, s5, 400
  1069ea: 26 84        	mv	s0, s1
  1069ec: 83 47 04 00  	lbu	a5, 0(s0)
  1069f0: 99 c3        	beqz	a5, 0x1069f6 <_svfprintf_r+0xa2>
  1069f2: 63 90 97 0b  	bne	a5, s9, 0x106a92 <_svfprintf_r+0x13e>
  1069f6: b3 0d 94 40  	sub	s11, s0, s1
  1069fa: 63 0e 94 00  	beq	s0, s1, 0x106a16 <_svfprintf_r+0xc2>
  1069fe: ee 86        	mv	a3, s11
  106a00: 26 86        	mv	a2, s1
  106a02: ca 85        	mv	a1, s2
  106a04: 52 85        	mv	a0, s4
  106a06: ef f0 1f d3  	jal	0x106736 <__ssputs_r>
  106a0a: fd 57        	li	a5, -1
  106a0c: 63 0c f5 18  	beq	a0, a5, 0x106ba4 <_svfprintf_r+0x250>
  106a10: 92 57        	lw	a5, 36(sp)
  106a12: ee 97        	add	a5, a5, s11
  106a14: 3e d2        	sw	a5, 36(sp)
  106a16: 83 47 04 00  	lbu	a5, 0(s0)
  106a1a: 63 85 07 18  	beqz	a5, 0x106ba4 <_svfprintf_r+0x250>
  106a1e: fd 57        	li	a5, -1
  106a20: 93 04 14 00  	addi	s1, s0, 1
  106a24: 02 c8        	sw	zero, 16(sp)
  106a26: 02 ce        	sw	zero, 28(sp)
  106a28: 3e ca        	sw	a5, 20(sp)
  106a2a: 02 cc        	sw	zero, 24(sp)
  106a2c: a3 09 01 04  	sb	zero, 83(sp)
  106a30: 82 d4        	sw	zero, 104(sp)
  106a32: 85 4d        	li	s11, 1
  106a34: 83 c5 04 00  	lbu	a1, 0(s1)
  106a38: 15 46        	li	a2, 5
  106a3a: 13 85 41 a0  	addi	a0, gp, -1532
  106a3e: ef c0 df f5  	jal	0x10399a <memchr>
  106a42: c2 47        	lw	a5, 16(sp)
  106a44: 13 84 14 00  	addi	s0, s1, 1
  106a48: 39 e5        	bnez	a0, 0x106a96 <_svfprintf_r+0x142>
  106a4a: 13 f7 07 01  	andi	a4, a5, 16
  106a4e: 09 c7        	beqz	a4, 0x106a58 <_svfprintf_r+0x104>
  106a50: 13 07 00 02  	li	a4, 32
  106a54: a3 09 e1 04  	sb	a4, 83(sp)
  106a58: 13 f7 87 00  	andi	a4, a5, 8
  106a5c: 09 c7        	beqz	a4, 0x106a66 <_svfprintf_r+0x112>
  106a5e: 13 07 b0 02  	li	a4, 43
  106a62: a3 09 e1 04  	sb	a4, 83(sp)
  106a66: 83 c6 04 00  	lbu	a3, 0(s1)
  106a6a: 13 07 a0 02  	li	a4, 42
  106a6e: 63 8d e6 02  	beq	a3, a4, 0x106aa8 <_svfprintf_r+0x154>
  106a72: f2 47        	lw	a5, 28(sp)
  106a74: 26 84        	mv	s0, s1
  106a76: 81 46        	li	a3, 0
  106a78: 25 46        	li	a2, 9
  106a7a: 29 45        	li	a0, 10
  106a7c: 03 47 04 00  	lbu	a4, 0(s0)
  106a80: 93 05 14 00  	addi	a1, s0, 1
  106a84: 13 07 07 fd  	addi	a4, a4, -48
  106a88: 63 75 e6 06  	bgeu	a2, a4, 0x106af2 <_svfprintf_r+0x19e>
  106a8c: 95 c6        	beqz	a3, 0x106ab8 <_svfprintf_r+0x164>
  106a8e: 3e ce        	sw	a5, 28(sp)
  106a90: 25 a0        	j	0x106ab8 <_svfprintf_r+0x164>
  106a92: 05 04        	addi	s0, s0, 1
  106a94: a1 bf        	j	0x1069ec <_svfprintf_r+0x98>
  106a96: 13 87 41 a0  	addi	a4, gp, -1532
  106a9a: 19 8d        	sub	a0, a0, a4
  106a9c: 33 95 ad 00  	sll	a0, s11, a0
  106aa0: c9 8f        	or	a5, a5, a0
  106aa2: 3e c8        	sw	a5, 16(sp)
  106aa4: a2 84        	mv	s1, s0
  106aa6: 79 b7        	j	0x106a34 <_svfprintf_r+0xe0>
  106aa8: 32 47        	lw	a4, 12(sp)
  106aaa: 93 06 47 00  	addi	a3, a4, 4
  106aae: 18 43        	lw	a4, 0(a4)
  106ab0: 36 c6        	sw	a3, 12(sp)
  106ab2: 63 49 07 02  	bltz	a4, 0x106ae4 <_svfprintf_r+0x190>
  106ab6: 3a ce        	sw	a4, 28(sp)
  106ab8: 03 47 04 00  	lbu	a4, 0(s0)
  106abc: 93 07 e0 02  	li	a5, 46
  106ac0: 63 10 f7 06  	bne	a4, a5, 0x106b20 <_svfprintf_r+0x1cc>
  106ac4: 03 47 14 00  	lbu	a4, 1(s0)
  106ac8: 93 07 a0 02  	li	a5, 42
  106acc: 63 1b f7 02  	bne	a4, a5, 0x106b02 <_svfprintf_r+0x1ae>
  106ad0: b2 47        	lw	a5, 12(sp)
  106ad2: 09 04        	addi	s0, s0, 2
  106ad4: 13 87 47 00  	addi	a4, a5, 4
  106ad8: 9c 43        	lw	a5, 0(a5)
  106ada: 3a c6        	sw	a4, 12(sp)
  106adc: 63 c1 07 02  	bltz	a5, 0x106afe <_svfprintf_r+0x1aa>
  106ae0: 3e ca        	sw	a5, 20(sp)
  106ae2: 3d a8        	j	0x106b20 <_svfprintf_r+0x1cc>
  106ae4: 33 07 e0 40  	neg	a4, a4
  106ae8: 93 e7 27 00  	ori	a5, a5, 2
  106aec: 3a ce        	sw	a4, 28(sp)
  106aee: 3e c8        	sw	a5, 16(sp)
  106af0: e1 b7        	j	0x106ab8 <_svfprintf_r+0x164>
  106af2: b3 87 a7 02  	mul	a5, a5, a0
  106af6: 2e 84        	mv	s0, a1
  106af8: 85 46        	li	a3, 1
  106afa: ba 97        	add	a5, a5, a4
  106afc: 41 b7        	j	0x106a7c <_svfprintf_r+0x128>
  106afe: fd 57        	li	a5, -1
  106b00: c5 b7        	j	0x106ae0 <_svfprintf_r+0x18c>
  106b02: 05 04        	addi	s0, s0, 1
  106b04: 02 ca        	sw	zero, 20(sp)
  106b06: 81 46        	li	a3, 0
  106b08: 81 47        	li	a5, 0
  106b0a: 25 46        	li	a2, 9
  106b0c: 29 45        	li	a0, 10
  106b0e: 03 47 04 00  	lbu	a4, 0(s0)
  106b12: 93 05 14 00  	addi	a1, s0, 1
  106b16: 13 07 07 fd  	addi	a4, a4, -48
  106b1a: 63 7f e6 04  	bgeu	a2, a4, 0x106b78 <_svfprintf_r+0x224>
  106b1e: e9 f2        	bnez	a3, 0x106ae0 <_svfprintf_r+0x18c>
  106b20: 83 45 04 00  	lbu	a1, 0(s0)
  106b24: 0d 46        	li	a2, 3
  106b26: 13 85 c1 a0  	addi	a0, gp, -1524
  106b2a: ef c0 1f e7  	jal	0x10399a <memchr>
  106b2e: 01 cd        	beqz	a0, 0x106b46 <_svfprintf_r+0x1f2>
  106b30: 93 87 c1 a0  	addi	a5, gp, -1524
  106b34: 1d 8d        	sub	a0, a0, a5
  106b36: 93 07 00 04  	li	a5, 64
  106b3a: b3 97 a7 00  	sll	a5, a5, a0
  106b3e: 42 45        	lw	a0, 16(sp)
  106b40: 05 04        	addi	s0, s0, 1
  106b42: 5d 8d        	or	a0, a0, a5
  106b44: 2a c8        	sw	a0, 16(sp)
  106b46: 83 45 04 00  	lbu	a1, 0(s0)
  106b4a: 19 46        	li	a2, 6
  106b4c: 13 85 01 a1  	addi	a0, gp, -1520
  106b50: 93 04 14 00  	addi	s1, s0, 1
  106b54: 23 04 b1 02  	sb	a1, 40(sp)
  106b58: ef c0 3f e4  	jal	0x10399a <memchr>
  106b5c: 29 cd        	beqz	a0, 0x106bb6 <_svfprintf_r+0x262>
  106b5e: 63 97 0a 02  	bnez	s5, 0x106b8c <_svfprintf_r+0x238>
  106b62: 42 47        	lw	a4, 16(sp)
  106b64: b2 47        	lw	a5, 12(sp)
  106b66: 13 77 07 10  	andi	a4, a4, 256
  106b6a: 09 cf        	beqz	a4, 0x106b84 <_svfprintf_r+0x230>
  106b6c: 91 07        	addi	a5, a5, 4
  106b6e: 3e c6        	sw	a5, 12(sp)
  106b70: 92 57        	lw	a5, 36(sp)
  106b72: ce 97        	add	a5, a5, s3
  106b74: 3e d2        	sw	a5, 36(sp)
  106b76: 95 bd        	j	0x1069ea <_svfprintf_r+0x96>
  106b78: b3 87 a7 02  	mul	a5, a5, a0
  106b7c: 2e 84        	mv	s0, a1
  106b7e: 85 46        	li	a3, 1
  106b80: ba 97        	add	a5, a5, a4
  106b82: 71 b7        	j	0x106b0e <_svfprintf_r+0x1ba>
  106b84: 9d 07        	addi	a5, a5, 7
  106b86: e1 9b        	andi	a5, a5, -8
  106b88: a1 07        	addi	a5, a5, 8
  106b8a: d5 b7        	j	0x106b6e <_svfprintf_r+0x21a>
  106b8c: 78 00        	addi	a4, sp, 12
  106b8e: 93 06 6c 73  	addi	a3, s8, 1846
  106b92: 4a 86        	mv	a2, s2
  106b94: 0c 08        	addi	a1, sp, 16
  106b96: 52 85        	mv	a0, s4
  106b98: ef a0 8f df  	jal	0x101190 <_printf_float>
  106b9c: fd 57        	li	a5, -1
  106b9e: aa 89        	mv	s3, a0
  106ba0: e3 18 f5 fc  	bne	a0, a5, 0x106b70 <_svfprintf_r+0x21c>
  106ba4: 83 57 c9 00  	lhu	a5, 12(s2)
  106ba8: 7d 55        	li	a0, -1
  106baa: 93 f7 07 04  	andi	a5, a5, 64
  106bae: e3 99 07 de  	bnez	a5, 0x1069a0 <_svfprintf_r+0x4c>
  106bb2: 12 55        	lw	a0, 36(sp)
  106bb4: f5 b3        	j	0x1069a0 <_svfprintf_r+0x4c>
  106bb6: 78 00        	addi	a4, sp, 12
  106bb8: 93 06 6c 73  	addi	a3, s8, 1846
  106bbc: 4a 86        	mv	a2, s2
  106bbe: 0c 08        	addi	a1, sp, 16
  106bc0: 52 85        	mv	a0, s4
  106bc2: ef a0 3f ec  	jal	0x101a84 <_printf_i>
  106bc6: d9 bf        	j	0x106b9c <_svfprintf_r+0x248>

00106bc8 <_sungetc_r>:
  106bc8: 41 11        	addi	sp, sp, -16
  106bca: 06 c6        	sw	ra, 12(sp)
  106bcc: 22 c4        	sw	s0, 8(sp)
  106bce: 26 c2        	sw	s1, 4(sp)
  106bd0: 4a c0        	sw	s2, 0(sp)
  106bd2: fd 57        	li	a5, -1
  106bd4: 63 9a f5 00  	bne	a1, a5, 0x106be8 <_sungetc_r+0x20>
  106bd8: fd 54        	li	s1, -1
  106bda: b2 40        	lw	ra, 12(sp)
  106bdc: 22 44        	lw	s0, 8(sp)
  106bde: 02 49        	lw	s2, 0(sp)
  106be0: 26 85        	mv	a0, s1
  106be2: 92 44        	lw	s1, 4(sp)
  106be4: 41 01        	addi	sp, sp, 16
  106be6: 82 80        	ret
  106be8: 83 57 c6 00  	lhu	a5, 12(a2)
  106bec: 58 42        	lw	a4, 4(a2)
  106bee: 32 84        	mv	s0, a2
  106bf0: 93 f7 f7 fd  	andi	a5, a5, -33
  106bf4: 23 16 f6 00  	sh	a5, 12(a2)
  106bf8: 5c 5a        	lw	a5, 52(a2)
  106bfa: 13 f9 f5 0f  	andi	s2, a1, 255
  106bfe: 93 f4 f5 0f  	andi	s1, a1, 255
  106c02: 9d c3        	beqz	a5, 0x106c28 <_sungetc_r+0x60>
  106c04: 1c 5e        	lw	a5, 56(a2)
  106c06: 63 5c f7 00  	bge	a4, a5, 0x106c1e <_sungetc_r+0x56>
  106c0a: 1c 40        	lw	a5, 0(s0)
  106c0c: 13 87 f7 ff  	addi	a4, a5, -1
  106c10: 18 c0        	sw	a4, 0(s0)
  106c12: a3 8f 27 ff  	sb	s2, -1(a5)
  106c16: 5c 40        	lw	a5, 4(s0)
  106c18: 85 07        	addi	a5, a5, 1
  106c1a: 5c c0        	sw	a5, 4(s0)
  106c1c: 7d bf        	j	0x106bda <_sungetc_r+0x12>
  106c1e: b2 85        	mv	a1, a2
  106c20: ef 00 d0 52  	jal	0x10794c <__submore>
  106c24: 7d d1        	beqz	a0, 0x106c0a <_sungetc_r+0x42>
  106c26: 4d bf        	j	0x106bd8 <_sungetc_r+0x10>
  106c28: 14 4a        	lw	a3, 16(a2)
  106c2a: 1c 42        	lw	a5, 0(a2)
  106c2c: 81 ce        	beqz	a3, 0x106c44 <_sungetc_r+0x7c>
  106c2e: 63 fb f6 00  	bgeu	a3, a5, 0x106c44 <_sungetc_r+0x7c>
  106c32: 83 c6 f7 ff  	lbu	a3, -1(a5)
  106c36: 63 97 96 00  	bne	a3, s1, 0x106c44 <_sungetc_r+0x7c>
  106c3a: fd 17        	addi	a5, a5, -1
  106c3c: 05 07        	addi	a4, a4, 1
  106c3e: 1c c2        	sw	a5, 0(a2)
  106c40: 58 c2        	sw	a4, 4(a2)
  106c42: 61 bf        	j	0x106bda <_sungetc_r+0x12>
  106c44: 5c dc        	sw	a5, 60(s0)
  106c46: 93 07 44 04  	addi	a5, s0, 68
  106c4a: 5c d8        	sw	a5, 52(s0)
  106c4c: 8d 47        	li	a5, 3
  106c4e: 1c dc        	sw	a5, 56(s0)
  106c50: 93 07 64 04  	addi	a5, s0, 70
  106c54: 1c c0        	sw	a5, 0(s0)
  106c56: 38 c0        	sw	a4, 64(s0)
  106c58: 23 03 24 05  	sb	s2, 70(s0)
  106c5c: 85 47        	li	a5, 1
  106c5e: 75 bf        	j	0x106c1a <_sungetc_r+0x52>

00106c60 <__ssrefill_r>:
  106c60: 41 11        	addi	sp, sp, -16
  106c62: 22 c4        	sw	s0, 8(sp)
  106c64: 2e 84        	mv	s0, a1
  106c66: cc 59        	lw	a1, 52(a1)
  106c68: 06 c6        	sw	ra, 12(sp)
  106c6a: 9d c1        	beqz	a1, 0x106c90 <__ssrefill_r+0x30>
  106c6c: 93 07 44 04  	addi	a5, s0, 68
  106c70: 63 84 f5 00  	beq	a1, a5, 0x106c78 <__ssrefill_r+0x18>
  106c74: ef d0 9f ed  	jal	0x104b4c <_free_r>
  106c78: 3c 40        	lw	a5, 64(s0)
  106c7a: 23 2a 04 02  	sw	zero, 52(s0)
  106c7e: 5c c0        	sw	a5, 4(s0)
  106c80: 81 cb        	beqz	a5, 0x106c90 <__ssrefill_r+0x30>
  106c82: 5c 5c        	lw	a5, 60(s0)
  106c84: 01 45        	li	a0, 0
  106c86: 1c c0        	sw	a5, 0(s0)
  106c88: b2 40        	lw	ra, 12(sp)
  106c8a: 22 44        	lw	s0, 8(sp)
  106c8c: 41 01        	addi	sp, sp, 16
  106c8e: 82 80        	ret
  106c90: 1c 48        	lw	a5, 16(s0)
  106c92: 23 22 04 00  	sw	zero, 4(s0)
  106c96: 7d 55        	li	a0, -1
  106c98: 1c c0        	sw	a5, 0(s0)
  106c9a: 83 57 c4 00  	lhu	a5, 12(s0)
  106c9e: 93 e7 07 02  	ori	a5, a5, 32
  106ca2: 23 16 f4 00  	sh	a5, 12(s0)
  106ca6: cd b7        	j	0x106c88 <__ssrefill_r+0x28>

00106ca8 <__ssvfscanf_r>:
  106ca8: b7 77 10 00  	lui	a5, 263
  106cac: 13 01 01 d4  	addi	sp, sp, -704
  106cb0: 93 87 87 bc  	addi	a5, a5, -1080
  106cb4: 23 24 f1 28  	sw	a5, 648(sp)
  106cb8: b7 77 10 00  	lui	a5, 263
  106cbc: 23 26 31 2b  	sw	s3, 684(sp)
  106cc0: 23 24 41 2b  	sw	s4, 680(sp)
  106cc4: 23 22 51 2b  	sw	s5, 676(sp)
  106cc8: 23 20 61 2b  	sw	s6, 672(sp)
  106ccc: 93 87 07 c6  	addi	a5, a5, -928
  106cd0: 13 0b c1 00  	addi	s6, sp, 12
  106cd4: 37 2a 10 00  	lui	s4, 258
  106cd8: 23 2c 81 2a  	sw	s0, 696(sp)
  106cdc: 23 2a 91 2a  	sw	s1, 692(sp)
  106ce0: 23 2e 71 29  	sw	s7, 668(sp)
  106ce4: 23 2e 11 2a  	sw	ra, 700(sp)
  106ce8: 23 28 21 2b  	sw	s2, 688(sp)
  106cec: 23 2c 81 29  	sw	s8, 664(sp)
  106cf0: aa 84        	mv	s1, a0
  106cf2: 2e 84        	mv	s0, a1
  106cf4: 23 2c 01 10  	sw	zero, 280(sp)
  106cf8: 23 2e 01 10  	sw	zero, 284(sp)
  106cfc: 23 20 61 13  	sw	s6, 288(sp)
  106d00: 23 26 f1 28  	sw	a5, 652(sp)
  106d04: 36 c4        	sw	a3, 8(sp)
  106d06: 93 89 11 e3  	addi	s3, gp, -463
  106d0a: 13 0a ca cd  	addi	s4, s4, -804
  106d0e: 93 8a 41 f3  	addi	s5, gp, -204
  106d12: 83 47 06 00  	lbu	a5, 0(a2)
  106d16: 63 80 07 2e  	beqz	a5, 0x106ff6 <__ssvfscanf_r+0x34e>
  106d1a: 33 87 37 01  	add	a4, a5, s3
  106d1e: 03 47 07 00  	lbu	a4, 0(a4)
  106d22: 13 09 16 00  	addi	s2, a2, 1
  106d26: 21 8b        	andi	a4, a4, 8
  106d28: 21 c3        	beqz	a4, 0x106d68 <__ssvfscanf_r+0xc0>
  106d2a: 5c 40        	lw	a5, 4(s0)
  106d2c: 63 57 f0 02  	blez	a5, 0x106d5a <__ssvfscanf_r+0xb2>
  106d30: 1c 40        	lw	a5, 0(s0)
  106d32: 03 c7 07 00  	lbu	a4, 0(a5)
  106d36: 4e 97        	add	a4, a4, s3
  106d38: 03 47 07 00  	lbu	a4, 0(a4)
  106d3c: 21 8b        	andi	a4, a4, 8
  106d3e: 19 e3        	bnez	a4, 0x106d44 <__ssvfscanf_r+0x9c>
  106d40: 4a 86        	mv	a2, s2
  106d42: c1 bf        	j	0x106d12 <__ssvfscanf_r+0x6a>
  106d44: 03 27 c1 11  	lw	a4, 284(sp)
  106d48: 85 07        	addi	a5, a5, 1
  106d4a: 1c c0        	sw	a5, 0(s0)
  106d4c: 05 07        	addi	a4, a4, 1
  106d4e: 23 2e e1 10  	sw	a4, 284(sp)
  106d52: 58 40        	lw	a4, 4(s0)
  106d54: 7d 17        	addi	a4, a4, -1
  106d56: 58 c0        	sw	a4, 4(s0)
  106d58: c9 bf        	j	0x106d2a <__ssvfscanf_r+0x82>
  106d5a: 83 27 c1 28  	lw	a5, 652(sp)
  106d5e: a2 85        	mv	a1, s0
  106d60: 26 85        	mv	a0, s1
  106d62: 82 97        	jalr	a5
  106d64: 71 d5        	beqz	a0, 0x106d30 <__ssvfscanf_r+0x88>
  106d66: e9 bf        	j	0x106d40 <__ssvfscanf_r+0x98>
  106d68: 13 07 50 02  	li	a4, 37
  106d6c: 3e 8c        	mv	s8, a5
  106d6e: 63 9a e7 0c  	bne	a5, a4, 0x106e42 <__ssvfscanf_r+0x19a>
  106d72: 23 2a 01 10  	sw	zero, 276(sp)
  106d76: 23 26 01 10  	sw	zero, 268(sp)
  106d7a: 03 47 16 00  	lbu	a4, 1(a2)
  106d7e: 93 07 a0 02  	li	a5, 42
  106d82: 63 17 f7 00  	bne	a4, a5, 0x106d90 <__ssvfscanf_r+0xe8>
  106d86: c1 47        	li	a5, 16
  106d88: 23 26 f1 10  	sw	a5, 268(sp)
  106d8c: 13 09 26 00  	addi	s2, a2, 2
  106d90: 4a 8c        	mv	s8, s2
  106d92: 25 47        	li	a4, 9
  106d94: a9 46        	li	a3, 10
  106d96: 83 45 0c 00  	lbu	a1, 0(s8)
  106d9a: 13 09 1c 00  	addi	s2, s8, 1
  106d9e: 93 87 05 fd  	addi	a5, a1, -48
  106da2: 63 7e f7 04  	bgeu	a4, a5, 0x106dfe <__ssvfscanf_r+0x156>
  106da6: 0d 46        	li	a2, 3
  106da8: 13 85 c1 a0  	addi	a0, gp, -1524
  106dac: ef c0 ff be  	jal	0x10399a <memchr>
  106db0: 09 cd        	beqz	a0, 0x106dca <__ssvfscanf_r+0x122>
  106db2: 93 87 c1 a0  	addi	a5, gp, -1524
  106db6: 1d 8d        	sub	a0, a0, a5
  106db8: 85 47        	li	a5, 1
  106dba: b3 97 a7 00  	sll	a5, a5, a0
  106dbe: 03 25 c1 10  	lw	a0, 268(sp)
  106dc2: 4a 8c        	mv	s8, s2
  106dc4: 5d 8d        	or	a0, a0, a5
  106dc6: 23 26 a1 10  	sw	a0, 268(sp)
  106dca: 83 47 0c 00  	lbu	a5, 0(s8)
  106dce: 13 07 80 07  	li	a4, 120
  106dd2: 13 09 1c 00  	addi	s2, s8, 1
  106dd6: 63 6d f7 00  	bltu	a4, a5, 0x106df0 <__ssvfscanf_r+0x148>
  106dda: 13 07 70 05  	li	a4, 87
  106dde: 63 6b f7 02  	bltu	a4, a5, 0x106e14 <__ssvfscanf_r+0x16c>
  106de2: 13 07 50 02  	li	a4, 37
  106de6: 63 8c e7 04  	beq	a5, a4, 0x106e3e <__ssvfscanf_r+0x196>
  106dea: 63 61 f7 04  	bltu	a4, a5, 0x106e2c <__ssvfscanf_r+0x184>
  106dee: d9 c7        	beqz	a5, 0x106e7c <__ssvfscanf_r+0x1d4>
  106df0: 8d 47        	li	a5, 3
  106df2: 23 22 f1 12  	sw	a5, 292(sp)
  106df6: a9 47        	li	a5, 10
  106df8: 23 28 f1 10  	sw	a5, 272(sp)
  106dfc: 45 a8        	j	0x106eac <__ssvfscanf_r+0x204>
  106dfe: 83 27 41 11  	lw	a5, 276(sp)
  106e02: 4a 8c        	mv	s8, s2
  106e04: b3 87 f6 02  	mul	a5, a3, a5
  106e08: 93 87 07 fd  	addi	a5, a5, -48
  106e0c: ae 97        	add	a5, a5, a1
  106e0e: 23 2a f1 10  	sw	a5, 276(sp)
  106e12: 51 b7        	j	0x106d96 <__ssvfscanf_r+0xee>
  106e14: 13 87 87 fa  	addi	a4, a5, -88
  106e18: 13 77 f7 0f  	andi	a4, a4, 255
  106e1c: 93 06 00 02  	li	a3, 32
  106e20: e3 e8 e6 fc  	bltu	a3, a4, 0x106df0 <__ssvfscanf_r+0x148>
  106e24: 0a 07        	slli	a4, a4, 2
  106e26: 56 97        	add	a4, a4, s5
  106e28: 18 43        	lw	a4, 0(a4)
  106e2a: 02 87        	jr	a4
  106e2c: 93 87 b7 fb  	addi	a5, a5, -69
  106e30: 93 f7 f7 0f  	andi	a5, a5, 255
  106e34: 09 47        	li	a4, 2
  106e36: e3 6d f7 fa  	bltu	a4, a5, 0x106df0 <__ssvfscanf_r+0x148>
  106e3a: 95 47        	li	a5, 5
  106e3c: b5 a0        	j	0x106ea8 <__ssvfscanf_r+0x200>
  106e3e: 13 0c 50 02  	li	s8, 37
  106e42: 5c 40        	lw	a5, 4(s0)
  106e44: 63 52 f0 02  	blez	a5, 0x106e68 <__ssvfscanf_r+0x1c0>
  106e48: 1c 40        	lw	a5, 0(s0)
  106e4a: 03 c7 07 00  	lbu	a4, 0(a5)
  106e4e: 63 14 87 1b  	bne	a4, s8, 0x106ff6 <__ssvfscanf_r+0x34e>
  106e52: 85 07        	addi	a5, a5, 1
  106e54: 58 40        	lw	a4, 4(s0)
  106e56: 1c c0        	sw	a5, 0(s0)
  106e58: 83 27 c1 11  	lw	a5, 284(sp)
  106e5c: 7d 17        	addi	a4, a4, -1
  106e5e: 58 c0        	sw	a4, 4(s0)
  106e60: 85 07        	addi	a5, a5, 1
  106e62: 23 2e f1 10  	sw	a5, 284(sp)
  106e66: e9 bd        	j	0x106d40 <__ssvfscanf_r+0x98>
  106e68: 83 27 c1 28  	lw	a5, 652(sp)
  106e6c: a2 85        	mv	a1, s0
  106e6e: 26 85        	mv	a0, s1
  106e70: 82 97        	jalr	a5
  106e72: 79 d9        	beqz	a0, 0x106e48 <__ssvfscanf_r+0x1a0>
  106e74: 03 25 81 11  	lw	a0, 280(sp)
  106e78: 63 12 05 14  	bnez	a0, 0x106fbc <__ssvfscanf_r+0x314>
  106e7c: 7d 55        	li	a0, -1
  106e7e: a9 a2        	j	0x106fc8 <__ssvfscanf_r+0x320>
  106e80: 03 27 c1 10  	lw	a4, 268(sp)
  106e84: 13 67 07 02  	ori	a4, a4, 32
  106e88: 23 26 e1 10  	sw	a4, 268(sp)
  106e8c: 03 27 c1 10  	lw	a4, 268(sp)
  106e90: 13 67 07 20  	ori	a4, a4, 512
  106e94: 23 26 e1 10  	sw	a4, 268(sp)
  106e98: 41 47        	li	a4, 16
  106e9a: 23 28 e1 10  	sw	a4, 272(sp)
  106e9e: 13 07 e0 06  	li	a4, 110
  106ea2: b3 37 f7 00  	sltu	a5, a4, a5
  106ea6: 8d 07        	addi	a5, a5, 3
  106ea8: 23 22 f1 12  	sw	a5, 292(sp)
  106eac: 5c 40        	lw	a5, 4(s0)
  106eae: 63 5a f0 0a  	blez	a5, 0x106f62 <__ssvfscanf_r+0x2ba>
  106eb2: 83 27 c1 10  	lw	a5, 268(sp)
  106eb6: 93 f7 07 04  	andi	a5, a5, 64
  106eba: 89 eb        	bnez	a5, 0x106ecc <__ssvfscanf_r+0x224>
  106ebc: 1c 40        	lw	a5, 0(s0)
  106ebe: 03 c7 07 00  	lbu	a4, 0(a5)
  106ec2: 4e 97        	add	a4, a4, s3
  106ec4: 03 47 07 00  	lbu	a4, 0(a4)
  106ec8: 21 8b        	andi	a4, a4, 8
  106eca: 5d e3        	bnez	a4, 0x106f70 <__ssvfscanf_r+0x2c8>
  106ecc: 83 27 41 12  	lw	a5, 292(sp)
  106ed0: 09 47        	li	a4, 2
  106ed2: 63 43 f7 0c  	blt	a4, a5, 0x106f98 <__ssvfscanf_r+0x2f0>
  106ed6: 34 00        	addi	a3, sp, 8
  106ed8: 22 86        	mv	a2, s0
  106eda: 6c 02        	addi	a1, sp, 268
  106edc: 26 85        	mv	a0, s1
  106ede: 35 23        	jal	0x10740a <_scanf_chars>
  106ee0: 85 47        	li	a5, 1
  106ee2: 63 0a f5 10  	beq	a0, a5, 0x106ff6 <__ssvfscanf_r+0x34e>
  106ee6: 89 47        	li	a5, 2
  106ee8: e3 1c f5 e4  	bne	a0, a5, 0x106d40 <__ssvfscanf_r+0x98>
  106eec: 61 b7        	j	0x106e74 <__ssvfscanf_r+0x1cc>
  106eee: 29 47        	li	a4, 10
  106ef0: 6d b7        	j	0x106e9a <__ssvfscanf_r+0x1f2>
  106ef2: 23 28 01 10  	sw	zero, 272(sp)
  106ef6: 8d 47        	li	a5, 3
  106ef8: 45 bf        	j	0x106ea8 <__ssvfscanf_r+0x200>
  106efa: a1 47        	li	a5, 8
  106efc: 23 28 f1 10  	sw	a5, 272(sp)
  106f00: 91 47        	li	a5, 4
  106f02: 5d b7        	j	0x106ea8 <__ssvfscanf_r+0x200>
  106f04: ca 85        	mv	a1, s2
  106f06: 5a 85        	mv	a0, s6
  106f08: ef 00 f0 19  	jal	0x1078a6 <__sccl>
  106f0c: 83 27 c1 10  	lw	a5, 268(sp)
  106f10: 2a 89        	mv	s2, a0
  106f12: 93 e7 07 04  	ori	a5, a5, 64
  106f16: 23 26 f1 10  	sw	a5, 268(sp)
  106f1a: 85 47        	li	a5, 1
  106f1c: 71 b7        	j	0x106ea8 <__ssvfscanf_r+0x200>
  106f1e: 83 27 c1 10  	lw	a5, 268(sp)
  106f22: 23 22 01 12  	sw	zero, 292(sp)
  106f26: 93 e7 07 04  	ori	a5, a5, 64
  106f2a: 23 26 f1 10  	sw	a5, 268(sp)
  106f2e: bd bf        	j	0x106eac <__ssvfscanf_r+0x204>
  106f30: 89 47        	li	a5, 2
  106f32: 9d bf        	j	0x106ea8 <__ssvfscanf_r+0x200>
  106f34: 83 27 c1 10  	lw	a5, 268(sp)
  106f38: 13 f7 07 01  	andi	a4, a5, 16
  106f3c: e3 12 07 e0  	bnez	a4, 0x106d40 <__ssvfscanf_r+0x98>
  106f40: 22 47        	lw	a4, 8(sp)
  106f42: 93 f5 17 00  	andi	a1, a5, 1
  106f46: 83 26 c1 11  	lw	a3, 284(sp)
  106f4a: 13 06 47 00  	addi	a2, a4, 4
  106f4e: 91 c5        	beqz	a1, 0x106f5a <__ssvfscanf_r+0x2b2>
  106f50: 32 c4        	sw	a2, 8(sp)
  106f52: 1c 43        	lw	a5, 0(a4)
  106f54: 23 90 d7 00  	sh	a3, 0(a5)
  106f58: e5 b3        	j	0x106d40 <__ssvfscanf_r+0x98>
  106f5a: 32 c4        	sw	a2, 8(sp)
  106f5c: 1c 43        	lw	a5, 0(a4)
  106f5e: 94 c3        	sw	a3, 0(a5)
  106f60: c5 b3        	j	0x106d40 <__ssvfscanf_r+0x98>
  106f62: 83 27 c1 28  	lw	a5, 652(sp)
  106f66: a2 85        	mv	a1, s0
  106f68: 26 85        	mv	a0, s1
  106f6a: 82 97        	jalr	a5
  106f6c: 39 d1        	beqz	a0, 0x106eb2 <__ssvfscanf_r+0x20a>
  106f6e: 19 b7        	j	0x106e74 <__ssvfscanf_r+0x1cc>
  106f70: 03 27 c1 11  	lw	a4, 284(sp)
  106f74: 05 07        	addi	a4, a4, 1
  106f76: 23 2e e1 10  	sw	a4, 284(sp)
  106f7a: 58 40        	lw	a4, 4(s0)
  106f7c: 7d 17        	addi	a4, a4, -1
  106f7e: 58 c0        	sw	a4, 4(s0)
  106f80: 63 55 e0 00  	blez	a4, 0x106f8a <__ssvfscanf_r+0x2e2>
  106f84: 85 07        	addi	a5, a5, 1
  106f86: 1c c0        	sw	a5, 0(s0)
  106f88: 15 bf        	j	0x106ebc <__ssvfscanf_r+0x214>
  106f8a: 83 27 c1 28  	lw	a5, 652(sp)
  106f8e: a2 85        	mv	a1, s0
  106f90: 26 85        	mv	a0, s1
  106f92: 82 97        	jalr	a5
  106f94: 05 d5        	beqz	a0, 0x106ebc <__ssvfscanf_r+0x214>
  106f96: f9 bd        	j	0x106e74 <__ssvfscanf_r+0x1cc>
  106f98: 11 47        	li	a4, 4
  106f9a: 63 48 f7 00  	blt	a4, a5, 0x106faa <__ssvfscanf_r+0x302>
  106f9e: 34 00        	addi	a3, sp, 8
  106fa0: 22 86        	mv	a2, s0
  106fa2: 6c 02        	addi	a1, sp, 268
  106fa4: 26 85        	mv	a0, s1
  106fa6: 99 23        	jal	0x1074ec <_scanf_i>
  106fa8: 25 bf        	j	0x106ee0 <__ssvfscanf_r+0x238>
  106faa: e3 0b 0a d8  	beqz	s4, 0x106d40 <__ssvfscanf_r+0x98>
  106fae: 34 00        	addi	a3, sp, 8
  106fb0: 22 86        	mv	a2, s0
  106fb2: 6c 02        	addi	a1, sp, 268
  106fb4: 26 85        	mv	a0, s1
  106fb6: ef a0 7f d2  	jal	0x101cdc <_scanf_float>
  106fba: 1d b7        	j	0x106ee0 <__ssvfscanf_r+0x238>
  106fbc: 83 57 c4 00  	lhu	a5, 12(s0)
  106fc0: 93 f7 07 04  	andi	a5, a5, 64
  106fc4: e3 9c 07 ea  	bnez	a5, 0x106e7c <__ssvfscanf_r+0x1d4>
  106fc8: 83 20 c1 2b  	lw	ra, 700(sp)
  106fcc: 03 24 81 2b  	lw	s0, 696(sp)
  106fd0: 83 24 41 2b  	lw	s1, 692(sp)
  106fd4: 03 29 01 2b  	lw	s2, 688(sp)
  106fd8: 83 29 c1 2a  	lw	s3, 684(sp)
  106fdc: 03 2a 81 2a  	lw	s4, 680(sp)
  106fe0: 83 2a 41 2a  	lw	s5, 676(sp)
  106fe4: 03 2b 01 2a  	lw	s6, 672(sp)
  106fe8: 83 2b c1 29  	lw	s7, 668(sp)
  106fec: 03 2c 81 29  	lw	s8, 664(sp)
  106ff0: 13 01 01 2c  	addi	sp, sp, 704
  106ff4: 82 80        	ret
  106ff6: 03 25 81 11  	lw	a0, 280(sp)
  106ffa: f9 b7        	j	0x106fc8 <__ssvfscanf_r+0x320>

00106ffc <__svfscanf_r>:
  106ffc: b7 87 10 00  	lui	a5, 264
  107000: 13 01 01 d4  	addi	sp, sp, -704
  107004: 93 87 87 9d  	addi	a5, a5, -1576
  107008: 23 24 f1 28  	sw	a5, 648(sp)
  10700c: b7 37 10 00  	lui	a5, 259
  107010: 23 26 31 2b  	sw	s3, 684(sp)
  107014: 23 24 41 2b  	sw	s4, 680(sp)
  107018: 23 22 51 2b  	sw	s5, 676(sp)
  10701c: 23 20 61 2b  	sw	s6, 672(sp)
  107020: 93 87 47 1e  	addi	a5, a5, 484
  107024: 13 0b c1 00  	addi	s6, sp, 12
  107028: 37 2a 10 00  	lui	s4, 258
  10702c: 23 2c 81 2a  	sw	s0, 696(sp)
  107030: 23 2a 91 2a  	sw	s1, 692(sp)
  107034: 23 2e 71 29  	sw	s7, 668(sp)
  107038: 23 2e 11 2a  	sw	ra, 700(sp)
  10703c: 23 28 21 2b  	sw	s2, 688(sp)
  107040: 23 2c 81 29  	sw	s8, 664(sp)
  107044: aa 84        	mv	s1, a0
  107046: 2e 84        	mv	s0, a1
  107048: 23 2c 01 10  	sw	zero, 280(sp)
  10704c: 23 2e 01 10  	sw	zero, 284(sp)
  107050: 23 20 61 13  	sw	s6, 288(sp)
  107054: 23 26 f1 28  	sw	a5, 652(sp)
  107058: 36 c4        	sw	a3, 8(sp)
  10705a: 93 89 11 e3  	addi	s3, gp, -463
  10705e: 13 0a ca cd  	addi	s4, s4, -804
  107062: 93 8a 81 fb  	addi	s5, gp, -72
  107066: 83 47 06 00  	lbu	a5, 0(a2)
  10706a: 63 8f 07 2c  	beqz	a5, 0x107348 <__svfscanf_r+0x34c>
  10706e: 33 87 37 01  	add	a4, a5, s3
  107072: 03 47 07 00  	lbu	a4, 0(a4)
  107076: 13 09 16 00  	addi	s2, a2, 1
  10707a: 21 8b        	andi	a4, a4, 8
  10707c: 21 c3        	beqz	a4, 0x1070bc <__svfscanf_r+0xc0>
  10707e: 5c 40        	lw	a5, 4(s0)
  107080: 63 57 f0 02  	blez	a5, 0x1070ae <__svfscanf_r+0xb2>
  107084: 1c 40        	lw	a5, 0(s0)
  107086: 03 c7 07 00  	lbu	a4, 0(a5)
  10708a: 4e 97        	add	a4, a4, s3
  10708c: 03 47 07 00  	lbu	a4, 0(a4)
  107090: 21 8b        	andi	a4, a4, 8
  107092: 19 e3        	bnez	a4, 0x107098 <__svfscanf_r+0x9c>
  107094: 4a 86        	mv	a2, s2
  107096: c1 bf        	j	0x107066 <__svfscanf_r+0x6a>
  107098: 03 27 c1 11  	lw	a4, 284(sp)
  10709c: 85 07        	addi	a5, a5, 1
  10709e: 1c c0        	sw	a5, 0(s0)
  1070a0: 05 07        	addi	a4, a4, 1
  1070a2: 23 2e e1 10  	sw	a4, 284(sp)
  1070a6: 58 40        	lw	a4, 4(s0)
  1070a8: 7d 17        	addi	a4, a4, -1
  1070aa: 58 c0        	sw	a4, 4(s0)
  1070ac: c9 bf        	j	0x10707e <__svfscanf_r+0x82>
  1070ae: 83 27 c1 28  	lw	a5, 652(sp)
  1070b2: a2 85        	mv	a1, s0
  1070b4: 26 85        	mv	a0, s1
  1070b6: 82 97        	jalr	a5
  1070b8: 71 d5        	beqz	a0, 0x107084 <__svfscanf_r+0x88>
  1070ba: e9 bf        	j	0x107094 <__svfscanf_r+0x98>
  1070bc: 13 07 50 02  	li	a4, 37
  1070c0: 3e 8c        	mv	s8, a5
  1070c2: 63 9a e7 0c  	bne	a5, a4, 0x107196 <__svfscanf_r+0x19a>
  1070c6: 23 2a 01 10  	sw	zero, 276(sp)
  1070ca: 23 26 01 10  	sw	zero, 268(sp)
  1070ce: 03 47 16 00  	lbu	a4, 1(a2)
  1070d2: 93 07 a0 02  	li	a5, 42
  1070d6: 63 17 f7 00  	bne	a4, a5, 0x1070e4 <__svfscanf_r+0xe8>
  1070da: c1 47        	li	a5, 16
  1070dc: 23 26 f1 10  	sw	a5, 268(sp)
  1070e0: 13 09 26 00  	addi	s2, a2, 2
  1070e4: 4a 8c        	mv	s8, s2
  1070e6: 25 47        	li	a4, 9
  1070e8: a9 46        	li	a3, 10
  1070ea: 83 45 0c 00  	lbu	a1, 0(s8)
  1070ee: 13 09 1c 00  	addi	s2, s8, 1
  1070f2: 93 87 05 fd  	addi	a5, a1, -48
  1070f6: 63 7e f7 04  	bgeu	a4, a5, 0x107152 <__svfscanf_r+0x156>
  1070fa: 0d 46        	li	a2, 3
  1070fc: 13 85 c1 a0  	addi	a0, gp, -1524
  107100: ef c0 bf 89  	jal	0x10399a <memchr>
  107104: 09 cd        	beqz	a0, 0x10711e <__svfscanf_r+0x122>
  107106: 93 87 c1 a0  	addi	a5, gp, -1524
  10710a: 1d 8d        	sub	a0, a0, a5
  10710c: 85 47        	li	a5, 1
  10710e: b3 97 a7 00  	sll	a5, a5, a0
  107112: 03 25 c1 10  	lw	a0, 268(sp)
  107116: 4a 8c        	mv	s8, s2
  107118: 5d 8d        	or	a0, a0, a5
  10711a: 23 26 a1 10  	sw	a0, 268(sp)
  10711e: 83 47 0c 00  	lbu	a5, 0(s8)
  107122: 13 07 80 07  	li	a4, 120
  107126: 13 09 1c 00  	addi	s2, s8, 1
  10712a: 63 6d f7 00  	bltu	a4, a5, 0x107144 <__svfscanf_r+0x148>
  10712e: 13 07 70 05  	li	a4, 87
  107132: 63 6b f7 02  	bltu	a4, a5, 0x107168 <__svfscanf_r+0x16c>
  107136: 13 07 50 02  	li	a4, 37
  10713a: 63 8c e7 04  	beq	a5, a4, 0x107192 <__svfscanf_r+0x196>
  10713e: 63 61 f7 04  	bltu	a4, a5, 0x107180 <__svfscanf_r+0x184>
  107142: d9 c7        	beqz	a5, 0x1071d0 <__svfscanf_r+0x1d4>
  107144: 8d 47        	li	a5, 3
  107146: 23 22 f1 12  	sw	a5, 292(sp)
  10714a: a9 47        	li	a5, 10
  10714c: 23 28 f1 10  	sw	a5, 272(sp)
  107150: 45 a8        	j	0x107200 <__svfscanf_r+0x204>
  107152: 83 27 41 11  	lw	a5, 276(sp)
  107156: 4a 8c        	mv	s8, s2
  107158: b3 87 f6 02  	mul	a5, a3, a5
  10715c: 93 87 07 fd  	addi	a5, a5, -48
  107160: ae 97        	add	a5, a5, a1
  107162: 23 2a f1 10  	sw	a5, 276(sp)
  107166: 51 b7        	j	0x1070ea <__svfscanf_r+0xee>
  107168: 13 87 87 fa  	addi	a4, a5, -88
  10716c: 13 77 f7 0f  	andi	a4, a4, 255
  107170: 93 06 00 02  	li	a3, 32
  107174: e3 e8 e6 fc  	bltu	a3, a4, 0x107144 <__svfscanf_r+0x148>
  107178: 0a 07        	slli	a4, a4, 2
  10717a: 56 97        	add	a4, a4, s5
  10717c: 18 43        	lw	a4, 0(a4)
  10717e: 02 87        	jr	a4
  107180: 93 87 b7 fb  	addi	a5, a5, -69
  107184: 93 f7 f7 0f  	andi	a5, a5, 255
  107188: 09 47        	li	a4, 2
  10718a: e3 6d f7 fa  	bltu	a4, a5, 0x107144 <__svfscanf_r+0x148>
  10718e: 95 47        	li	a5, 5
  107190: b5 a0        	j	0x1071fc <__svfscanf_r+0x200>
  107192: 13 0c 50 02  	li	s8, 37
  107196: 5c 40        	lw	a5, 4(s0)
  107198: 63 52 f0 02  	blez	a5, 0x1071bc <__svfscanf_r+0x1c0>
  10719c: 1c 40        	lw	a5, 0(s0)
  10719e: 03 c7 07 00  	lbu	a4, 0(a5)
  1071a2: 63 13 87 1b  	bne	a4, s8, 0x107348 <__svfscanf_r+0x34c>
  1071a6: 85 07        	addi	a5, a5, 1
  1071a8: 58 40        	lw	a4, 4(s0)
  1071aa: 1c c0        	sw	a5, 0(s0)
  1071ac: 83 27 c1 11  	lw	a5, 284(sp)
  1071b0: 7d 17        	addi	a4, a4, -1
  1071b2: 58 c0        	sw	a4, 4(s0)
  1071b4: 85 07        	addi	a5, a5, 1
  1071b6: 23 2e f1 10  	sw	a5, 284(sp)
  1071ba: e9 bd        	j	0x107094 <__svfscanf_r+0x98>
  1071bc: 83 27 c1 28  	lw	a5, 652(sp)
  1071c0: a2 85        	mv	a1, s0
  1071c2: 26 85        	mv	a0, s1
  1071c4: 82 97        	jalr	a5
  1071c6: 79 d9        	beqz	a0, 0x10719c <__svfscanf_r+0x1a0>
  1071c8: 03 25 81 11  	lw	a0, 280(sp)
  1071cc: 63 11 05 14  	bnez	a0, 0x10730e <__svfscanf_r+0x312>
  1071d0: 7d 55        	li	a0, -1
  1071d2: a1 a2        	j	0x10731a <__svfscanf_r+0x31e>
  1071d4: 03 27 c1 10  	lw	a4, 268(sp)
  1071d8: 13 67 07 02  	ori	a4, a4, 32
  1071dc: 23 26 e1 10  	sw	a4, 268(sp)
  1071e0: 03 27 c1 10  	lw	a4, 268(sp)
  1071e4: 13 67 07 20  	ori	a4, a4, 512
  1071e8: 23 26 e1 10  	sw	a4, 268(sp)
  1071ec: 41 47        	li	a4, 16
  1071ee: 23 28 e1 10  	sw	a4, 272(sp)
  1071f2: 13 07 e0 06  	li	a4, 110
  1071f6: b3 37 f7 00  	sltu	a5, a4, a5
  1071fa: 8d 07        	addi	a5, a5, 3
  1071fc: 23 22 f1 12  	sw	a5, 292(sp)
  107200: 5c 40        	lw	a5, 4(s0)
  107202: 63 59 f0 0a  	blez	a5, 0x1072b4 <__svfscanf_r+0x2b8>
  107206: 83 27 c1 10  	lw	a5, 268(sp)
  10720a: 93 f7 07 04  	andi	a5, a5, 64
  10720e: 89 eb        	bnez	a5, 0x107220 <__svfscanf_r+0x224>
  107210: 1c 40        	lw	a5, 0(s0)
  107212: 03 c7 07 00  	lbu	a4, 0(a5)
  107216: 4e 97        	add	a4, a4, s3
  107218: 03 47 07 00  	lbu	a4, 0(a4)
  10721c: 21 8b        	andi	a4, a4, 8
  10721e: 55 e3        	bnez	a4, 0x1072c2 <__svfscanf_r+0x2c6>
  107220: 83 27 41 12  	lw	a5, 292(sp)
  107224: 09 47        	li	a4, 2
  107226: 63 42 f7 0c  	blt	a4, a5, 0x1072ea <__svfscanf_r+0x2ee>
  10722a: 34 00        	addi	a3, sp, 8
  10722c: 22 86        	mv	a2, s0
  10722e: 6c 02        	addi	a1, sp, 268
  107230: 26 85        	mv	a0, s1
  107232: e1 2a        	jal	0x10740a <_scanf_chars>
  107234: 85 47        	li	a5, 1
  107236: 63 09 f5 10  	beq	a0, a5, 0x107348 <__svfscanf_r+0x34c>
  10723a: 89 47        	li	a5, 2
  10723c: e3 1c f5 e4  	bne	a0, a5, 0x107094 <__svfscanf_r+0x98>
  107240: 61 b7        	j	0x1071c8 <__svfscanf_r+0x1cc>
  107242: 29 47        	li	a4, 10
  107244: 6d b7        	j	0x1071ee <__svfscanf_r+0x1f2>
  107246: 23 28 01 10  	sw	zero, 272(sp)
  10724a: 8d 47        	li	a5, 3
  10724c: 45 bf        	j	0x1071fc <__svfscanf_r+0x200>
  10724e: a1 47        	li	a5, 8
  107250: 23 28 f1 10  	sw	a5, 272(sp)
  107254: 91 47        	li	a5, 4
  107256: 5d b7        	j	0x1071fc <__svfscanf_r+0x200>
  107258: ca 85        	mv	a1, s2
  10725a: 5a 85        	mv	a0, s6
  10725c: a9 25        	jal	0x1078a6 <__sccl>
  10725e: 83 27 c1 10  	lw	a5, 268(sp)
  107262: 2a 89        	mv	s2, a0
  107264: 93 e7 07 04  	ori	a5, a5, 64
  107268: 23 26 f1 10  	sw	a5, 268(sp)
  10726c: 85 47        	li	a5, 1
  10726e: 79 b7        	j	0x1071fc <__svfscanf_r+0x200>
  107270: 83 27 c1 10  	lw	a5, 268(sp)
  107274: 23 22 01 12  	sw	zero, 292(sp)
  107278: 93 e7 07 04  	ori	a5, a5, 64
  10727c: 23 26 f1 10  	sw	a5, 268(sp)
  107280: 41 b7        	j	0x107200 <__svfscanf_r+0x204>
  107282: 89 47        	li	a5, 2
  107284: a5 bf        	j	0x1071fc <__svfscanf_r+0x200>
  107286: 83 27 c1 10  	lw	a5, 268(sp)
  10728a: 13 f7 07 01  	andi	a4, a5, 16
  10728e: e3 13 07 e0  	bnez	a4, 0x107094 <__svfscanf_r+0x98>
  107292: 22 47        	lw	a4, 8(sp)
  107294: 93 f5 17 00  	andi	a1, a5, 1
  107298: 83 26 c1 11  	lw	a3, 284(sp)
  10729c: 13 06 47 00  	addi	a2, a4, 4
  1072a0: 91 c5        	beqz	a1, 0x1072ac <__svfscanf_r+0x2b0>
  1072a2: 32 c4        	sw	a2, 8(sp)
  1072a4: 1c 43        	lw	a5, 0(a4)
  1072a6: 23 90 d7 00  	sh	a3, 0(a5)
  1072aa: ed b3        	j	0x107094 <__svfscanf_r+0x98>
  1072ac: 32 c4        	sw	a2, 8(sp)
  1072ae: 1c 43        	lw	a5, 0(a4)
  1072b0: 94 c3        	sw	a3, 0(a5)
  1072b2: cd b3        	j	0x107094 <__svfscanf_r+0x98>
  1072b4: 83 27 c1 28  	lw	a5, 652(sp)
  1072b8: a2 85        	mv	a1, s0
  1072ba: 26 85        	mv	a0, s1
  1072bc: 82 97        	jalr	a5
  1072be: 21 d5        	beqz	a0, 0x107206 <__svfscanf_r+0x20a>
  1072c0: 21 b7        	j	0x1071c8 <__svfscanf_r+0x1cc>
  1072c2: 03 27 c1 11  	lw	a4, 284(sp)
  1072c6: 05 07        	addi	a4, a4, 1
  1072c8: 23 2e e1 10  	sw	a4, 284(sp)
  1072cc: 58 40        	lw	a4, 4(s0)
  1072ce: 7d 17        	addi	a4, a4, -1
  1072d0: 58 c0        	sw	a4, 4(s0)
  1072d2: 63 55 e0 00  	blez	a4, 0x1072dc <__svfscanf_r+0x2e0>
  1072d6: 85 07        	addi	a5, a5, 1
  1072d8: 1c c0        	sw	a5, 0(s0)
  1072da: 1d bf        	j	0x107210 <__svfscanf_r+0x214>
  1072dc: 83 27 c1 28  	lw	a5, 652(sp)
  1072e0: a2 85        	mv	a1, s0
  1072e2: 26 85        	mv	a0, s1
  1072e4: 82 97        	jalr	a5
  1072e6: 0d d5        	beqz	a0, 0x107210 <__svfscanf_r+0x214>
  1072e8: c5 b5        	j	0x1071c8 <__svfscanf_r+0x1cc>
  1072ea: 11 47        	li	a4, 4
  1072ec: 63 48 f7 00  	blt	a4, a5, 0x1072fc <__svfscanf_r+0x300>
  1072f0: 34 00        	addi	a3, sp, 8
  1072f2: 22 86        	mv	a2, s0
  1072f4: 6c 02        	addi	a1, sp, 268
  1072f6: 26 85        	mv	a0, s1
  1072f8: d5 2a        	jal	0x1074ec <_scanf_i>
  1072fa: 2d bf        	j	0x107234 <__svfscanf_r+0x238>
  1072fc: e3 0c 0a d8  	beqz	s4, 0x107094 <__svfscanf_r+0x98>
  107300: 34 00        	addi	a3, sp, 8
  107302: 22 86        	mv	a2, s0
  107304: 6c 02        	addi	a1, sp, 268
  107306: 26 85        	mv	a0, s1
  107308: ef a0 5f 9d  	jal	0x101cdc <_scanf_float>
  10730c: 25 b7        	j	0x107234 <__svfscanf_r+0x238>
  10730e: 83 57 c4 00  	lhu	a5, 12(s0)
  107312: 93 f7 07 04  	andi	a5, a5, 64
  107316: e3 9d 07 ea  	bnez	a5, 0x1071d0 <__svfscanf_r+0x1d4>
  10731a: 83 20 c1 2b  	lw	ra, 700(sp)
  10731e: 03 24 81 2b  	lw	s0, 696(sp)
  107322: 83 24 41 2b  	lw	s1, 692(sp)
  107326: 03 29 01 2b  	lw	s2, 688(sp)
  10732a: 83 29 c1 2a  	lw	s3, 684(sp)
  10732e: 03 2a 81 2a  	lw	s4, 680(sp)
  107332: 83 2a 41 2a  	lw	s5, 676(sp)
  107336: 03 2b 01 2a  	lw	s6, 672(sp)
  10733a: 83 2b c1 29  	lw	s7, 668(sp)
  10733e: 03 2c 81 29  	lw	s8, 664(sp)
  107342: 13 01 01 2c  	addi	sp, sp, 704
  107346: 82 80        	ret
  107348: 03 25 81 11  	lw	a0, 280(sp)
  10734c: f9 b7        	j	0x10731a <__svfscanf_r+0x31e>

0010734e <vfscanf>:
  10734e: 79 71        	addi	sp, sp, -48
  107350: 26 d2        	sw	s1, 36(sp)
  107352: 83 a4 41 8a  	lw	s1, -1884(gp)
  107356: 22 d4        	sw	s0, 40(sp)
  107358: 4a d0        	sw	s2, 32(sp)
  10735a: 4e ce        	sw	s3, 28(sp)
  10735c: 06 d6        	sw	ra, 44(sp)
  10735e: 2a 84        	mv	s0, a0
  107360: ae 89        	mv	s3, a1
  107362: b2 86        	mv	a3, a2
  107364: 3e 89        	mv	s2, a5
  107366: 81 c8        	beqz	s1, 0x107376 <vfscanf+0x28>
  107368: 9c 54        	lw	a5, 40(s1)
  10736a: 91 e7        	bnez	a5, 0x107376 <vfscanf+0x28>
  10736c: 26 85        	mv	a0, s1
  10736e: 32 c6        	sw	a2, 12(sp)
  107370: ef b0 0f a0  	jal	0x102570 <__sinit>
  107374: b2 46        	lw	a3, 12(sp)
  107376: 93 87 41 b3  	addi	a5, gp, -1228
  10737a: 63 1f f4 00  	bne	s0, a5, 0x107398 <vfscanf+0x4a>
  10737e: c0 40        	lw	s0, 4(s1)
  107380: a2 85        	mv	a1, s0
  107382: 22 54        	lw	s0, 40(sp)
  107384: 03 a5 41 8a  	lw	a0, -1884(gp)
  107388: b2 50        	lw	ra, 44(sp)
  10738a: 92 54        	lw	s1, 36(sp)
  10738c: 02 59        	lw	s2, 32(sp)
  10738e: 4e 86        	mv	a2, s3
  107390: f2 49        	lw	s3, 28(sp)
  107392: 45 61        	addi	sp, sp, 48
  107394: 6f f0 9f c6  	j	0x106ffc <__svfscanf_r>
  107398: 93 87 41 b5  	addi	a5, gp, -1196
  10739c: 63 14 f4 00  	bne	s0, a5, 0x1073a4 <vfscanf+0x56>
  1073a0: 80 44        	lw	s0, 8(s1)
  1073a2: f9 bf        	j	0x107380 <vfscanf+0x32>
  1073a4: 93 87 41 b1  	addi	a5, gp, -1260
  1073a8: e3 1c f4 fc  	bne	s0, a5, 0x107380 <vfscanf+0x32>
  1073ac: c0 44        	lw	s0, 12(s1)
  1073ae: c9 bf        	j	0x107380 <vfscanf+0x32>

001073b0 <__svfscanf>:
  1073b0: b2 86        	mv	a3, a2
  1073b2: 2e 86        	mv	a2, a1
  1073b4: aa 85        	mv	a1, a0
  1073b6: 03 a5 41 8a  	lw	a0, -1884(gp)
  1073ba: 6f f0 3f c4  	j	0x106ffc <__svfscanf_r>

001073be <_vfscanf_r>:
  1073be: 01 11        	addi	sp, sp, -32
  1073c0: 22 cc        	sw	s0, 24(sp)
  1073c2: 06 ce        	sw	ra, 28(sp)
  1073c4: 2a 84        	mv	s0, a0
  1073c6: 19 c9        	beqz	a0, 0x1073dc <_vfscanf_r+0x1e>
  1073c8: 1c 55        	lw	a5, 40(a0)
  1073ca: 89 eb        	bnez	a5, 0x1073dc <_vfscanf_r+0x1e>
  1073cc: 36 c6        	sw	a3, 12(sp)
  1073ce: 32 c4        	sw	a2, 8(sp)
  1073d0: 2e c2        	sw	a1, 4(sp)
  1073d2: ef b0 ef 99  	jal	0x102570 <__sinit>
  1073d6: b2 46        	lw	a3, 12(sp)
  1073d8: 22 46        	lw	a2, 8(sp)
  1073da: 92 45        	lw	a1, 4(sp)
  1073dc: 93 87 41 b3  	addi	a5, gp, -1228
  1073e0: 63 99 f5 00  	bne	a1, a5, 0x1073f2 <_vfscanf_r+0x34>
  1073e4: 4c 40        	lw	a1, 4(s0)
  1073e6: 22 85        	mv	a0, s0
  1073e8: 62 44        	lw	s0, 24(sp)
  1073ea: f2 40        	lw	ra, 28(sp)
  1073ec: 05 61        	addi	sp, sp, 32
  1073ee: 6f f0 ff c0  	j	0x106ffc <__svfscanf_r>
  1073f2: 93 87 41 b5  	addi	a5, gp, -1196
  1073f6: 63 94 f5 00  	bne	a1, a5, 0x1073fe <_vfscanf_r+0x40>
  1073fa: 0c 44        	lw	a1, 8(s0)
  1073fc: ed b7        	j	0x1073e6 <_vfscanf_r+0x28>
  1073fe: 93 87 41 b1  	addi	a5, gp, -1260
  107402: e3 92 f5 fe  	bne	a1, a5, 0x1073e6 <_vfscanf_r+0x28>
  107406: 4c 44        	lw	a1, 12(s0)
  107408: f9 bf        	j	0x1073e6 <_vfscanf_r+0x28>

0010740a <_scanf_chars>:
  10740a: 9c 45        	lw	a5, 8(a1)
  10740c: 79 71        	addi	sp, sp, -48
  10740e: 22 d4        	sw	s0, 40(sp)
  107410: 26 d2        	sw	s1, 36(sp)
  107412: 56 ca        	sw	s5, 20(sp)
  107414: 06 d6        	sw	ra, 44(sp)
  107416: 4a d0        	sw	s2, 32(sp)
  107418: 4e ce        	sw	s3, 28(sp)
  10741a: 52 cc        	sw	s4, 24(sp)
  10741c: 5a c8        	sw	s6, 16(sp)
  10741e: 5e c6        	sw	s7, 12(sp)
  107420: aa 8a        	mv	s5, a0
  107422: 2e 84        	mv	s0, a1
  107424: b2 84        	mv	s1, a2
  107426: 91 e7        	bnez	a5, 0x107432 <_scanf_chars+0x28>
  107428: 98 4d        	lw	a4, 24(a1)
  10742a: 85 47        	li	a5, 1
  10742c: 11 c3        	beqz	a4, 0x107430 <_scanf_chars+0x26>
  10742e: fd 57        	li	a5, -1
  107430: 1c c4        	sw	a5, 8(s0)
  107432: 1c 40        	lw	a5, 0(s0)
  107434: c1 8b        	andi	a5, a5, 16
  107436: 99 e7        	bnez	a5, 0x107444 <_scanf_chars+0x3a>
  107438: 9c 42        	lw	a5, 0(a3)
  10743a: 13 87 47 00  	addi	a4, a5, 4
  10743e: 98 c2        	sw	a4, 0(a3)
  107440: 83 a9 07 00  	lw	s3, 0(a5)
  107444: 01 49        	li	s2, 0
  107446: 05 4b        	li	s6, 1
  107448: 89 4b        	li	s7, 2
  10744a: 13 8a 11 e3  	addi	s4, gp, -463
  10744e: 08 4c        	lw	a0, 24(s0)
  107450: 05 c9        	beqz	a0, 0x107480 <_scanf_chars+0x76>
  107452: 63 1d 65 01  	bne	a0, s6, 0x10746c <_scanf_chars+0x62>
  107456: 9c 40        	lw	a5, 0(s1)
  107458: 03 c7 07 00  	lbu	a4, 0(a5)
  10745c: 5c 48        	lw	a5, 20(s0)
  10745e: ba 97        	add	a5, a5, a4
  107460: 83 c7 07 00  	lbu	a5, 0(a5)
  107464: 91 ef        	bnez	a5, 0x107480 <_scanf_chars+0x76>
  107466: 63 08 09 06  	beqz	s2, 0x1074d6 <_scanf_chars+0xcc>
  10746a: b9 a0        	j	0x1074b8 <_scanf_chars+0xae>
  10746c: 63 16 75 05  	bne	a0, s7, 0x1074b8 <_scanf_chars+0xae>
  107470: 9c 40        	lw	a5, 0(s1)
  107472: 83 c7 07 00  	lbu	a5, 0(a5)
  107476: d2 97        	add	a5, a5, s4
  107478: 83 c7 07 00  	lbu	a5, 0(a5)
  10747c: a1 8b        	andi	a5, a5, 8
  10747e: 8d ef        	bnez	a5, 0x1074b8 <_scanf_chars+0xae>
  107480: 1c 40        	lw	a5, 0(s0)
  107482: 05 09        	addi	s2, s2, 1
  107484: c1 8b        	andi	a5, a5, 16
  107486: 99 e7        	bnez	a5, 0x107494 <_scanf_chars+0x8a>
  107488: 9c 40        	lw	a5, 0(s1)
  10748a: 85 09        	addi	s3, s3, 1
  10748c: 83 c7 07 00  	lbu	a5, 0(a5)
  107490: a3 8f f9 fe  	sb	a5, -1(s3)
  107494: 98 40        	lw	a4, 0(s1)
  107496: dc 40        	lw	a5, 4(s1)
  107498: 05 07        	addi	a4, a4, 1
  10749a: 98 c0        	sw	a4, 0(s1)
  10749c: 18 44        	lw	a4, 8(s0)
  10749e: fd 17        	addi	a5, a5, -1
  1074a0: dc c0        	sw	a5, 4(s1)
  1074a2: 7d 17        	addi	a4, a4, -1
  1074a4: 18 c4        	sw	a4, 8(s0)
  1074a6: 09 cb        	beqz	a4, 0x1074b8 <_scanf_chars+0xae>
  1074a8: e3 43 f0 fa  	bgtz	a5, 0x10744e <_scanf_chars+0x44>
  1074ac: 83 27 04 18  	lw	a5, 384(s0)
  1074b0: a6 85        	mv	a1, s1
  1074b2: 56 85        	mv	a0, s5
  1074b4: 82 97        	jalr	a5
  1074b6: 41 dd        	beqz	a0, 0x10744e <_scanf_chars+0x44>
  1074b8: 1c 40        	lw	a5, 0(s0)
  1074ba: c1 8b        	andi	a5, a5, 16
  1074bc: 81 eb        	bnez	a5, 0x1074cc <_scanf_chars+0xc2>
  1074be: 5c 44        	lw	a5, 12(s0)
  1074c0: 85 07        	addi	a5, a5, 1
  1074c2: 5c c4        	sw	a5, 12(s0)
  1074c4: 1c 4c        	lw	a5, 24(s0)
  1074c6: 99 c3        	beqz	a5, 0x1074cc <_scanf_chars+0xc2>
  1074c8: 23 80 09 00  	sb	zero, 0(s3)
  1074cc: 1c 48        	lw	a5, 16(s0)
  1074ce: 01 45        	li	a0, 0
  1074d0: 3e 99        	add	s2, s2, a5
  1074d2: 23 28 24 01  	sw	s2, 16(s0)
  1074d6: b2 50        	lw	ra, 44(sp)
  1074d8: 22 54        	lw	s0, 40(sp)
  1074da: 92 54        	lw	s1, 36(sp)
  1074dc: 02 59        	lw	s2, 32(sp)
  1074de: f2 49        	lw	s3, 28(sp)
  1074e0: 62 4a        	lw	s4, 24(sp)
  1074e2: d2 4a        	lw	s5, 20(sp)
  1074e4: 42 4b        	lw	s6, 16(sp)
  1074e6: b2 4b        	lw	s7, 12(sp)
  1074e8: 45 61        	addi	sp, sp, 48
  1074ea: 82 80        	ret

001074ec <_scanf_i>:
  1074ec: 5d 71        	addi	sp, sp, -80
  1074ee: 93 87 c1 03  	addi	a5, gp, 60
  1074f2: 3e c2        	sw	a5, 4(sp)
  1074f4: 93 87 01 04  	addi	a5, gp, 64
  1074f8: a6 c2        	sw	s1, 68(sp)
  1074fa: 3e c4        	sw	a5, 8(sp)
  1074fc: b6 84        	mv	s1, a3
  1074fe: 94 4d        	lw	a3, 24(a1)
  107500: 93 87 41 04  	addi	a5, gp, 68
  107504: a2 c4        	sw	s0, 72(sp)
  107506: 4e de        	sw	s3, 60(sp)
  107508: 6e ce        	sw	s11, 28(sp)
  10750a: 3e c6        	sw	a5, 12(sp)
  10750c: 86 c6        	sw	ra, 76(sp)
  10750e: ca c0        	sw	s2, 64(sp)
  107510: 52 dc        	sw	s4, 56(sp)
  107512: 56 da        	sw	s5, 52(sp)
  107514: 5a d8        	sw	s6, 48(sp)
  107516: 5e d6        	sw	s7, 44(sp)
  107518: 62 d4        	sw	s8, 40(sp)
  10751a: 66 d2        	sw	s9, 36(sp)
  10751c: 6a d0        	sw	s10, 32(sp)
  10751e: 8d 47        	li	a5, 3
  107520: aa 89        	mv	s3, a0
  107522: 2e 84        	mv	s0, a1
  107524: b2 8d        	mv	s11, a2
  107526: 63 8c f6 12  	beq	a3, a5, 0x10765e <_scanf_i+0x172>
  10752a: 37 89 10 00  	lui	s2, 264
  10752e: 13 09 09 4d  	addi	s2, s2, 1232
  107532: 1c 44        	lw	a5, 8(s0)
  107534: 93 06 c0 15  	li	a3, 348
  107538: 81 4a        	li	s5, 0
  10753a: 13 86 f7 ff  	addi	a2, a5, -1
  10753e: 63 f7 c6 00  	bgeu	a3, a2, 0x10754c <_scanf_i+0x60>
  107542: 93 8a 37 ea  	addi	s5, a5, -349
  107546: 93 07 d0 15  	li	a5, 349
  10754a: 1c c4        	sw	a5, 8(s0)
  10754c: 1c 40        	lw	a5, 0(s0)
  10754e: 85 66        	lui	a3, 1
  107550: 93 86 06 d0  	addi	a3, a3, -768
  107554: 13 0a c4 01  	addi	s4, s0, 28
  107558: d5 8f        	or	a5, a5, a3
  10755a: 1c c0        	sw	a5, 0(s0)
  10755c: 13 0c 41 00  	addi	s8, sp, 4
  107560: 52 8b        	mv	s6, s4
  107562: 81 4b        	li	s7, 0
  107564: 93 0c 00 20  	li	s9, 512
  107568: 83 a7 0d 00  	lw	a5, 0(s11)
  10756c: 03 25 0c 00  	lw	a0, 0(s8)
  107570: 09 46        	li	a2, 2
  107572: 83 c5 07 00  	lbu	a1, 0(a5)
  107576: ef c0 4f c2  	jal	0x10399a <memchr>
  10757a: 25 c1        	beqz	a0, 0x1075da <_scanf_i+0xee>
  10757c: 85 47        	li	a5, 1
  10757e: 63 95 fb 0e  	bne	s7, a5, 0x107668 <_scanf_i+0x17c>
  107582: 5c 40        	lw	a5, 4(s0)
  107584: 99 e7        	bnez	a5, 0x107592 <_scanf_i+0xa6>
  107586: 1c 40        	lw	a5, 0(s0)
  107588: 21 47        	li	a4, 8
  10758a: 58 c0        	sw	a4, 4(s0)
  10758c: 93 e7 07 20  	ori	a5, a5, 512
  107590: 1c c0        	sw	a5, 0(s0)
  107592: 1c 40        	lw	a5, 0(s0)
  107594: 93 f7 f7 af  	andi	a5, a5, -1281
  107598: 1c c0        	sw	a5, 0(s0)
  10759a: 1c 44        	lw	a5, 8(s0)
  10759c: 13 86 f7 ff  	addi	a2, a5, -1
  1075a0: 10 c4        	sw	a2, 8(s0)
  1075a2: 85 cf        	beqz	a5, 0x1075da <_scanf_i+0xee>
  1075a4: 03 a6 0d 00  	lw	a2, 0(s11)
  1075a8: 13 0d 1b 00  	addi	s10, s6, 1
  1075ac: 93 07 16 00  	addi	a5, a2, 1
  1075b0: 23 a0 fd 00  	sw	a5, 0(s11)
  1075b4: 03 46 06 00  	lbu	a2, 0(a2)
  1075b8: 23 00 cb 00  	sb	a2, 0(s6)
  1075bc: 03 a6 4d 00  	lw	a2, 4(s11)
  1075c0: 6a 8b        	mv	s6, s10
  1075c2: 7d 16        	addi	a2, a2, -1
  1075c4: 23 a2 cd 00  	sw	a2, 4(s11)
  1075c8: 63 49 c0 00  	bgtz	a2, 0x1075da <_scanf_i+0xee>
  1075cc: 03 26 04 18  	lw	a2, 384(s0)
  1075d0: ee 85        	mv	a1, s11
  1075d2: 4e 85        	mv	a0, s3
  1075d4: 02 96        	jalr	a2
  1075d6: 63 1d 05 10  	bnez	a0, 0x1076f0 <_scanf_i+0x204>
  1075da: 85 0b        	addi	s7, s7, 1
  1075dc: 8d 47        	li	a5, 3
  1075de: 11 0c        	addi	s8, s8, 4
  1075e0: e3 94 fb f8  	bne	s7, a5, 0x107568 <_scanf_i+0x7c>
  1075e4: 5c 40        	lw	a5, 4(s0)
  1075e6: 99 e3        	bnez	a5, 0x1075ec <_scanf_i+0x100>
  1075e8: a9 47        	li	a5, 10
  1075ea: 5c c0        	sw	a5, 4(s0)
  1075ec: 4c 40        	lw	a1, 4(s0)
  1075ee: c1 47        	li	a5, 16
  1075f0: 48 48        	lw	a0, 20(s0)
  1075f2: 8d 8f        	sub	a5, a5, a1
  1075f4: 93 85 81 04  	addi	a1, gp, 72
  1075f8: be 95        	add	a1, a1, a5
  1075fa: fd 7b        	lui	s7, 1048575
  1075fc: 05 6c        	lui	s8, 1
  1075fe: 5a 8d        	mv	s10, s6
  107600: 5d 24        	jal	0x1078a6 <__sccl>
  107602: 01 4b        	li	s6, 0
  107604: 93 0c 00 03  	li	s9, 48
  107608: 93 8b fb 6f  	addi	s7, s7, 1791
  10760c: 13 0c 0c 80  	addi	s8, s8, -2048
  107610: 14 44        	lw	a3, 8(s0)
  107612: 10 40        	lw	a2, 0(s0)
  107614: d1 c6        	beqz	a3, 0x1076a0 <_scanf_i+0x1b4>
  107616: 03 a5 0d 00  	lw	a0, 0(s11)
  10761a: 4c 48        	lw	a1, 20(s0)
  10761c: 03 48 05 00  	lbu	a6, 0(a0)
  107620: c2 95        	add	a1, a1, a6
  107622: 83 c5 05 00  	lbu	a1, 0(a1)
  107626: ad cd        	beqz	a1, 0x1076a0 <_scanf_i+0x1b4>
  107628: 63 1d 98 05  	bne	a6, s9, 0x107682 <_scanf_i+0x196>
  10762c: b3 75 86 01  	and	a1, a2, s8
  107630: a9 c9        	beqz	a1, 0x107682 <_scanf_i+0x196>
  107632: 05 0b        	addi	s6, s6, 1
  107634: 63 85 0a 00  	beqz	s5, 0x10763e <_scanf_i+0x152>
  107638: 85 06        	addi	a3, a3, 1
  10763a: fd 1a        	addi	s5, s5, -1
  10763c: 14 c4        	sw	a3, 8(s0)
  10763e: 83 a6 4d 00  	lw	a3, 4(s11)
  107642: fd 16        	addi	a3, a3, -1
  107644: 23 a2 dd 00  	sw	a3, 4(s11)
  107648: 63 56 d0 04  	blez	a3, 0x107694 <_scanf_i+0x1a8>
  10764c: 83 a6 0d 00  	lw	a3, 0(s11)
  107650: 85 06        	addi	a3, a3, 1
  107652: 23 a0 dd 00  	sw	a3, 0(s11)
  107656: 14 44        	lw	a3, 8(s0)
  107658: fd 16        	addi	a3, a3, -1
  10765a: 14 c4        	sw	a3, 8(s0)
  10765c: 55 bf        	j	0x107610 <_scanf_i+0x124>
  10765e: 37 69 10 00  	lui	s2, 262
  107662: 13 09 69 71  	addi	s2, s2, 1814
  107666: f1 b5        	j	0x107532 <_scanf_i+0x46>
  107668: 89 47        	li	a5, 2
  10766a: e3 98 fb f2  	bne	s7, a5, 0x10759a <_scanf_i+0xae>
  10766e: 1c 40        	lw	a5, 0(s0)
  107670: 13 f6 07 60  	andi	a2, a5, 1536
  107674: e3 13 96 f7  	bne	a2, s9, 0x1075da <_scanf_i+0xee>
  107678: 41 47        	li	a4, 16
  10767a: 58 c0        	sw	a4, 4(s0)
  10767c: 93 e7 07 10  	ori	a5, a5, 256
  107680: 21 bf        	j	0x107598 <_scanf_i+0xac>
  107682: 33 76 76 01  	and	a2, a2, s7
  107686: 10 c0        	sw	a2, 0(s0)
  107688: 83 46 05 00  	lbu	a3, 0(a0)
  10768c: 05 0d        	addi	s10, s10, 1
  10768e: a3 0f dd fe  	sb	a3, -1(s10)
  107692: 75 b7        	j	0x10763e <_scanf_i+0x152>
  107694: 83 26 04 18  	lw	a3, 384(s0)
  107698: ee 85        	mv	a1, s11
  10769a: 4e 85        	mv	a0, s3
  10769c: 82 96        	jalr	a3
  10769e: 45 dd        	beqz	a0, 0x107656 <_scanf_i+0x16a>
  1076a0: 14 40        	lw	a3, 0(s0)
  1076a2: 93 f6 06 10  	andi	a3, a3, 256
  1076a6: 85 c2        	beqz	a3, 0x1076c6 <_scanf_i+0x1da>
  1076a8: 63 7c aa 01  	bgeu	s4, s10, 0x1076c0 <_scanf_i+0x1d4>
  1076ac: 83 45 fd ff  	lbu	a1, -1(s10)
  1076b0: 83 26 c4 17  	lw	a3, 380(s0)
  1076b4: 93 0a fd ff  	addi	s5, s10, -1
  1076b8: 6e 86        	mv	a2, s11
  1076ba: 4e 85        	mv	a0, s3
  1076bc: 82 96        	jalr	a3
  1076be: 56 8d        	mv	s10, s5
  1076c0: 05 45        	li	a0, 1
  1076c2: 63 0d 4d 05  	beq	s10, s4, 0x10771c <_scanf_i+0x230>
  1076c6: 18 40        	lw	a4, 0(s0)
  1076c8: 41 8b        	andi	a4, a4, 16
  1076ca: 29 e3        	bnez	a4, 0x10770c <_scanf_i+0x220>
  1076cc: 23 00 0d 00  	sb	zero, 0(s10)
  1076d0: 54 40        	lw	a3, 4(s0)
  1076d2: 01 46        	li	a2, 0
  1076d4: d2 85        	mv	a1, s4
  1076d6: 4e 85        	mv	a0, s3
  1076d8: 02 99        	jalr	s2
  1076da: 14 40        	lw	a3, 0(s0)
  1076dc: 98 40        	lw	a4, 0(s1)
  1076de: 13 f6 06 02  	andi	a2, a3, 32
  1076e2: 09 ca        	beqz	a2, 0x1076f4 <_scanf_i+0x208>
  1076e4: 93 06 47 00  	addi	a3, a4, 4
  1076e8: 94 c0        	sw	a3, 0(s1)
  1076ea: 18 43        	lw	a4, 0(a4)
  1076ec: 08 c3        	sw	a0, 0(a4)
  1076ee: 21 a8        	j	0x107706 <_scanf_i+0x21a>
  1076f0: 01 4b        	li	s6, 0
  1076f2: 7d b7        	j	0x1076a0 <_scanf_i+0x1b4>
  1076f4: 93 f5 16 00  	andi	a1, a3, 1
  1076f8: 13 06 47 00  	addi	a2, a4, 4
  1076fc: 9d cd        	beqz	a1, 0x10773a <_scanf_i+0x24e>
  1076fe: 90 c0        	sw	a2, 0(s1)
  107700: 18 43        	lw	a4, 0(a4)
  107702: 23 10 a7 00  	sh	a0, 0(a4)
  107706: 58 44        	lw	a4, 12(s0)
  107708: 05 07        	addi	a4, a4, 1
  10770a: 58 c4        	sw	a4, 12(s0)
  10770c: b3 07 4d 41  	sub	a5, s10, s4
  107710: 03 2a 04 01  	lw	s4, 16(s0)
  107714: da 97        	add	a5, a5, s6
  107716: 01 45        	li	a0, 0
  107718: d2 97        	add	a5, a5, s4
  10771a: 1c c8        	sw	a5, 16(s0)
  10771c: b6 40        	lw	ra, 76(sp)
  10771e: 26 44        	lw	s0, 72(sp)
  107720: 96 44        	lw	s1, 68(sp)
  107722: 06 49        	lw	s2, 64(sp)
  107724: f2 59        	lw	s3, 60(sp)
  107726: 62 5a        	lw	s4, 56(sp)
  107728: d2 5a        	lw	s5, 52(sp)
  10772a: 42 5b        	lw	s6, 48(sp)
  10772c: b2 5b        	lw	s7, 44(sp)
  10772e: 22 5c        	lw	s8, 40(sp)
  107730: 92 5c        	lw	s9, 36(sp)
  107732: 02 5d        	lw	s10, 32(sp)
  107734: f2 4d        	lw	s11, 28(sp)
  107736: 61 61        	addi	sp, sp, 80
  107738: 82 80        	ret
  10773a: 90 c0        	sw	a2, 0(s1)
  10773c: 7d b7        	j	0x1076ea <_scanf_i+0x1fe>

0010773e <__sflags>:
  10773e: 83 c7 05 00  	lbu	a5, 0(a1)
  107742: 13 07 20 07  	li	a4, 114
  107746: 63 83 e7 04  	beq	a5, a4, 0x10778c <__sflags+0x4e>
  10774a: 13 07 70 07  	li	a4, 119
  10774e: 63 8a e7 04  	beq	a5, a4, 0x1077a2 <__sflags+0x64>
  107752: 13 07 10 06  	li	a4, 97
  107756: 63 8b e7 04  	beq	a5, a4, 0x1077ac <__sflags+0x6e>
  10775a: d9 47        	li	a5, 22
  10775c: 1c c1        	sw	a5, 0(a0)
  10775e: 01 45        	li	a0, 0
  107760: 82 80        	ret
  107762: 63 8b 16 01  	beq	a3, a7, 0x107778 <__sflags+0x3a>
  107766: 63 80 66 02  	beq	a3, t1, 0x107786 <__sflags+0x48>
  10776a: 83 c6 15 00  	lbu	a3, 1(a1)
  10776e: 85 05        	addi	a1, a1, 1
  107770: ed fa        	bnez	a3, 0x107762 <__sflags+0x24>
  107772: d9 8f        	or	a5, a5, a4
  107774: 1c c2        	sw	a5, 0(a2)
  107776: 82 80        	ret
  107778: 0d 99        	andi	a0, a0, -29
  10777a: f1 9b        	andi	a5, a5, -4
  10777c: 13 65 05 01  	ori	a0, a0, 16
  107780: 93 e7 27 00  	ori	a5, a5, 2
  107784: dd b7        	j	0x10776a <__sflags+0x2c>
  107786: b3 e7 07 01  	or	a5, a5, a6
  10778a: c5 b7        	j	0x10776a <__sflags+0x2c>
  10778c: 01 47        	li	a4, 0
  10778e: 81 47        	li	a5, 0
  107790: 11 45        	li	a0, 4
  107792: 05 68        	lui	a6, 1
  107794: 93 08 b0 02  	li	a7, 43
  107798: 13 03 80 07  	li	t1, 120
  10779c: 13 08 08 80  	addi	a6, a6, -2048
  1077a0: e9 b7        	j	0x10776a <__sflags+0x2c>
  1077a2: 13 07 00 60  	li	a4, 1536
  1077a6: 85 47        	li	a5, 1
  1077a8: 21 45        	li	a0, 8
  1077aa: e5 b7        	j	0x107792 <__sflags+0x54>
  1077ac: 13 07 80 20  	li	a4, 520
  1077b0: 85 47        	li	a5, 1
  1077b2: 13 05 80 10  	li	a0, 264
  1077b6: f1 bf        	j	0x107792 <__sflags+0x54>

001077b8 <__swhatbuf_r>:
  1077b8: 59 71        	addi	sp, sp, -112
  1077ba: ca d0        	sw	s2, 96(sp)
  1077bc: 2e 89        	mv	s2, a1
  1077be: 83 95 e5 00  	lh	a1, 14(a1)
  1077c2: a2 d4        	sw	s0, 104(sp)
  1077c4: a6 d2        	sw	s1, 100(sp)
  1077c6: 86 d6        	sw	ra, 108(sp)
  1077c8: 32 84        	mv	s0, a2
  1077ca: b6 84        	mv	s1, a3
  1077cc: 63 dc 05 00  	bgez	a1, 0x1077e4 <__swhatbuf_r+0x2c>
  1077d0: 83 17 c9 00  	lh	a5, 12(s2)
  1077d4: 23 a0 04 00  	sw	zero, 0(s1)
  1077d8: 93 f7 07 08  	andi	a5, a5, 128
  1077dc: 8d e3        	bnez	a5, 0x1077fe <__swhatbuf_r+0x46>
  1077de: 93 07 00 40  	li	a5, 1024
  1077e2: 05 a0        	j	0x107802 <__swhatbuf_r+0x4a>
  1077e4: 30 00        	addi	a2, sp, 8
  1077e6: 49 2e        	jal	0x107b78 <_fstat_r>
  1077e8: e3 44 05 fe  	bltz	a0, 0x1077d0 <__swhatbuf_r+0x18>
  1077ec: 32 47        	lw	a4, 12(sp)
  1077ee: bd 67        	lui	a5, 15
  1077f0: f9 8f        	and	a5, a5, a4
  1077f2: 79 77        	lui	a4, 1048574
  1077f4: ba 97        	add	a5, a5, a4
  1077f6: 93 b7 17 00  	seqz	a5, a5
  1077fa: 9c c0        	sw	a5, 0(s1)
  1077fc: cd b7        	j	0x1077de <__swhatbuf_r+0x26>
  1077fe: 93 07 00 04  	li	a5, 64
  107802: b6 50        	lw	ra, 108(sp)
  107804: 1c c0        	sw	a5, 0(s0)
  107806: 26 54        	lw	s0, 104(sp)
  107808: 96 54        	lw	s1, 100(sp)
  10780a: 06 59        	lw	s2, 96(sp)
  10780c: 01 45        	li	a0, 0
  10780e: 65 61        	addi	sp, sp, 112
  107810: 82 80        	ret

00107812 <__smakebuf_r>:
  107812: 83 d7 c5 00  	lhu	a5, 12(a1)
  107816: 01 11        	addi	sp, sp, -32
  107818: 22 cc        	sw	s0, 24(sp)
  10781a: 06 ce        	sw	ra, 28(sp)
  10781c: 26 ca        	sw	s1, 20(sp)
  10781e: 4a c8        	sw	s2, 16(sp)
  107820: 89 8b        	andi	a5, a5, 2
  107822: 2e 84        	mv	s0, a1
  107824: 89 cf        	beqz	a5, 0x10783e <__smakebuf_r+0x2c>
  107826: 93 07 74 04  	addi	a5, s0, 71
  10782a: 1c c0        	sw	a5, 0(s0)
  10782c: 1c c8        	sw	a5, 16(s0)
  10782e: 85 47        	li	a5, 1
  107830: 5c c8        	sw	a5, 20(s0)
  107832: f2 40        	lw	ra, 28(sp)
  107834: 62 44        	lw	s0, 24(sp)
  107836: d2 44        	lw	s1, 20(sp)
  107838: 42 49        	lw	s2, 16(sp)
  10783a: 05 61        	addi	sp, sp, 32
  10783c: 82 80        	ret
  10783e: 74 00        	addi	a3, sp, 12
  107840: 30 00        	addi	a2, sp, 8
  107842: 2a 89        	mv	s2, a0
  107844: ef f0 5f f7  	jal	0x1077b8 <__swhatbuf_r>
  107848: a2 45        	lw	a1, 8(sp)
  10784a: aa 84        	mv	s1, a0
  10784c: 4a 85        	mv	a0, s2
  10784e: ef 90 8f e1  	jal	0x100e66 <_malloc_r>
  107852: 01 ed        	bnez	a0, 0x10786a <__smakebuf_r+0x58>
  107854: 83 17 c4 00  	lh	a5, 12(s0)
  107858: 13 f7 07 20  	andi	a4, a5, 512
  10785c: 79 fb        	bnez	a4, 0x107832 <__smakebuf_r+0x20>
  10785e: f1 9b        	andi	a5, a5, -4
  107860: 93 e7 27 00  	ori	a5, a5, 2
  107864: 23 16 f4 00  	sh	a5, 12(s0)
  107868: 7d bf        	j	0x107826 <__smakebuf_r+0x14>
  10786a: 83 57 c4 00  	lhu	a5, 12(s0)
  10786e: 08 c0        	sw	a0, 0(s0)
  107870: 08 c8        	sw	a0, 16(s0)
  107872: 93 e7 07 08  	ori	a5, a5, 128
  107876: 23 16 f4 00  	sh	a5, 12(s0)
  10787a: a2 47        	lw	a5, 8(sp)
  10787c: 5c c8        	sw	a5, 20(s0)
  10787e: b2 47        	lw	a5, 12(sp)
  107880: 89 cf        	beqz	a5, 0x10789a <__smakebuf_r+0x88>
  107882: 83 15 e4 00  	lh	a1, 14(s0)
  107886: 4a 85        	mv	a0, s2
  107888: 0d 26        	jal	0x107baa <_isatty_r>
  10788a: 01 c9        	beqz	a0, 0x10789a <__smakebuf_r+0x88>
  10788c: 83 57 c4 00  	lhu	a5, 12(s0)
  107890: f1 9b        	andi	a5, a5, -4
  107892: 93 e7 17 00  	ori	a5, a5, 1
  107896: 23 16 f4 00  	sh	a5, 12(s0)
  10789a: 03 55 c4 00  	lhu	a0, 12(s0)
  10789e: c9 8c        	or	s1, s1, a0
  1078a0: 23 16 94 00  	sh	s1, 12(s0)
  1078a4: 79 b7        	j	0x107832 <__smakebuf_r+0x20>

001078a6 <__sccl>:
  1078a6: 83 c7 05 00  	lbu	a5, 0(a1)
  1078aa: 13 07 e0 05  	li	a4, 94
  1078ae: 2a 88        	mv	a6, a0
  1078b0: 63 82 e7 02  	beq	a5, a4, 0x1078d4 <__sccl+0x2e>
  1078b4: 13 85 15 00  	addi	a0, a1, 1
  1078b8: 01 47        	li	a4, 0
  1078ba: 81 46        	li	a3, 0
  1078bc: 13 06 00 10  	li	a2, 256
  1078c0: b3 05 d8 00  	add	a1, a6, a3
  1078c4: 23 80 e5 00  	sb	a4, 0(a1)
  1078c8: 85 06        	addi	a3, a3, 1
  1078ca: e3 9b c6 fe  	bne	a3, a2, 0x1078c0 <__sccl+0x1a>
  1078ce: 89 eb        	bnez	a5, 0x1078e0 <__sccl+0x3a>
  1078d0: 7d 15        	addi	a0, a0, -1
  1078d2: 82 80        	ret
  1078d4: 83 c7 15 00  	lbu	a5, 1(a1)
  1078d8: 13 85 25 00  	addi	a0, a1, 2
  1078dc: 05 47        	li	a4, 1
  1078de: f1 bf        	j	0x1078ba <__sccl+0x14>
  1078e0: 13 46 17 00  	xori	a2, a4, 1
  1078e4: 13 03 d0 02  	li	t1, 45
  1078e8: 93 08 d0 05  	li	a7, 93
  1078ec: 33 07 f8 00  	add	a4, a6, a5
  1078f0: 23 00 c7 00  	sb	a2, 0(a4)
  1078f4: aa 86        	mv	a3, a0
  1078f6: 03 c7 06 00  	lbu	a4, 0(a3)
  1078fa: 13 85 16 00  	addi	a0, a3, 1
  1078fe: 63 0c 67 00  	beq	a4, t1, 0x107916 <__sccl+0x70>
  107902: 63 04 17 01  	beq	a4, a7, 0x10790a <__sccl+0x64>
  107906: 19 e3        	bnez	a4, 0x10790c <__sccl+0x66>
  107908: 36 85        	mv	a0, a3
  10790a: 82 80        	ret
  10790c: ba 87        	mv	a5, a4
  10790e: f9 bf        	j	0x1078ec <__sccl+0x46>
  107910: 93 07 d0 02  	li	a5, 45
  107914: e1 bf        	j	0x1078ec <__sccl+0x46>
  107916: 03 c7 16 00  	lbu	a4, 1(a3)
  10791a: e3 0b 17 ff  	beq	a4, a7, 0x107910 <__sccl+0x6a>
  10791e: e3 49 f7 fe  	blt	a4, a5, 0x107910 <__sccl+0x6a>
  107922: 89 06        	addi	a3, a3, 2
  107924: be 85        	mv	a1, a5
  107926: 85 05        	addi	a1, a1, 1
  107928: 33 05 b8 00  	add	a0, a6, a1
  10792c: 23 00 c5 00  	sb	a2, 0(a0)
  107930: e3 cb e5 fe  	blt	a1, a4, 0x107926 <__sccl+0x80>
  107934: 13 85 17 00  	addi	a0, a5, 1
  107938: 81 45        	li	a1, 0
  10793a: 63 d6 e7 00  	bge	a5, a4, 0x107946 <__sccl+0xa0>
  10793e: b3 07 f7 40  	sub	a5, a4, a5
  107942: 93 85 f7 ff  	addi	a1, a5, -1
  107946: b3 07 b5 00  	add	a5, a0, a1
  10794a: 75 b7        	j	0x1078f6 <__sccl+0x50>

0010794c <__submore>:
  10794c: 01 11        	addi	sp, sp, -32
  10794e: 22 cc        	sw	s0, 24(sp)
  107950: 2e 84        	mv	s0, a1
  107952: cc 59        	lw	a1, 52(a1)
  107954: 06 ce        	sw	ra, 28(sp)
  107956: 26 ca        	sw	s1, 20(sp)
  107958: 4a c8        	sw	s2, 16(sp)
  10795a: 4e c6        	sw	s3, 12(sp)
  10795c: 52 c4        	sw	s4, 8(sp)
  10795e: 93 07 44 04  	addi	a5, s0, 68
  107962: 63 95 f5 04  	bne	a1, a5, 0x1079ac <__submore+0x60>
  107966: 93 05 00 40  	li	a1, 1024
  10796a: ef 90 cf cf  	jal	0x100e66 <_malloc_r>
  10796e: 11 e9        	bnez	a0, 0x107982 <__submore+0x36>
  107970: 7d 55        	li	a0, -1
  107972: f2 40        	lw	ra, 28(sp)
  107974: 62 44        	lw	s0, 24(sp)
  107976: d2 44        	lw	s1, 20(sp)
  107978: 42 49        	lw	s2, 16(sp)
  10797a: b2 49        	lw	s3, 12(sp)
  10797c: 22 4a        	lw	s4, 8(sp)
  10797e: 05 61        	addi	sp, sp, 32
  107980: 82 80        	ret
  107982: 93 07 00 40  	li	a5, 1024
  107986: 1c dc        	sw	a5, 56(s0)
  107988: 83 47 64 04  	lbu	a5, 70(s0)
  10798c: 48 d8        	sw	a0, 52(s0)
  10798e: 13 05 d5 3f  	addi	a0, a0, 1021
  107992: 23 01 f5 00  	sb	a5, 2(a0)
  107996: 83 47 54 04  	lbu	a5, 69(s0)
  10799a: a3 00 f5 00  	sb	a5, 1(a0)
  10799e: 83 47 44 04  	lbu	a5, 68(s0)
  1079a2: 23 00 f5 00  	sb	a5, 0(a0)
  1079a6: 08 c0        	sw	a0, 0(s0)
  1079a8: 01 45        	li	a0, 0
  1079aa: e1 b7        	j	0x107972 <__submore+0x26>
  1079ac: 03 29 84 03  	lw	s2, 56(s0)
  1079b0: 93 19 19 00  	slli	s3, s2, 1
  1079b4: 4e 86        	mv	a2, s3
  1079b6: ef 90 8f dd  	jal	0x100f8e <_realloc_r>
  1079ba: aa 84        	mv	s1, a0
  1079bc: 55 d9        	beqz	a0, 0x107970 <__submore+0x24>
  1079be: 33 0a 25 01  	add	s4, a0, s2
  1079c2: aa 85        	mv	a1, a0
  1079c4: 4a 86        	mv	a2, s2
  1079c6: 52 85        	mv	a0, s4
  1079c8: ef c0 cf af  	jal	0x103cc4 <memcpy>
  1079cc: 23 20 44 01  	sw	s4, 0(s0)
  1079d0: 44 d8        	sw	s1, 52(s0)
  1079d2: 23 2c 34 03  	sw	s3, 56(s0)
  1079d6: c9 bf        	j	0x1079a8 <__submore+0x5c>

001079d8 <_ungetc_r>:
  1079d8: 01 11        	addi	sp, sp, -32
  1079da: 06 ce        	sw	ra, 28(sp)
  1079dc: 22 cc        	sw	s0, 24(sp)
  1079de: 26 ca        	sw	s1, 20(sp)
  1079e0: 4a c8        	sw	s2, 16(sp)
  1079e2: 4e c6        	sw	s3, 12(sp)
  1079e4: fd 57        	li	a5, -1
  1079e6: 63 9b f5 00  	bne	a1, a5, 0x1079fc <_ungetc_r+0x24>
  1079ea: fd 54        	li	s1, -1
  1079ec: f2 40        	lw	ra, 28(sp)
  1079ee: 62 44        	lw	s0, 24(sp)
  1079f0: 42 49        	lw	s2, 16(sp)
  1079f2: b2 49        	lw	s3, 12(sp)
  1079f4: 26 85        	mv	a0, s1
  1079f6: d2 44        	lw	s1, 20(sp)
  1079f8: 05 61        	addi	sp, sp, 32
  1079fa: 82 80        	ret
  1079fc: 2a 89        	mv	s2, a0
  1079fe: ae 84        	mv	s1, a1
  107a00: 32 84        	mv	s0, a2
  107a02: 09 c5        	beqz	a0, 0x107a0c <_ungetc_r+0x34>
  107a04: 1c 55        	lw	a5, 40(a0)
  107a06: 99 e3        	bnez	a5, 0x107a0c <_ungetc_r+0x34>
  107a08: ef a0 9f b6  	jal	0x102570 <__sinit>
  107a0c: 93 87 41 b3  	addi	a5, gp, -1228
  107a10: 63 1c f4 06  	bne	s0, a5, 0x107a88 <_ungetc_r+0xb0>
  107a14: 03 24 49 00  	lw	s0, 4(s2)
  107a18: 83 17 c4 00  	lh	a5, 12(s0)
  107a1c: 93 f7 f7 fd  	andi	a5, a5, -33
  107a20: 13 97 07 01  	slli	a4, a5, 16
  107a24: 23 16 f4 00  	sh	a5, 12(s0)
  107a28: 91 8b        	andi	a5, a5, 4
  107a2a: 41 83        	srli	a4, a4, 16
  107a2c: 95 eb        	bnez	a5, 0x107a60 <_ungetc_r+0x88>
  107a2e: 93 77 07 01  	andi	a5, a4, 16
  107a32: c5 df        	beqz	a5, 0x1079ea <_ungetc_r+0x12>
  107a34: 21 8b        	andi	a4, a4, 8
  107a36: 19 cf        	beqz	a4, 0x107a54 <_ungetc_r+0x7c>
  107a38: a2 85        	mv	a1, s0
  107a3a: 4a 85        	mv	a0, s2
  107a3c: ef a0 7f 8f  	jal	0x102332 <_fflush_r>
  107a40: 4d f5        	bnez	a0, 0x1079ea <_ungetc_r+0x12>
  107a42: 83 57 c4 00  	lhu	a5, 12(s0)
  107a46: 23 24 04 00  	sw	zero, 8(s0)
  107a4a: 23 2c 04 00  	sw	zero, 24(s0)
  107a4e: dd 9b        	andi	a5, a5, -9
  107a50: 23 16 f4 00  	sh	a5, 12(s0)
  107a54: 83 57 c4 00  	lhu	a5, 12(s0)
  107a58: 93 e7 47 00  	ori	a5, a5, 4
  107a5c: 23 16 f4 00  	sh	a5, 12(s0)
  107a60: 5c 58        	lw	a5, 52(s0)
  107a62: 93 f9 f4 0f  	andi	s3, s1, 255
  107a66: 58 40        	lw	a4, 4(s0)
  107a68: 93 f4 f4 0f  	andi	s1, s1, 255
  107a6c: b1 c3        	beqz	a5, 0x107ab0 <_ungetc_r+0xd8>
  107a6e: 1c 5c        	lw	a5, 56(s0)
  107a70: 63 5a f7 02  	bge	a4, a5, 0x107aa4 <_ungetc_r+0xcc>
  107a74: 1c 40        	lw	a5, 0(s0)
  107a76: 13 87 f7 ff  	addi	a4, a5, -1
  107a7a: 18 c0        	sw	a4, 0(s0)
  107a7c: a3 8f 37 ff  	sb	s3, -1(a5)
  107a80: 5c 40        	lw	a5, 4(s0)
  107a82: 85 07        	addi	a5, a5, 1
  107a84: 5c c0        	sw	a5, 4(s0)
  107a86: 9d b7        	j	0x1079ec <_ungetc_r+0x14>
  107a88: 93 87 41 b5  	addi	a5, gp, -1196
  107a8c: 63 15 f4 00  	bne	s0, a5, 0x107a96 <_ungetc_r+0xbe>
  107a90: 03 24 89 00  	lw	s0, 8(s2)
  107a94: 51 b7        	j	0x107a18 <_ungetc_r+0x40>
  107a96: 93 87 41 b1  	addi	a5, gp, -1260
  107a9a: e3 1f f4 f6  	bne	s0, a5, 0x107a18 <_ungetc_r+0x40>
  107a9e: 03 24 c9 00  	lw	s0, 12(s2)
  107aa2: 9d bf        	j	0x107a18 <_ungetc_r+0x40>
  107aa4: a2 85        	mv	a1, s0
  107aa6: 4a 85        	mv	a0, s2
  107aa8: ef f0 5f ea  	jal	0x10794c <__submore>
  107aac: 61 d5        	beqz	a0, 0x107a74 <_ungetc_r+0x9c>
  107aae: 35 bf        	j	0x1079ea <_ungetc_r+0x12>
  107ab0: 14 48        	lw	a3, 16(s0)
  107ab2: 1c 40        	lw	a5, 0(s0)
  107ab4: 81 ce        	beqz	a3, 0x107acc <_ungetc_r+0xf4>
  107ab6: 63 fb f6 00  	bgeu	a3, a5, 0x107acc <_ungetc_r+0xf4>
  107aba: 83 c6 f7 ff  	lbu	a3, -1(a5)
  107abe: 63 97 96 00  	bne	a3, s1, 0x107acc <_ungetc_r+0xf4>
  107ac2: fd 17        	addi	a5, a5, -1
  107ac4: 05 07        	addi	a4, a4, 1
  107ac6: 1c c0        	sw	a5, 0(s0)
  107ac8: 58 c0        	sw	a4, 4(s0)
  107aca: 0d b7        	j	0x1079ec <_ungetc_r+0x14>
  107acc: 5c dc        	sw	a5, 60(s0)
  107ace: 93 07 44 04  	addi	a5, s0, 68
  107ad2: 5c d8        	sw	a5, 52(s0)
  107ad4: 8d 47        	li	a5, 3
  107ad6: 1c dc        	sw	a5, 56(s0)
  107ad8: 93 07 64 04  	addi	a5, s0, 70
  107adc: 1c c0        	sw	a5, 0(s0)
  107ade: 38 c0        	sw	a4, 64(s0)
  107ae0: 23 03 34 05  	sb	s3, 70(s0)
  107ae4: 85 47        	li	a5, 1
  107ae6: 79 bf        	j	0x107a84 <_ungetc_r+0xac>

00107ae8 <ungetc>:
  107ae8: 2e 86        	mv	a2, a1
  107aea: aa 85        	mv	a1, a0
  107aec: 03 a5 41 8a  	lw	a0, -1884(gp)
  107af0: 6f f0 9f ee  	j	0x1079d8 <_ungetc_r>

00107af4 <strncmp>:
  107af4: 0d c6        	beqz	a2, 0x107b1e <strncmp+0x2a>
  107af6: 7d 16        	addi	a2, a2, -1
  107af8: 01 47        	li	a4, 0
  107afa: b3 07 e5 00  	add	a5, a0, a4
  107afe: b3 86 e5 00  	add	a3, a1, a4
  107b02: 83 c7 07 00  	lbu	a5, 0(a5)
  107b06: 83 c6 06 00  	lbu	a3, 0(a3)
  107b0a: 63 94 d7 00  	bne	a5, a3, 0x107b12 <strncmp+0x1e>
  107b0e: 63 15 c7 00  	bne	a4, a2, 0x107b18 <strncmp+0x24>
  107b12: 33 85 d7 40  	sub	a0, a5, a3
  107b16: 82 80        	ret
  107b18: 05 07        	addi	a4, a4, 1
  107b1a: e5 f3        	bnez	a5, 0x107afa <strncmp+0x6>
  107b1c: dd bf        	j	0x107b12 <strncmp+0x1e>
  107b1e: 01 45        	li	a0, 0
  107b20: 82 80        	ret

00107b22 <_setlocale_r>:
  107b22: 41 11        	addi	sp, sp, -16
  107b24: 26 c2        	sw	s1, 4(sp)
  107b26: 06 c6        	sw	ra, 12(sp)
  107b28: 22 c4        	sw	s0, 8(sp)
  107b2a: 01 ea        	bnez	a2, 0x107b3a <_setlocale_r+0x18>
  107b2c: 13 85 c1 05  	addi	a0, gp, 92
  107b30: b2 40        	lw	ra, 12(sp)
  107b32: 22 44        	lw	s0, 8(sp)
  107b34: 92 44        	lw	s1, 4(sp)
  107b36: 41 01        	addi	sp, sp, 16
  107b38: 82 80        	ret
  107b3a: 93 85 01 06  	addi	a1, gp, 96
  107b3e: 32 85        	mv	a0, a2
  107b40: 32 84        	mv	s0, a2
  107b42: ef c0 af 9a  	jal	0x103cec <strcmp>
  107b46: 7d d1        	beqz	a0, 0x107b2c <_setlocale_r+0xa>
  107b48: 93 85 c1 05  	addi	a1, gp, 92
  107b4c: 22 85        	mv	a0, s0
  107b4e: ef c0 ef 99  	jal	0x103cec <strcmp>
  107b52: 69 dd        	beqz	a0, 0x107b2c <_setlocale_r+0xa>
  107b54: 93 85 41 07  	addi	a1, gp, 116
  107b58: 22 85        	mv	a0, s0
  107b5a: ef c0 2f 99  	jal	0x103cec <strcmp>
  107b5e: 79 d5        	beqz	a0, 0x107b2c <_setlocale_r+0xa>
  107b60: 01 45        	li	a0, 0
  107b62: f9 b7        	j	0x107b30 <_setlocale_r+0xe>

00107b64 <__locale_mb_cur_max>:
  107b64: c1 67        	lui	a5, 16
  107b66: 03 c5 87 18  	lbu	a0, 392(a5)
  107b6a: 82 80        	ret

00107b6c <setlocale>:
  107b6c: 2e 86        	mv	a2, a1
  107b6e: aa 85        	mv	a1, a0
  107b70: 03 a5 41 8a  	lw	a0, -1884(gp)
  107b74: 6f f0 ff fa  	j	0x107b22 <_setlocale_r>

00107b78 <_fstat_r>:
  107b78: 41 11        	addi	sp, sp, -16
  107b7a: 22 c4        	sw	s0, 8(sp)
  107b7c: 26 c2        	sw	s1, 4(sp)
  107b7e: 2a 84        	mv	s0, a0
  107b80: b7 c4 10 00  	lui	s1, 268
  107b84: 2e 85        	mv	a0, a1
  107b86: b2 85        	mv	a1, a2
  107b88: 06 c6        	sw	ra, 12(sp)
  107b8a: 23 a6 04 88  	sw	zero, -1908(s1)
  107b8e: ef 00 30 4a  	jal	0x108830 <_fstat>
  107b92: fd 57        	li	a5, -1
  107b94: 63 16 f5 00  	bne	a0, a5, 0x107ba0 <_fstat_r+0x28>
  107b98: 83 a7 c4 88  	lw	a5, -1908(s1)
  107b9c: 91 c3        	beqz	a5, 0x107ba0 <_fstat_r+0x28>
  107b9e: 1c c0        	sw	a5, 0(s0)
  107ba0: b2 40        	lw	ra, 12(sp)
  107ba2: 22 44        	lw	s0, 8(sp)
  107ba4: 92 44        	lw	s1, 4(sp)
  107ba6: 41 01        	addi	sp, sp, 16
  107ba8: 82 80        	ret

00107baa <_isatty_r>:
  107baa: 41 11        	addi	sp, sp, -16
  107bac: 22 c4        	sw	s0, 8(sp)
  107bae: 26 c2        	sw	s1, 4(sp)
  107bb0: 2a 84        	mv	s0, a0
  107bb2: b7 c4 10 00  	lui	s1, 268
  107bb6: 2e 85        	mv	a0, a1
  107bb8: 06 c6        	sw	ra, 12(sp)
  107bba: 23 a6 04 88  	sw	zero, -1908(s1)
  107bbe: ef 00 30 4a  	jal	0x108860 <_isatty>
  107bc2: fd 57        	li	a5, -1
  107bc4: 63 16 f5 00  	bne	a0, a5, 0x107bd0 <_isatty_r+0x26>
  107bc8: 83 a7 c4 88  	lw	a5, -1908(s1)
  107bcc: 91 c3        	beqz	a5, 0x107bd0 <_isatty_r+0x26>
  107bce: 1c c0        	sw	a5, 0(s0)
  107bd0: b2 40        	lw	ra, 12(sp)
  107bd2: 22 44        	lw	s0, 8(sp)
  107bd4: 92 44        	lw	s1, 4(sp)
  107bd6: 41 01        	addi	sp, sp, 16
  107bd8: 82 80        	ret

00107bda <__errno>:
  107bda: 03 a5 41 8a  	lw	a0, -1884(gp)
  107bde: 82 80        	ret

00107be0 <nan>:
  107be0: 03 a5 01 88  	lw	a0, -1920(gp)
  107be4: 83 a5 41 88  	lw	a1, -1916(gp)
  107be8: 82 80        	ret

00107bea <__assert_func>:
  107bea: 83 a7 41 8a  	lw	a5, -1884(gp)
  107bee: 41 11        	addi	sp, sp, -16
  107bf0: 32 88        	mv	a6, a2
  107bf2: 06 c6        	sw	ra, 12(sp)
  107bf4: aa 88        	mv	a7, a0
  107bf6: 2e 87        	mv	a4, a1
  107bf8: c8 47        	lw	a0, 12(a5)
  107bfa: 36 86        	mv	a2, a3
  107bfc: 63 0b 08 00  	beqz	a6, 0x107c12 <__assert_func+0x28>
  107c00: 93 87 81 06  	addi	a5, gp, 104
  107c04: c6 86        	mv	a3, a7
  107c06: 93 85 81 07  	addi	a1, gp, 120
  107c0a: ef a0 7f b5  	jal	0x102760 <fprintf>
  107c0e: ef 00 b0 10  	jal	0x108518 <abort>
  107c12: 93 87 41 07  	addi	a5, gp, 116
  107c16: 13 88 41 07  	addi	a6, gp, 116
  107c1a: ed b7        	j	0x107c04 <__assert_func+0x1a>

00107c1c <__assert>:
  107c1c: 41 11        	addi	sp, sp, -16
  107c1e: b2 86        	mv	a3, a2
  107c20: 01 46        	li	a2, 0
  107c22: 06 c6        	sw	ra, 12(sp)
  107c24: ef f0 7f fc  	jal	0x107bea <__assert_func>

00107c28 <rshift>:
  107c28: 03 28 05 01  	lw	a6, 16(a0)
  107c2c: 93 06 45 01  	addi	a3, a0, 20
  107c30: 93 de 55 40  	srai	t4, a1, 5
  107c34: b6 87        	mv	a5, a3
  107c36: 63 d1 0e 05  	bge	t4, a6, 0x107c78 <rshift+0x50>
  107c3a: 93 18 28 00  	slli	a7, a6, 2
  107c3e: 13 97 2e 00  	slli	a4, t4, 2
  107c42: fd 89        	andi	a1, a1, 31
  107c44: b6 98        	add	a7, a7, a3
  107c46: 36 97        	add	a4, a4, a3
  107c48: b5 cd        	beqz	a1, 0x107cc4 <rshift+0x9c>
  107c4a: 10 43        	lw	a2, 0(a4)
  107c4c: 13 0f 00 02  	li	t5, 32
  107c50: 33 0f bf 40  	sub	t5, t5, a1
  107c54: 13 03 47 00  	addi	t1, a4, 4
  107c58: 33 56 b6 00  	srl	a2, a2, a1
  107c5c: 63 67 13 03  	bltu	t1, a7, 0x107c8a <rshift+0x62>
  107c60: 05 07        	addi	a4, a4, 1
  107c62: 81 47        	li	a5, 0
  107c64: 63 e6 e8 00  	bltu	a7, a4, 0x107c70 <rshift+0x48>
  107c68: b3 07 d8 41  	sub	a5, a6, t4
  107c6c: 8a 07        	slli	a5, a5, 2
  107c6e: f1 17        	addi	a5, a5, -4
  107c70: b6 97        	add	a5, a5, a3
  107c72: 90 c3        	sw	a2, 0(a5)
  107c74: 11 c2        	beqz	a2, 0x107c78 <rshift+0x50>
  107c76: 91 07        	addi	a5, a5, 4
  107c78: 33 87 d7 40  	sub	a4, a5, a3
  107c7c: 09 87        	srai	a4, a4, 2
  107c7e: 18 c9        	sw	a4, 16(a0)
  107c80: 63 94 d7 00  	bne	a5, a3, 0x107c88 <rshift+0x60>
  107c84: 23 2a 05 00  	sw	zero, 20(a0)
  107c88: 82 80        	ret
  107c8a: 03 2e 03 00  	lw	t3, 0(t1)
  107c8e: 91 07        	addi	a5, a5, 4
  107c90: 11 03        	addi	t1, t1, 4
  107c92: 33 1e ee 01  	sll	t3, t3, t5
  107c96: 33 66 ce 00  	or	a2, t3, a2
  107c9a: 23 ae c7 fe  	sw	a2, -4(a5)
  107c9e: 03 26 c3 ff  	lw	a2, -4(t1)
  107ca2: 5d bf        	j	0x107c58 <rshift+0x30>
  107ca4: 8c 43        	lw	a1, 0(a5)
  107ca6: 91 07        	addi	a5, a5, 4
  107ca8: 11 06        	addi	a2, a2, 4
  107caa: 23 2e b6 fe  	sw	a1, -4(a2)
  107cae: e3 eb 17 ff  	bltu	a5, a7, 0x107ca4 <rshift+0x7c>
  107cb2: 75 17        	addi	a4, a4, -3
  107cb4: 81 47        	li	a5, 0
  107cb6: 63 e5 e8 00  	bltu	a7, a4, 0x107cc0 <rshift+0x98>
  107cba: b3 07 d8 41  	sub	a5, a6, t4
  107cbe: 8a 07        	slli	a5, a5, 2
  107cc0: b6 97        	add	a5, a5, a3
  107cc2: 5d bf        	j	0x107c78 <rshift+0x50>
  107cc4: 36 86        	mv	a2, a3
  107cc6: ba 87        	mv	a5, a4
  107cc8: dd b7        	j	0x107cae <rshift+0x86>

00107cca <__hexdig_fun>:
  107cca: 13 07 05 fd  	addi	a4, a0, -48
  107cce: 13 77 f7 0f  	andi	a4, a4, 255
  107cd2: a5 46        	li	a3, 9
  107cd4: aa 87        	mv	a5, a0
  107cd6: 63 e7 e6 00  	bltu	a3, a4, 0x107ce4 <__hexdig_fun+0x1a>
  107cda: 93 07 05 fe  	addi	a5, a0, -32
  107cde: 13 f5 f7 0f  	andi	a0, a5, 255
  107ce2: 82 80        	ret
  107ce4: 13 07 f5 f9  	addi	a4, a0, -97
  107ce8: 13 77 f7 0f  	andi	a4, a4, 255
  107cec: 95 46        	li	a3, 5
  107cee: 63 e5 e6 00  	bltu	a3, a4, 0x107cf8 <__hexdig_fun+0x2e>
  107cf2: 93 07 95 fb  	addi	a5, a0, -71
  107cf6: e5 b7        	j	0x107cde <__hexdig_fun+0x14>
  107cf8: 13 07 f5 fb  	addi	a4, a0, -65
  107cfc: 13 77 f7 0f  	andi	a4, a4, 255
  107d00: 01 45        	li	a0, 0
  107d02: e3 e0 e6 fe  	bltu	a3, a4, 0x107ce2 <__hexdig_fun+0x18>
  107d06: 93 87 97 fd  	addi	a5, a5, -39
  107d0a: d1 bf        	j	0x107cde <__hexdig_fun+0x14>

00107d0c <__gethex>:
  107d0c: 5d 71        	addi	sp, sp, -80
  107d0e: 5e d6        	sw	s7, 44(sp)
  107d10: ba 8b        	mv	s7, a4
  107d12: 98 41        	lw	a4, 0(a1)
  107d14: 56 da        	sw	s5, 52(sp)
  107d16: be 8a        	mv	s5, a5
  107d18: f9 57        	li	a5, -2
  107d1a: a2 c4        	sw	s0, 72(sp)
  107d1c: ca c0        	sw	s2, 64(sp)
  107d1e: 52 dc        	sw	s4, 56(sp)
  107d20: 66 d2        	sw	s9, 36(sp)
  107d22: 13 04 27 00  	addi	s0, a4, 2
  107d26: 99 8f        	sub	a5, a5, a4
  107d28: 86 c6        	sw	ra, 76(sp)
  107d2a: a6 c2        	sw	s1, 68(sp)
  107d2c: 4e de        	sw	s3, 60(sp)
  107d2e: 5a d8        	sw	s6, 48(sp)
  107d30: 62 d4        	sw	s8, 40(sp)
  107d32: 6a d0        	sw	s10, 32(sp)
  107d34: 6e ce        	sw	s11, 28(sp)
  107d36: 2a 8a        	mv	s4, a0
  107d38: ae 8c        	mv	s9, a1
  107d3a: 32 89        	mv	s2, a2
  107d3c: 36 c6        	sw	a3, 12(sp)
  107d3e: 13 07 00 03  	li	a4, 48
  107d42: b3 86 87 00  	add	a3, a5, s0
  107d46: a2 89        	mv	s3, s0
  107d48: 03 45 04 00  	lbu	a0, 0(s0)
  107d4c: 36 c4        	sw	a3, 8(sp)
  107d4e: 05 04        	addi	s0, s0, 1
  107d50: e3 09 e5 fe  	beq	a0, a4, 0x107d42 <__gethex+0x36>
  107d54: ef f0 7f f7  	jal	0x107cca <__hexdig_fun>
  107d58: 3d e9        	bnez	a0, 0x107dce <__gethex+0xc2>
  107d5a: 05 46        	li	a2, 1
  107d5c: 93 85 41 db  	addi	a1, gp, -588
  107d60: 4e 85        	mv	a0, s3
  107d62: ef f0 3f d9  	jal	0x107af4 <strncmp>
  107d66: aa 84        	mv	s1, a0
  107d68: 5d ed        	bnez	a0, 0x107e26 <__gethex+0x11a>
  107d6a: 03 c5 19 00  	lbu	a0, 1(s3)
  107d6e: 22 8c        	mv	s8, s0
  107d70: 05 4b        	li	s6, 1
  107d72: ef f0 9f f5  	jal	0x107cca <__hexdig_fun>
  107d76: 3d c1        	beqz	a0, 0x107ddc <__gethex+0xd0>
  107d78: a2 89        	mv	s3, s0
  107d7a: 93 07 00 03  	li	a5, 48
  107d7e: 03 c5 09 00  	lbu	a0, 0(s3)
  107d82: 63 0a f5 00  	beq	a0, a5, 0x107d96 <__gethex+0x8a>
  107d86: ef f0 5f f4  	jal	0x107cca <__hexdig_fun>
  107d8a: 85 47        	li	a5, 1
  107d8c: 13 3b 15 00  	seqz	s6, a0
  107d90: 3e c4        	sw	a5, 8(sp)
  107d92: 4e 8c        	mv	s8, s3
  107d94: 21 a0        	j	0x107d9c <__gethex+0x90>
  107d96: 85 09        	addi	s3, s3, 1
  107d98: dd b7        	j	0x107d7e <__gethex+0x72>
  107d9a: 05 0c        	addi	s8, s8, 1
  107d9c: 03 45 0c 00  	lbu	a0, 0(s8)
  107da0: ef f0 bf f2  	jal	0x107cca <__hexdig_fun>
  107da4: 7d f9        	bnez	a0, 0x107d9a <__gethex+0x8e>
  107da6: 05 46        	li	a2, 1
  107da8: 93 85 41 db  	addi	a1, gp, -588
  107dac: 62 85        	mv	a0, s8
  107dae: ef f0 7f d4  	jal	0x107af4 <strncmp>
  107db2: 1d e1        	bnez	a0, 0x107dd8 <__gethex+0xcc>
  107db4: 01 e8        	bnez	s0, 0x107dc4 <__gethex+0xb8>
  107db6: 05 0c        	addi	s8, s8, 1
  107db8: 62 84        	mv	s0, s8
  107dba: 03 45 0c 00  	lbu	a0, 0(s8)
  107dbe: ef f0 df f0  	jal	0x107cca <__hexdig_fun>
  107dc2: 09 e9        	bnez	a0, 0x107dd4 <__gethex+0xc8>
  107dc4: 33 04 84 41  	sub	s0, s0, s8
  107dc8: 93 14 24 00  	slli	s1, s0, 2
  107dcc: 01 a8        	j	0x107ddc <__gethex+0xd0>
  107dce: 01 4b        	li	s6, 0
  107dd0: 01 44        	li	s0, 0
  107dd2: c1 b7        	j	0x107d92 <__gethex+0x86>
  107dd4: 05 0c        	addi	s8, s8, 1
  107dd6: d5 b7        	j	0x107dba <__gethex+0xae>
  107dd8: 81 44        	li	s1, 0
  107dda: 6d f4        	bnez	s0, 0x107dc4 <__gethex+0xb8>
  107ddc: 83 47 0c 00  	lbu	a5, 0(s8)
  107de0: 93 06 00 05  	li	a3, 80
  107de4: e2 8d        	mv	s11, s8
  107de6: 93 f7 f7 0d  	andi	a5, a5, 223
  107dea: 63 9e d7 06  	bne	a5, a3, 0x107e66 <__gethex+0x15a>
  107dee: 83 47 1c 00  	lbu	a5, 1(s8)
  107df2: 93 06 b0 02  	li	a3, 43
  107df6: 63 8c d7 02  	beq	a5, a3, 0x107e2e <__gethex+0x122>
  107dfa: 93 06 d0 02  	li	a3, 45
  107dfe: 63 8c d7 02  	beq	a5, a3, 0x107e36 <__gethex+0x12a>
  107e02: 93 0d 1c 00  	addi	s11, s8, 1
  107e06: 01 4d        	li	s10, 0
  107e08: 03 c5 0d 00  	lbu	a0, 0(s11)
  107e0c: ef f0 ff eb  	jal	0x107cca <__hexdig_fun>
  107e10: 93 06 f5 ff  	addi	a3, a0, -1
  107e14: 93 f6 f6 0f  	andi	a3, a3, 255
  107e18: 61 46        	li	a2, 24
  107e1a: 13 04 05 ff  	addi	s0, a0, -16
  107e1e: 63 72 d6 02  	bgeu	a2, a3, 0x107e42 <__gethex+0x136>
  107e22: e2 8d        	mv	s11, s8
  107e24: 89 a0        	j	0x107e66 <__gethex+0x15a>
  107e26: 4e 8c        	mv	s8, s3
  107e28: 81 44        	li	s1, 0
  107e2a: 05 4b        	li	s6, 1
  107e2c: 45 bf        	j	0x107ddc <__gethex+0xd0>
  107e2e: 01 4d        	li	s10, 0
  107e30: 93 0d 2c 00  	addi	s11, s8, 2
  107e34: d1 bf        	j	0x107e08 <__gethex+0xfc>
  107e36: 05 4d        	li	s10, 1
  107e38: e5 bf        	j	0x107e30 <__gethex+0x124>
  107e3a: 33 04 b4 02  	mul	s0, s0, a1
  107e3e: 2a 94        	add	s0, s0, a0
  107e40: 41 14        	addi	s0, s0, -16
  107e42: 03 c5 1d 00  	lbu	a0, 1(s11)
  107e46: 85 0d        	addi	s11, s11, 1
  107e48: ef f0 3f e8  	jal	0x107cca <__hexdig_fun>
  107e4c: 93 06 f5 ff  	addi	a3, a0, -1
  107e50: 93 f6 f6 0f  	andi	a3, a3, 255
  107e54: 61 46        	li	a2, 24
  107e56: a9 45        	li	a1, 10
  107e58: e3 71 d6 fe  	bgeu	a2, a3, 0x107e3a <__gethex+0x12e>
  107e5c: 63 04 0d 00  	beqz	s10, 0x107e64 <__gethex+0x158>
  107e60: 33 04 80 40  	neg	s0, s0
  107e64: a2 94        	add	s1, s1, s0
  107e66: 23 a0 bc 01  	sw	s11, 0(s9)
  107e6a: 63 06 0b 02  	beqz	s6, 0x107e96 <__gethex+0x18a>
  107e6e: a2 47        	lw	a5, 8(sp)
  107e70: 81 49        	li	s3, 0
  107e72: 91 e3        	bnez	a5, 0x107e76 <__gethex+0x16a>
  107e74: 99 49        	li	s3, 6
  107e76: b6 40        	lw	ra, 76(sp)
  107e78: 26 44        	lw	s0, 72(sp)
  107e7a: 96 44        	lw	s1, 68(sp)
  107e7c: 06 49        	lw	s2, 64(sp)
  107e7e: 62 5a        	lw	s4, 56(sp)
  107e80: d2 5a        	lw	s5, 52(sp)
  107e82: 42 5b        	lw	s6, 48(sp)
  107e84: b2 5b        	lw	s7, 44(sp)
  107e86: 22 5c        	lw	s8, 40(sp)
  107e88: 92 5c        	lw	s9, 36(sp)
  107e8a: 02 5d        	lw	s10, 32(sp)
  107e8c: f2 4d        	lw	s11, 28(sp)
  107e8e: 4e 85        	mv	a0, s3
  107e90: f2 59        	lw	s3, 60(sp)
  107e92: 61 61        	addi	sp, sp, 80
  107e94: 82 80        	ret
  107e96: b3 07 3c 41  	sub	a5, s8, s3
  107e9a: fd 17        	addi	a5, a5, -1
  107e9c: 81 45        	li	a1, 0
  107e9e: 9d 46        	li	a3, 7
  107ea0: 63 c0 f6 02  	blt	a3, a5, 0x107ec0 <__gethex+0x1b4>
  107ea4: 52 85        	mv	a0, s4
  107ea6: ef c0 3f d5  	jal	0x104bf8 <_Balloc>
  107eaa: 2a 84        	mv	s0, a0
  107eac: 09 ed        	bnez	a0, 0x107ec6 <__gethex+0x1ba>
  107eae: 93 86 c1 c0  	addi	a3, gp, -1012
  107eb2: 01 46        	li	a2, 0
  107eb4: 93 05 40 0e  	li	a1, 228
  107eb8: 13 85 81 0a  	addi	a0, gp, 168
  107ebc: ef f0 ff d2  	jal	0x107bea <__assert_func>
  107ec0: 85 05        	addi	a1, a1, 1
  107ec2: 85 87        	srai	a5, a5, 1
  107ec4: f1 bf        	j	0x107ea0 <__gethex+0x194>
  107ec6: 13 0b 45 01  	addi	s6, a0, 20
  107eca: 5a 8d        	mv	s10, s6
  107ecc: 81 4d        	li	s11, 0
  107ece: 81 4c        	li	s9, 0
  107ed0: 63 e7 89 09  	bltu	s3, s8, 0x107f5e <__gethex+0x252>
  107ed4: 93 09 4d 00  	addi	s3, s10, 4
  107ed8: b3 89 69 41  	sub	s3, s3, s6
  107edc: 23 20 9d 01  	sw	s9, 0(s10)
  107ee0: 93 d9 29 40  	srai	s3, s3, 2
  107ee4: 23 28 34 01  	sw	s3, 16(s0)
  107ee8: 66 85        	mv	a0, s9
  107eea: ef c0 1f f8  	jal	0x104e6a <__hi0bits>
  107eee: 83 2c 09 00  	lw	s9, 0(s2)
  107ef2: 96 09        	slli	s3, s3, 5
  107ef4: b3 89 a9 40  	sub	s3, s3, a0
  107ef8: 63 d8 3c 0b  	bge	s9, s3, 0x107fa8 <__gethex+0x29c>
  107efc: b3 89 99 41  	sub	s3, s3, s9
  107f00: ce 85        	mv	a1, s3
  107f02: 22 85        	mv	a0, s0
  107f04: ef d0 9f 80  	jal	0x10570c <__any_on>
  107f08: 2a 8d        	mv	s10, a0
  107f0a: 05 c9        	beqz	a0, 0x107f3a <__gethex+0x22e>
  107f0c: 93 86 f9 ff  	addi	a3, s3, -1
  107f10: 13 d7 56 40  	srai	a4, a3, 5
  107f14: 0a 07        	slli	a4, a4, 2
  107f16: 5a 97        	add	a4, a4, s6
  107f18: 18 43        	lw	a4, 0(a4)
  107f1a: 85 47        	li	a5, 1
  107f1c: b3 97 d7 00  	sll	a5, a5, a3
  107f20: f9 8f        	and	a5, a5, a4
  107f22: 05 4d        	li	s10, 1
  107f24: 99 cb        	beqz	a5, 0x107f3a <__gethex+0x22e>
  107f26: 63 59 dd 00  	bge	s10, a3, 0x107f38 <__gethex+0x22c>
  107f2a: 93 85 e9 ff  	addi	a1, s3, -2
  107f2e: 22 85        	mv	a0, s0
  107f30: ef d0 cf fd  	jal	0x10570c <__any_on>
  107f34: 0d 4d        	li	s10, 3
  107f36: 11 e1        	bnez	a0, 0x107f3a <__gethex+0x22e>
  107f38: 09 4d        	li	s10, 2
  107f3a: ce 85        	mv	a1, s3
  107f3c: 22 85        	mv	a0, s0
  107f3e: ef f0 bf ce  	jal	0x107c28 <rshift>
  107f42: ce 94        	add	s1, s1, s3
  107f44: 83 27 89 00  	lw	a5, 8(s2)
  107f48: 63 d0 97 08  	bge	a5, s1, 0x107fc8 <__gethex+0x2bc>
  107f4c: a2 85        	mv	a1, s0
  107f4e: 52 85        	mv	a0, s4
  107f50: ef c0 ff d4  	jal	0x104c9e <_Bfree>
  107f54: 93 09 30 0a  	li	s3, 163
  107f58: 23 a0 0b 00  	sw	zero, 0(s7)
  107f5c: 29 bf        	j	0x107e76 <__gethex+0x16a>
  107f5e: 03 46 fc ff  	lbu	a2, -1(s8)
  107f62: 93 07 e0 02  	li	a5, 46
  107f66: 7d 1c        	addi	s8, s8, -1
  107f68: 63 06 f6 02  	beq	a2, a5, 0x107f94 <__gethex+0x288>
  107f6c: 93 07 00 02  	li	a5, 32
  107f70: 63 97 fd 00  	bne	s11, a5, 0x107f7e <__gethex+0x272>
  107f74: 23 20 9d 01  	sw	s9, 0(s10)
  107f78: 81 4d        	li	s11, 0
  107f7a: 11 0d        	addi	s10, s10, 4
  107f7c: 81 4c        	li	s9, 0
  107f7e: 03 45 0c 00  	lbu	a0, 0(s8)
  107f82: ef f0 9f d4  	jal	0x107cca <__hexdig_fun>
  107f86: 3d 89        	andi	a0, a0, 15
  107f88: 33 15 b5 01  	sll	a0, a0, s11
  107f8c: b3 ec ac 00  	or	s9, s9, a0
  107f90: 91 0d        	addi	s11, s11, 4
  107f92: 3d bf        	j	0x107ed0 <__gethex+0x1c4>
  107f94: e3 6c 3c fd  	bltu	s8, s3, 0x107f6c <__gethex+0x260>
  107f98: 05 46        	li	a2, 1
  107f9a: 93 85 41 db  	addi	a1, gp, -588
  107f9e: 62 85        	mv	a0, s8
  107fa0: ef f0 5f b5  	jal	0x107af4 <strncmp>
  107fa4: 61 f5        	bnez	a0, 0x107f6c <__gethex+0x260>
  107fa6: 2d b7        	j	0x107ed0 <__gethex+0x1c4>
  107fa8: 01 4d        	li	s10, 0
  107faa: e3 dd 99 f9  	bge	s3, s9, 0x107f44 <__gethex+0x238>
  107fae: b3 89 3c 41  	sub	s3, s9, s3
  107fb2: a2 85        	mv	a1, s0
  107fb4: 4e 86        	mv	a2, s3
  107fb6: 52 85        	mv	a0, s4
  107fb8: ef d0 8f 9d  	jal	0x105190 <__lshift>
  107fbc: 2a 84        	mv	s0, a0
  107fbe: b3 84 34 41  	sub	s1, s1, s3
  107fc2: 13 0b 45 01  	addi	s6, a0, 20
  107fc6: bd bf        	j	0x107f44 <__gethex+0x238>
  107fc8: 03 25 49 00  	lw	a0, 4(s2)
  107fcc: 63 d4 a4 0e  	bge	s1, a0, 0x1080b4 <__gethex+0x3a8>
  107fd0: b3 04 95 40  	sub	s1, a0, s1
  107fd4: 63 c3 94 07  	blt	s1, s9, 0x10803a <__gethex+0x32e>
  107fd8: 83 27 c9 00  	lw	a5, 12(s2)
  107fdc: 09 47        	li	a4, 2
  107fde: 63 88 e7 04  	beq	a5, a4, 0x10802e <__gethex+0x322>
  107fe2: 0d 47        	li	a4, 3
  107fe4: 63 88 e7 04  	beq	a5, a4, 0x108034 <__gethex+0x328>
  107fe8: 05 47        	li	a4, 1
  107fea: 63 99 e7 02  	bne	a5, a4, 0x10801c <__gethex+0x310>
  107fee: 63 97 9c 02  	bne	s9, s1, 0x10801c <__gethex+0x310>
  107ff2: 63 9f fc 00  	bne	s9, a5, 0x108010 <__gethex+0x304>
  107ff6: 83 27 49 00  	lw	a5, 4(s2)
  107ffa: 32 47        	lw	a4, 12(sp)
  107ffc: 93 09 20 06  	li	s3, 98
  108000: 1c c3        	sw	a5, 0(a4)
  108002: 85 47        	li	a5, 1
  108004: 1c c8        	sw	a5, 16(s0)
  108006: 23 20 fb 00  	sw	a5, 0(s6)
  10800a: 23 a0 8b 00  	sw	s0, 0(s7)
  10800e: a5 b5        	j	0x107e76 <__gethex+0x16a>
  108010: 93 85 fc ff  	addi	a1, s9, -1
  108014: 22 85        	mv	a0, s0
  108016: ef d0 6f ef  	jal	0x10570c <__any_on>
  10801a: 71 fd        	bnez	a0, 0x107ff6 <__gethex+0x2ea>
  10801c: a2 85        	mv	a1, s0
  10801e: 52 85        	mv	a0, s4
  108020: ef c0 ff c7  	jal	0x104c9e <_Bfree>
  108024: 93 09 00 05  	li	s3, 80
  108028: 23 a0 0b 00  	sw	zero, 0(s7)
  10802c: a9 b5        	j	0x107e76 <__gethex+0x16a>
  10802e: e3 97 0a fe  	bnez	s5, 0x10801c <__gethex+0x310>
  108032: d1 b7        	j	0x107ff6 <__gethex+0x2ea>
  108034: e3 91 0a fc  	bnez	s5, 0x107ff6 <__gethex+0x2ea>
  108038: d5 b7        	j	0x10801c <__gethex+0x310>
  10803a: 93 89 f4 ff  	addi	s3, s1, -1
  10803e: 63 19 0d 06  	bnez	s10, 0x1080b0 <__gethex+0x3a4>
  108042: 63 87 09 00  	beqz	s3, 0x108050 <__gethex+0x344>
  108046: ce 85        	mv	a1, s3
  108048: 22 85        	mv	a0, s0
  10804a: ef d0 2f ec  	jal	0x10570c <__any_on>
  10804e: 2a 8d        	mv	s10, a0
  108050: 13 d7 59 40  	srai	a4, s3, 5
  108054: 0a 07        	slli	a4, a4, 2
  108056: 5a 97        	add	a4, a4, s6
  108058: 0c 43        	lw	a1, 0(a4)
  10805a: 85 47        	li	a5, 1
  10805c: b3 97 37 01  	sll	a5, a5, s3
  108060: ed 8f        	and	a5, a5, a1
  108062: 99 c3        	beqz	a5, 0x108068 <__gethex+0x35c>
  108064: 13 6d 2d 00  	ori	s10, s10, 2
  108068: a6 85        	mv	a1, s1
  10806a: 22 85        	mv	a0, s0
  10806c: b3 8c 9c 40  	sub	s9, s9, s1
  108070: ef f0 9f bb  	jal	0x107c28 <rshift>
  108074: 83 24 49 00  	lw	s1, 4(s2)
  108078: 89 49        	li	s3, 2
  10807a: 63 0b 0d 08  	beqz	s10, 0x108110 <__gethex+0x404>
  10807e: 83 27 c9 00  	lw	a5, 12(s2)
  108082: 09 47        	li	a4, 2
  108084: 63 8a e7 02  	beq	a5, a4, 0x1080b8 <__gethex+0x3ac>
  108088: 0d 47        	li	a4, 3
  10808a: 63 8a e7 02  	beq	a5, a4, 0x1080be <__gethex+0x3b2>
  10808e: 05 47        	li	a4, 1
  108090: 63 9d e7 00  	bne	a5, a4, 0x1080aa <__gethex+0x39e>
  108094: 93 77 2d 00  	andi	a5, s10, 2
  108098: 89 cb        	beqz	a5, 0x1080aa <__gethex+0x39e>
  10809a: 03 25 0b 00  	lw	a0, 0(s6)
  10809e: 33 6d ad 00  	or	s10, s10, a0
  1080a2: 13 7d 1d 00  	andi	s10, s10, 1
  1080a6: 63 1e 0d 00  	bnez	s10, 0x1080c2 <__gethex+0x3b6>
  1080aa: 93 e9 09 01  	ori	s3, s3, 16
  1080ae: 8d a0        	j	0x108110 <__gethex+0x404>
  1080b0: 05 4d        	li	s10, 1
  1080b2: 79 bf        	j	0x108050 <__gethex+0x344>
  1080b4: 85 49        	li	s3, 1
  1080b6: d1 b7        	j	0x10807a <__gethex+0x36e>
  1080b8: 85 47        	li	a5, 1
  1080ba: b3 8a 57 41  	sub	s5, a5, s5
  1080be: e3 86 0a fe  	beqz	s5, 0x1080aa <__gethex+0x39e>
  1080c2: 03 2d 04 01  	lw	s10, 16(s0)
  1080c6: 93 07 44 01  	addi	a5, s0, 20
  1080ca: 7d 56        	li	a2, -1
  1080cc: 93 1a 2d 00  	slli	s5, s10, 2
  1080d0: b3 86 57 01  	add	a3, a5, s5
  1080d4: 98 43        	lw	a4, 0(a5)
  1080d6: 63 02 c7 04  	beq	a4, a2, 0x10811a <__gethex+0x40e>
  1080da: 05 07        	addi	a4, a4, 1
  1080dc: 98 c3        	sw	a4, 0(a5)
  1080de: 09 47        	li	a4, 2
  1080e0: 93 07 44 01  	addi	a5, s0, 20
  1080e4: 63 97 e9 08  	bne	s3, a4, 0x108172 <__gethex+0x466>
  1080e8: 03 27 09 00  	lw	a4, 0(s2)
  1080ec: 7d 17        	addi	a4, a4, -1
  1080ee: 63 1f 97 01  	bne	a4, s9, 0x10810c <__gethex+0x400>
  1080f2: 13 d7 5c 40  	srai	a4, s9, 5
  1080f6: 0a 07        	slli	a4, a4, 2
  1080f8: ba 97        	add	a5, a5, a4
  1080fa: 9c 43        	lw	a5, 0(a5)
  1080fc: 05 47        	li	a4, 1
  1080fe: b3 1c 97 01  	sll	s9, a4, s9
  108102: b3 fc fc 00  	and	s9, s9, a5
  108106: 63 83 0c 00  	beqz	s9, 0x10810c <__gethex+0x400>
  10810a: 85 49        	li	s3, 1
  10810c: 93 e9 09 02  	ori	s3, s3, 32
  108110: b2 47        	lw	a5, 12(sp)
  108112: 23 a0 8b 00  	sw	s0, 0(s7)
  108116: 84 c3        	sw	s1, 0(a5)
  108118: b9 bb        	j	0x107e76 <__gethex+0x16a>
  10811a: 91 07        	addi	a5, a5, 4
  10811c: 23 ae 07 fe  	sw	zero, -4(a5)
  108120: e3 ea d7 fa  	bltu	a5, a3, 0x1080d4 <__gethex+0x3c8>
  108124: 1c 44        	lw	a5, 8(s0)
  108126: 63 4c fd 02  	blt	s10, a5, 0x10815e <__gethex+0x452>
  10812a: 4c 40        	lw	a1, 4(s0)
  10812c: 52 85        	mv	a0, s4
  10812e: 85 05        	addi	a1, a1, 1
  108130: ef c0 9f ac  	jal	0x104bf8 <_Balloc>
  108134: 2a 8b        	mv	s6, a0
  108136: 19 e5        	bnez	a0, 0x108144 <__gethex+0x438>
  108138: 93 86 c1 c0  	addi	a3, gp, -1012
  10813c: 01 46        	li	a2, 0
  10813e: 93 05 40 08  	li	a1, 132
  108142: 9d bb        	j	0x107eb8 <__gethex+0x1ac>
  108144: 10 48        	lw	a2, 16(s0)
  108146: 93 05 c4 00  	addi	a1, s0, 12
  10814a: 31 05        	addi	a0, a0, 12
  10814c: 09 06        	addi	a2, a2, 2
  10814e: 0a 06        	slli	a2, a2, 2
  108150: ef b0 5f b7  	jal	0x103cc4 <memcpy>
  108154: a2 85        	mv	a1, s0
  108156: 52 85        	mv	a0, s4
  108158: ef c0 7f b4  	jal	0x104c9e <_Bfree>
  10815c: 5a 84        	mv	s0, s6
  10815e: 1c 48        	lw	a5, 16(s0)
  108160: 13 87 17 00  	addi	a4, a5, 1
  108164: 91 07        	addi	a5, a5, 4
  108166: 8a 07        	slli	a5, a5, 2
  108168: 18 c8        	sw	a4, 16(s0)
  10816a: a2 97        	add	a5, a5, s0
  10816c: 05 47        	li	a4, 1
  10816e: d8 c3        	sw	a4, 4(a5)
  108170: bd b7        	j	0x1080de <__gethex+0x3d2>
  108172: 18 48        	lw	a4, 16(s0)
  108174: 63 5c ed 00  	bge	s10, a4, 0x10818c <__gethex+0x480>
  108178: 85 45        	li	a1, 1
  10817a: 22 85        	mv	a0, s0
  10817c: ef f0 df aa  	jal	0x107c28 <rshift>
  108180: 83 27 89 00  	lw	a5, 8(s2)
  108184: 85 04        	addi	s1, s1, 1
  108186: e3 d2 97 f8  	bge	a5, s1, 0x10810a <__gethex+0x3fe>
  10818a: c9 b3        	j	0x107f4c <__gethex+0x240>
  10818c: 93 fc fc 01  	andi	s9, s9, 31
  108190: 85 49        	li	s3, 1
  108192: e3 8d 0c f6  	beqz	s9, 0x10810c <__gethex+0x400>
  108196: d6 97        	add	a5, a5, s5
  108198: 03 a5 c7 ff  	lw	a0, -4(a5)
  10819c: ef c0 ff cc  	jal	0x104e6a <__hi0bits>
  1081a0: 93 07 00 02  	li	a5, 32
  1081a4: b3 8c 97 41  	sub	s9, a5, s9
  1081a8: e3 48 95 fd  	blt	a0, s9, 0x108178 <__gethex+0x46c>
  1081ac: 85 b7        	j	0x10810c <__gethex+0x400>

001081ae <L_shift>:
  1081ae: a1 47        	li	a5, 8
  1081b0: 33 86 c7 40  	sub	a2, a5, a2
  1081b4: 0a 06        	slli	a2, a2, 2
  1081b6: 93 06 00 02  	li	a3, 32
  1081ba: 91 8e        	sub	a3, a3, a2
  1081bc: 5c 41        	lw	a5, 4(a0)
  1081be: 18 41        	lw	a4, 0(a0)
  1081c0: 33 98 d7 00  	sll	a6, a5, a3
  1081c4: 33 67 07 01  	or	a4, a4, a6
  1081c8: b3 d7 c7 00  	srl	a5, a5, a2
  1081cc: 18 c1        	sw	a4, 0(a0)
  1081ce: 5c c1        	sw	a5, 4(a0)
  1081d0: 11 05        	addi	a0, a0, 4
  1081d2: e3 65 b5 fe  	bltu	a0, a1, 0x1081bc <L_shift+0xe>
  1081d6: 82 80        	ret

001081d8 <__match>:
  1081d8: 1c 41        	lw	a5, 0(a0)
  1081da: 65 48        	li	a6, 25
  1081dc: 03 c6 05 00  	lbu	a2, 0(a1)
  1081e0: 85 05        	addi	a1, a1, 1
  1081e2: 85 07        	addi	a5, a5, 1
  1081e4: 01 e6        	bnez	a2, 0x1081ec <__match+0x14>
  1081e6: 1c c1        	sw	a5, 0(a0)
  1081e8: 05 45        	li	a0, 1
  1081ea: 82 80        	ret
  1081ec: 03 c7 07 00  	lbu	a4, 0(a5)
  1081f0: 93 06 f7 fb  	addi	a3, a4, -65
  1081f4: 93 f6 f6 0f  	andi	a3, a3, 255
  1081f8: 63 64 d8 00  	bltu	a6, a3, 0x108200 <__match+0x28>
  1081fc: 13 07 07 02  	addi	a4, a4, 32
  108200: e3 0e c7 fc  	beq	a4, a2, 0x1081dc <__match+0x4>
  108204: 01 45        	li	a0, 0
  108206: 82 80        	ret

00108208 <__hexnan>:
  108208: 5d 71        	addi	sp, sp, -80
  10820a: 52 dc        	sw	s4, 56(sp)
  10820c: 03 aa 05 00  	lw	s4, 0(a1)
  108210: a6 c2        	sw	s1, 68(sp)
  108212: 4e de        	sw	s3, 60(sp)
  108214: 93 54 5a 40  	srai	s1, s4, 5
  108218: 56 da        	sw	s5, 52(sp)
  10821a: 8a 04        	slli	s1, s1, 2
  10821c: 86 c6        	sw	ra, 76(sp)
  10821e: a2 c4        	sw	s0, 72(sp)
  108220: ca c0        	sw	s2, 64(sp)
  108222: 5a d8        	sw	s6, 48(sp)
  108224: 5e d6        	sw	s7, 44(sp)
  108226: 62 d4        	sw	s8, 40(sp)
  108228: 66 d2        	sw	s9, 36(sp)
  10822a: 6a d0        	sw	s10, 32(sp)
  10822c: 6e ce        	sw	s11, 28(sp)
  10822e: 13 7a fa 01  	andi	s4, s4, 31
  108232: aa 8a        	mv	s5, a0
  108234: b2 89        	mv	s3, a2
  108236: b2 94        	add	s1, s1, a2
  108238: 63 03 0a 00  	beqz	s4, 0x10823e <__hexnan+0x36>
  10823c: 91 04        	addi	s1, s1, 4
  10823e: 83 a7 0a 00  	lw	a5, 0(s5)
  108242: 13 89 c4 ff  	addi	s2, s1, -4
  108246: 23 ae 04 fe  	sw	zero, -4(s1)
  10824a: ca 8d        	mv	s11, s2
  10824c: 4a 84        	mv	s0, s2
  10824e: 01 46        	li	a2, 0
  108250: 01 4b        	li	s6, 0
  108252: 81 4b        	li	s7, 0
  108254: 21 4c        	li	s8, 8
  108256: 93 0c 00 02  	li	s9, 32
  10825a: 1d 4d        	li	s10, 7
  10825c: 83 c6 17 00  	lbu	a3, 1(a5)
  108260: 13 87 17 00  	addi	a4, a5, 1
  108264: 3a c0        	sw	a4, 0(sp)
  108266: b1 ca        	beqz	a3, 0x1082ba <__hexnan+0xb2>
  108268: 36 85        	mv	a0, a3
  10826a: 32 c6        	sw	a2, 12(sp)
  10826c: 3e c4        	sw	a5, 8(sp)
  10826e: 36 c2        	sw	a3, 4(sp)
  108270: ef f0 bf a5  	jal	0x107cca <__hexdig_fun>
  108274: 32 46        	lw	a2, 12(sp)
  108276: 45 e5        	bnez	a0, 0x10831e <__hexnan+0x116>
  108278: 92 46        	lw	a3, 4(sp)
  10827a: a2 47        	lw	a5, 8(sp)
  10827c: 63 e8 dc 02  	bltu	s9, a3, 0x1082ac <__hexnan+0xa4>
  108280: 63 54 7b 03  	bge	s6, s7, 0x1082a8 <__hexnan+0xa0>
  108284: 63 78 b4 01  	bgeu	s0, s11, 0x108294 <__hexnan+0x8c>
  108288: 63 46 cd 00  	blt	s10, a2, 0x108294 <__hexnan+0x8c>
  10828c: ee 85        	mv	a1, s11
  10828e: 22 85        	mv	a0, s0
  108290: ef f0 ff f1  	jal	0x1081ae <L_shift>
  108294: 21 46        	li	a2, 8
  108296: 63 f9 89 00  	bgeu	s3, s0, 0x1082a8 <__hexnan+0xa0>
  10829a: 93 0d c4 ff  	addi	s11, s0, -4
  10829e: 23 2e 04 fe  	sw	zero, -4(s0)
  1082a2: 5e 8b        	mv	s6, s7
  1082a4: 6e 84        	mv	s0, s11
  1082a6: 01 46        	li	a2, 0
  1082a8: 82 47        	lw	a5, 0(sp)
  1082aa: 4d bf        	j	0x10825c <__hexnan+0x54>
  1082ac: 93 05 90 02  	li	a1, 41
  1082b0: 63 99 b6 0a  	bne	a3, a1, 0x108362 <__hexnan+0x15a>
  1082b4: 89 07        	addi	a5, a5, 2
  1082b6: 23 a0 fa 00  	sw	a5, 0(s5)
  1082ba: 63 84 0b 0a  	beqz	s7, 0x108362 <__hexnan+0x15a>
  1082be: 63 79 b4 01  	bgeu	s0, s11, 0x1082d0 <__hexnan+0xc8>
  1082c2: 9d 47        	li	a5, 7
  1082c4: 63 c6 c7 00  	blt	a5, a2, 0x1082d0 <__hexnan+0xc8>
  1082c8: ee 85        	mv	a1, s11
  1082ca: 22 85        	mv	a0, s0
  1082cc: ef f0 3f ee  	jal	0x1081ae <L_shift>
  1082d0: 63 f7 89 06  	bgeu	s3, s0, 0x10833e <__hexnan+0x136>
  1082d4: 4e 87        	mv	a4, s3
  1082d6: a2 87        	mv	a5, s0
  1082d8: 94 43        	lw	a3, 0(a5)
  1082da: 91 07        	addi	a5, a5, 4
  1082dc: 11 07        	addi	a4, a4, 4
  1082de: 23 2e d7 fe  	sw	a3, -4(a4)
  1082e2: e3 7b f9 fe  	bgeu	s2, a5, 0x1082d8 <__hexnan+0xd0>
  1082e6: 13 07 14 00  	addi	a4, s0, 1
  1082ea: f5 14        	addi	s1, s1, -3
  1082ec: 91 47        	li	a5, 4
  1082ee: 63 e7 e4 00  	bltu	s1, a4, 0x1082fc <__hexnan+0xf4>
  1082f2: 33 04 89 40  	sub	s0, s2, s0
  1082f6: 71 98        	andi	s0, s0, -4
  1082f8: 93 07 44 00  	addi	a5, s0, 4
  1082fc: 33 84 f9 00  	add	s0, s3, a5
  108300: 11 04        	addi	s0, s0, 4
  108302: 23 2e 04 fe  	sw	zero, -4(s0)
  108306: e3 7d 89 fe  	bgeu	s2, s0, 0x108300 <__hexnan+0xf8>
  10830a: 83 27 09 00  	lw	a5, 0(s2)
  10830e: 91 e7        	bnez	a5, 0x10831a <__hexnan+0x112>
  108310: 63 17 39 05  	bne	s2, s3, 0x10835e <__hexnan+0x156>
  108314: 85 47        	li	a5, 1
  108316: 23 20 f9 00  	sw	a5, 0(s2)
  10831a: 15 45        	li	a0, 5
  10831c: a1 a0        	j	0x108364 <__hexnan+0x15c>
  10831e: 05 06        	addi	a2, a2, 1
  108320: 85 0b        	addi	s7, s7, 1
  108322: 63 58 cc 00  	bge	s8, a2, 0x108332 <__hexnan+0x12a>
  108326: e3 f1 89 f8  	bgeu	s3, s0, 0x1082a8 <__hexnan+0xa0>
  10832a: 23 2e 04 fe  	sw	zero, -4(s0)
  10832e: 05 46        	li	a2, 1
  108330: 71 14        	addi	s0, s0, -4
  108332: 1c 40        	lw	a5, 0(s0)
  108334: 3d 89        	andi	a0, a0, 15
  108336: 92 07        	slli	a5, a5, 4
  108338: 5d 8d        	or	a0, a0, a5
  10833a: 08 c0        	sw	a0, 0(s0)
  10833c: b5 b7        	j	0x1082a8 <__hexnan+0xa0>
  10833e: e3 06 0a fc  	beqz	s4, 0x10830a <__hexnan+0x102>
  108342: 93 07 00 02  	li	a5, 32
  108346: b3 87 47 41  	sub	a5, a5, s4
  10834a: 7d 5a        	li	s4, -1
  10834c: b3 57 fa 00  	srl	a5, s4, a5
  108350: 03 aa c4 ff  	lw	s4, -4(s1)
  108354: 33 7a fa 00  	and	s4, s4, a5
  108358: 23 ae 44 ff  	sw	s4, -4(s1)
  10835c: 7d b7        	j	0x10830a <__hexnan+0x102>
  10835e: 71 19        	addi	s2, s2, -4
  108360: 6d b7        	j	0x10830a <__hexnan+0x102>
  108362: 11 45        	li	a0, 4
  108364: b6 40        	lw	ra, 76(sp)
  108366: 26 44        	lw	s0, 72(sp)
  108368: 96 44        	lw	s1, 68(sp)
  10836a: 06 49        	lw	s2, 64(sp)
  10836c: f2 59        	lw	s3, 60(sp)
  10836e: 62 5a        	lw	s4, 56(sp)
  108370: d2 5a        	lw	s5, 52(sp)
  108372: 42 5b        	lw	s6, 48(sp)
  108374: b2 5b        	lw	s7, 44(sp)
  108376: 22 5c        	lw	s8, 40(sp)
  108378: 92 5c        	lw	s9, 36(sp)
  10837a: 02 5d        	lw	s10, 32(sp)
  10837c: f2 4d        	lw	s11, 28(sp)
  10837e: 61 61        	addi	sp, sp, 80
  108380: 82 80        	ret

00108382 <_mbtowc_r>:
  108382: c1 67        	lui	a5, 16
  108384: 83 a7 47 14  	lw	a5, 324(a5)
  108388: 82 87        	jr	a5

0010838a <__ascii_mbtowc>:
  10838a: 85 e1        	bnez	a1, 0x1083aa <__ascii_mbtowc+0x20>
  10838c: 41 11        	addi	sp, sp, -16
  10838e: 6c 00        	addi	a1, sp, 12
  108390: 01 45        	li	a0, 0
  108392: 11 ca        	beqz	a2, 0x1083a6 <__ascii_mbtowc+0x1c>
  108394: 79 55        	li	a0, -2
  108396: 81 ca        	beqz	a3, 0x1083a6 <__ascii_mbtowc+0x1c>
  108398: 83 47 06 00  	lbu	a5, 0(a2)
  10839c: 9c c1        	sw	a5, 0(a1)
  10839e: 03 45 06 00  	lbu	a0, 0(a2)
  1083a2: 33 35 a0 00  	snez	a0, a0
  1083a6: 41 01        	addi	sp, sp, 16
  1083a8: 82 80        	ret
  1083aa: 01 45        	li	a0, 0
  1083ac: 19 ca        	beqz	a2, 0x1083c2 <__ascii_mbtowc+0x38>
  1083ae: 79 55        	li	a0, -2
  1083b0: 89 ca        	beqz	a3, 0x1083c2 <__ascii_mbtowc+0x38>
  1083b2: 83 47 06 00  	lbu	a5, 0(a2)
  1083b6: 9c c1        	sw	a5, 0(a1)
  1083b8: 03 45 06 00  	lbu	a0, 0(a2)
  1083bc: 33 35 a0 00  	snez	a0, a0
  1083c0: 82 80        	ret
  1083c2: 82 80        	ret

001083c4 <_strtoul_l.constprop.0>:
  1083c4: 2a 8e        	mv	t3, a0
  1083c6: 2e 87        	mv	a4, a1
  1083c8: 13 88 11 e3  	addi	a6, gp, -463
  1083cc: ba 88        	mv	a7, a4
  1083ce: 83 47 07 00  	lbu	a5, 0(a4)
  1083d2: 05 07        	addi	a4, a4, 1
  1083d4: 33 85 07 01  	add	a0, a5, a6
  1083d8: 03 45 05 00  	lbu	a0, 0(a0)
  1083dc: 21 89        	andi	a0, a0, 8
  1083de: 7d f5        	bnez	a0, 0x1083cc <_strtoul_l.constprop.0+0x8>
  1083e0: 13 05 d0 02  	li	a0, 45
  1083e4: 63 9c a7 06  	bne	a5, a0, 0x10845c <_strtoul_l.constprop.0+0x98>
  1083e8: 83 47 07 00  	lbu	a5, 0(a4)
  1083ec: 85 4e        	li	t4, 1
  1083ee: 13 87 28 00  	addi	a4, a7, 2
  1083f2: e1 ca        	beqz	a3, 0x1084c2 <_strtoul_l.constprop.0+0xfe>
  1083f4: 41 45        	li	a0, 16
  1083f6: 63 92 a6 02  	bne	a3, a0, 0x10841a <_strtoul_l.constprop.0+0x56>
  1083fa: 13 05 00 03  	li	a0, 48
  1083fe: 63 9e a7 00  	bne	a5, a0, 0x10841a <_strtoul_l.constprop.0+0x56>
  108402: 83 47 07 00  	lbu	a5, 0(a4)
  108406: 13 05 80 05  	li	a0, 88
  10840a: 93 f7 f7 0d  	andi	a5, a5, 223
  10840e: 63 95 a7 0a  	bne	a5, a0, 0x1084b8 <_strtoul_l.constprop.0+0xf4>
  108412: 83 47 17 00  	lbu	a5, 1(a4)
  108416: c1 46        	li	a3, 16
  108418: 09 07        	addi	a4, a4, 2
  10841a: 7d 58        	li	a6, -1
  10841c: 33 5f d8 02  	divu	t5, a6, a3
  108420: 81 48        	li	a7, 0
  108422: 01 45        	li	a0, 0
  108424: a5 42        	li	t0, 9
  108426: e5 4f        	li	t6, 25
  108428: 33 73 d8 02  	remu	t1, a6, a3
  10842c: 13 88 07 fd  	addi	a6, a5, -48
  108430: 63 e0 02 05  	bltu	t0, a6, 0x108470 <_strtoul_l.constprop.0+0xac>
  108434: c2 87        	mv	a5, a6
  108436: 63 dd d7 04  	bge	a5, a3, 0x108490 <_strtoul_l.constprop.0+0xcc>
  10843a: 63 c9 08 04  	bltz	a7, 0x10848c <_strtoul_l.constprop.0+0xc8>
  10843e: fd 58        	li	a7, -1
  108440: 63 6a af 00  	bltu	t5, a0, 0x108454 <_strtoul_l.constprop.0+0x90>
  108444: 63 14 af 00  	bne	t5, a0, 0x10844c <_strtoul_l.constprop.0+0x88>
  108448: 63 46 f3 00  	blt	t1, a5, 0x108454 <_strtoul_l.constprop.0+0x90>
  10844c: 85 48        	li	a7, 1
  10844e: 33 85 a6 02  	mul	a0, a3, a0
  108452: 3e 95        	add	a0, a0, a5
  108454: 05 07        	addi	a4, a4, 1
  108456: 83 47 f7 ff  	lbu	a5, -1(a4)
  10845a: c9 bf        	j	0x10842c <_strtoul_l.constprop.0+0x68>
  10845c: 13 05 b0 02  	li	a0, 43
  108460: 81 4e        	li	t4, 0
  108462: e3 98 a7 f8  	bne	a5, a0, 0x1083f2 <_strtoul_l.constprop.0+0x2e>
  108466: 83 47 07 00  	lbu	a5, 0(a4)
  10846a: 13 87 28 00  	addi	a4, a7, 2
  10846e: 51 b7        	j	0x1083f2 <_strtoul_l.constprop.0+0x2e>
  108470: 13 88 f7 fb  	addi	a6, a5, -65
  108474: 63 e5 0f 01  	bltu	t6, a6, 0x10847e <_strtoul_l.constprop.0+0xba>
  108478: 93 87 97 fc  	addi	a5, a5, -55
  10847c: 6d bf        	j	0x108436 <_strtoul_l.constprop.0+0x72>
  10847e: 13 88 f7 f9  	addi	a6, a5, -97
  108482: 63 e7 0f 01  	bltu	t6, a6, 0x108490 <_strtoul_l.constprop.0+0xcc>
  108486: 93 87 97 fa  	addi	a5, a5, -87
  10848a: 75 b7        	j	0x108436 <_strtoul_l.constprop.0+0x72>
  10848c: fd 58        	li	a7, -1
  10848e: d9 b7        	j	0x108454 <_strtoul_l.constprop.0+0x90>
  108490: 63 d9 08 00  	bgez	a7, 0x1084a2 <_strtoul_l.constprop.0+0xde>
  108494: 93 07 20 02  	li	a5, 34
  108498: 23 20 fe 00  	sw	a5, 0(t3)
  10849c: 7d 55        	li	a0, -1
  10849e: 09 ea        	bnez	a2, 0x1084b0 <_strtoul_l.constprop.0+0xec>
  1084a0: 82 80        	ret
  1084a2: 63 84 0e 00  	beqz	t4, 0x1084aa <_strtoul_l.constprop.0+0xe6>
  1084a6: 33 05 a0 40  	neg	a0, a0
  1084aa: 15 c2        	beqz	a2, 0x1084ce <_strtoul_l.constprop.0+0x10a>
  1084ac: 63 84 08 00  	beqz	a7, 0x1084b4 <_strtoul_l.constprop.0+0xf0>
  1084b0: 93 05 f7 ff  	addi	a1, a4, -1
  1084b4: 0c c2        	sw	a1, 0(a2)
  1084b6: 82 80        	ret
  1084b8: 93 07 00 03  	li	a5, 48
  1084bc: b9 fe        	bnez	a3, 0x10841a <_strtoul_l.constprop.0+0x56>
  1084be: a1 46        	li	a3, 8
  1084c0: a9 bf        	j	0x10841a <_strtoul_l.constprop.0+0x56>
  1084c2: 13 05 00 03  	li	a0, 48
  1084c6: e3 8e a7 f2  	beq	a5, a0, 0x108402 <_strtoul_l.constprop.0+0x3e>
  1084ca: a9 46        	li	a3, 10
  1084cc: b9 b7        	j	0x10841a <_strtoul_l.constprop.0+0x56>
  1084ce: 82 80        	ret

001084d0 <_strtoul_r>:
  1084d0: 6f f0 5f ef  	j	0x1083c4 <_strtoul_l.constprop.0>

001084d4 <strtoul_l>:
  1084d4: b2 86        	mv	a3, a2
  1084d6: 2e 86        	mv	a2, a1
  1084d8: aa 85        	mv	a1, a0
  1084da: 03 a5 41 8a  	lw	a0, -1884(gp)
  1084de: 6f f0 7f ee  	j	0x1083c4 <_strtoul_l.constprop.0>

001084e2 <strtoul>:
  1084e2: b2 86        	mv	a3, a2
  1084e4: 2e 86        	mv	a2, a1
  1084e6: aa 85        	mv	a1, a0
  1084e8: 03 a5 41 8a  	lw	a0, -1884(gp)
  1084ec: 6f f0 9f ed  	j	0x1083c4 <_strtoul_l.constprop.0>

001084f0 <_wctomb_r>:
  1084f0: c1 67        	lui	a5, 16
  1084f2: 83 a7 07 14  	lw	a5, 320(a5)
  1084f6: 82 87        	jr	a5

001084f8 <__ascii_wctomb>:
  1084f8: 91 cd        	beqz	a1, 0x108514 <__ascii_wctomb+0x1c>
  1084fa: 93 07 f0 0f  	li	a5, 255
  1084fe: 63 f7 c7 00  	bgeu	a5, a2, 0x10850c <__ascii_wctomb+0x14>
  108502: 93 07 a0 08  	li	a5, 138
  108506: 1c c1        	sw	a5, 0(a0)
  108508: 7d 55        	li	a0, -1
  10850a: 82 80        	ret
  10850c: 23 80 c5 00  	sb	a2, 0(a1)
  108510: 05 45        	li	a0, 1
  108512: 82 80        	ret
  108514: 01 45        	li	a0, 0
  108516: 82 80        	ret

00108518 <abort>:
  108518: 41 11        	addi	sp, sp, -16
  10851a: 19 45        	li	a0, 6
  10851c: 06 c6        	sw	ra, 12(sp)
  10851e: 2d 2a        	jal	0x108658 <raise>
  108520: 05 45        	li	a0, 1
  108522: 3d 24        	jal	0x108750 <_exit>

00108524 <_init_signal_r>:
  108524: 7c 41        	lw	a5, 68(a0)
  108526: 95 eb        	bnez	a5, 0x10855a <_init_signal_r+0x36>
  108528: 41 11        	addi	sp, sp, -16
  10852a: 93 05 00 08  	li	a1, 128
  10852e: 22 c4        	sw	s0, 8(sp)
  108530: 06 c6        	sw	ra, 12(sp)
  108532: 2a 84        	mv	s0, a0
  108534: ef 80 3f 93  	jal	0x100e66 <_malloc_r>
  108538: aa 87        	mv	a5, a0
  10853a: 68 c0        	sw	a0, 68(s0)
  10853c: 7d 55        	li	a0, -1
  10853e: 91 cb        	beqz	a5, 0x108552 <_init_signal_r+0x2e>
  108540: 3e 85        	mv	a0, a5
  108542: 93 87 07 08  	addi	a5, a5, 128
  108546: 23 20 05 00  	sw	zero, 0(a0)
  10854a: 11 05        	addi	a0, a0, 4
  10854c: e3 1d f5 fe  	bne	a0, a5, 0x108546 <_init_signal_r+0x22>
  108550: 01 45        	li	a0, 0
  108552: b2 40        	lw	ra, 12(sp)
  108554: 22 44        	lw	s0, 8(sp)
  108556: 41 01        	addi	sp, sp, 16
  108558: 82 80        	ret
  10855a: 01 45        	li	a0, 0
  10855c: 82 80        	ret

0010855e <_signal_r>:
  10855e: 41 11        	addi	sp, sp, -16
  108560: 26 c2        	sw	s1, 4(sp)
  108562: 06 c6        	sw	ra, 12(sp)
  108564: 22 c4        	sw	s0, 8(sp)
  108566: 4a c0        	sw	s2, 0(sp)
  108568: fd 47        	li	a5, 31
  10856a: aa 84        	mv	s1, a0
  10856c: 63 f6 b7 00  	bgeu	a5, a1, 0x108578 <_signal_r+0x1a>
  108570: d9 47        	li	a5, 22
  108572: 1c c1        	sw	a5, 0(a0)
  108574: 7d 55        	li	a0, -1
  108576: 19 a8        	j	0x10858c <_signal_r+0x2e>
  108578: 7c 41        	lw	a5, 68(a0)
  10857a: 2e 84        	mv	s0, a1
  10857c: 32 89        	mv	s2, a2
  10857e: 89 cf        	beqz	a5, 0x108598 <_signal_r+0x3a>
  108580: ec 40        	lw	a1, 68(s1)
  108582: 0a 04        	slli	s0, s0, 2
  108584: 2e 94        	add	s0, s0, a1
  108586: 08 40        	lw	a0, 0(s0)
  108588: 23 20 24 01  	sw	s2, 0(s0)
  10858c: b2 40        	lw	ra, 12(sp)
  10858e: 22 44        	lw	s0, 8(sp)
  108590: 92 44        	lw	s1, 4(sp)
  108592: 02 49        	lw	s2, 0(sp)
  108594: 41 01        	addi	sp, sp, 16
  108596: 82 80        	ret
  108598: ef f0 df f8  	jal	0x108524 <_init_signal_r>
  10859c: 75 d1        	beqz	a0, 0x108580 <_signal_r+0x22>
  10859e: d9 bf        	j	0x108574 <_signal_r+0x16>

001085a0 <_raise_r>:
  1085a0: 01 11        	addi	sp, sp, -32
  1085a2: 22 cc        	sw	s0, 24(sp)
  1085a4: 06 ce        	sw	ra, 28(sp)
  1085a6: fd 47        	li	a5, 31
  1085a8: 2a 84        	mv	s0, a0
  1085aa: 63 f9 b7 00  	bgeu	a5, a1, 0x1085bc <_raise_r+0x1c>
  1085ae: d9 47        	li	a5, 22
  1085b0: 1c c1        	sw	a5, 0(a0)
  1085b2: 7d 55        	li	a0, -1
  1085b4: f2 40        	lw	ra, 28(sp)
  1085b6: 62 44        	lw	s0, 24(sp)
  1085b8: 05 61        	addi	sp, sp, 32
  1085ba: 82 80        	ret
  1085bc: 7c 41        	lw	a5, 68(a0)
  1085be: 2e 86        	mv	a2, a1
  1085c0: 91 c7        	beqz	a5, 0x1085cc <_raise_r+0x2c>
  1085c2: 13 97 25 00  	slli	a4, a1, 2
  1085c6: ba 97        	add	a5, a5, a4
  1085c8: 98 43        	lw	a4, 0(a5)
  1085ca: 19 eb        	bnez	a4, 0x1085e0 <_raise_r+0x40>
  1085cc: 22 85        	mv	a0, s0
  1085ce: 32 c6        	sw	a2, 12(sp)
  1085d0: c5 20        	jal	0x1086b0 <_getpid_r>
  1085d2: aa 85        	mv	a1, a0
  1085d4: 22 85        	mv	a0, s0
  1085d6: 62 44        	lw	s0, 24(sp)
  1085d8: 32 46        	lw	a2, 12(sp)
  1085da: f2 40        	lw	ra, 28(sp)
  1085dc: 05 61        	addi	sp, sp, 32
  1085de: 4d a0        	j	0x108680 <_kill_r>
  1085e0: 85 46        	li	a3, 1
  1085e2: 01 45        	li	a0, 0
  1085e4: e3 08 d7 fc  	beq	a4, a3, 0x1085b4 <_raise_r+0x14>
  1085e8: fd 56        	li	a3, -1
  1085ea: 63 16 d7 00  	bne	a4, a3, 0x1085f6 <_raise_r+0x56>
  1085ee: d9 47        	li	a5, 22
  1085f0: 1c c0        	sw	a5, 0(s0)
  1085f2: 05 45        	li	a0, 1
  1085f4: c1 b7        	j	0x1085b4 <_raise_r+0x14>
  1085f6: 2e 85        	mv	a0, a1
  1085f8: 23 a0 07 00  	sw	zero, 0(a5)
  1085fc: 02 97        	jalr	a4
  1085fe: 01 45        	li	a0, 0
  108600: 55 bf        	j	0x1085b4 <_raise_r+0x14>

00108602 <__sigtramp_r>:
  108602: fd 47        	li	a5, 31
  108604: 63 f4 b7 00  	bgeu	a5, a1, 0x10860c <__sigtramp_r+0xa>
  108608: 7d 55        	li	a0, -1
  10860a: 82 80        	ret
  10860c: 7c 41        	lw	a5, 68(a0)
  10860e: 41 11        	addi	sp, sp, -16
  108610: 22 c4        	sw	s0, 8(sp)
  108612: 26 c2        	sw	s1, 4(sp)
  108614: 06 c6        	sw	ra, 12(sp)
  108616: aa 84        	mv	s1, a0
  108618: 2e 84        	mv	s0, a1
  10861a: 95 c7        	beqz	a5, 0x108646 <__sigtramp_r+0x44>
  10861c: fc 40        	lw	a5, 68(s1)
  10861e: 13 17 24 00  	slli	a4, s0, 2
  108622: 05 45        	li	a0, 1
  108624: 3e 97        	add	a4, a4, a5
  108626: 1c 43        	lw	a5, 0(a4)
  108628: 9d c3        	beqz	a5, 0x10864e <__sigtramp_r+0x4c>
  10862a: fd 56        	li	a3, -1
  10862c: 09 45        	li	a0, 2
  10862e: 63 80 d7 02  	beq	a5, a3, 0x10864e <__sigtramp_r+0x4c>
  108632: 85 46        	li	a3, 1
  108634: 0d 45        	li	a0, 3
  108636: 63 8c d7 00  	beq	a5, a3, 0x10864e <__sigtramp_r+0x4c>
  10863a: 22 85        	mv	a0, s0
  10863c: 23 20 07 00  	sw	zero, 0(a4)
  108640: 82 97        	jalr	a5
  108642: 01 45        	li	a0, 0
  108644: 29 a0        	j	0x10864e <__sigtramp_r+0x4c>
  108646: ef f0 ff ed  	jal	0x108524 <_init_signal_r>
  10864a: 69 d9        	beqz	a0, 0x10861c <__sigtramp_r+0x1a>
  10864c: 7d 55        	li	a0, -1
  10864e: b2 40        	lw	ra, 12(sp)
  108650: 22 44        	lw	s0, 8(sp)
  108652: 92 44        	lw	s1, 4(sp)
  108654: 41 01        	addi	sp, sp, 16
  108656: 82 80        	ret

00108658 <raise>:
  108658: aa 85        	mv	a1, a0
  10865a: 03 a5 41 8a  	lw	a0, -1884(gp)
  10865e: 6f f0 3f f4  	j	0x1085a0 <_raise_r>

00108662 <signal>:
  108662: 2e 86        	mv	a2, a1
  108664: aa 85        	mv	a1, a0
  108666: 03 a5 41 8a  	lw	a0, -1884(gp)
  10866a: 6f f0 5f ef  	j	0x10855e <_signal_r>

0010866e <_init_signal>:
  10866e: 03 a5 41 8a  	lw	a0, -1884(gp)
  108672: 6f f0 3f eb  	j	0x108524 <_init_signal_r>

00108676 <__sigtramp>:
  108676: aa 85        	mv	a1, a0
  108678: 03 a5 41 8a  	lw	a0, -1884(gp)
  10867c: 6f f0 7f f8  	j	0x108602 <__sigtramp_r>

00108680 <_kill_r>:
  108680: 41 11        	addi	sp, sp, -16
  108682: 22 c4        	sw	s0, 8(sp)
  108684: 26 c2        	sw	s1, 4(sp)
  108686: 2a 84        	mv	s0, a0
  108688: b7 c4 10 00  	lui	s1, 268
  10868c: 2e 85        	mv	a0, a1
  10868e: b2 85        	mv	a1, a2
  108690: 06 c6        	sw	ra, 12(sp)
  108692: 23 a6 04 88  	sw	zero, -1908(s1)
  108696: 05 20        	jal	0x1086b6 <_kill>
  108698: fd 57        	li	a5, -1
  10869a: 63 16 f5 00  	bne	a0, a5, 0x1086a6 <_kill_r+0x26>
  10869e: 83 a7 c4 88  	lw	a5, -1908(s1)
  1086a2: 91 c3        	beqz	a5, 0x1086a6 <_kill_r+0x26>
  1086a4: 1c c0        	sw	a5, 0(s0)
  1086a6: b2 40        	lw	ra, 12(sp)
  1086a8: 22 44        	lw	s0, 8(sp)
  1086aa: 92 44        	lw	s1, 4(sp)
  1086ac: 41 01        	addi	sp, sp, 16
  1086ae: 82 80        	ret

001086b0 <_getpid_r>:
  1086b0: 09 a0        	j	0x1086b2 <_getpid>

001086b2 <_getpid>:
  1086b2: 05 45        	li	a0, 1
  1086b4: 82 80        	ret

001086b6 <_kill>:
  1086b6: 41 11        	addi	sp, sp, -16
  1086b8: 06 c6        	sw	ra, 12(sp)
  1086ba: ef f0 0f d2  	jal	0x107bda <__errno>
  1086be: b2 40        	lw	ra, 12(sp)
  1086c0: d9 47        	li	a5, 22
  1086c2: 1c c1        	sw	a5, 0(a0)
  1086c4: 7d 55        	li	a0, -1
  1086c6: 41 01        	addi	sp, sp, 16
  1086c8: 82 80        	ret
  1086ca: 00 00        	unimp	
  1086cc: 00 00        	unimp	
  1086ce: 00 00        	unimp	

001086d0 <_close>:
  1086d0: 01 11        	addi	sp, sp, -32
  1086d2: 26 ca        	sw	s1, 20(sp)
  1086d4: 06 ce        	sw	ra, 28(sp)
  1086d6: 22 cc        	sw	s0, 24(sp)
  1086d8: aa 84        	mv	s1, a0
  1086da: 01 2a        	jal	0x1087ea <__get_fdentry>
  1086dc: 05 cd        	beqz	a0, 0x108714 <_close+0x44>
  1086de: 1c 41        	lw	a5, 0(a0)
  1086e0: 6c 00        	addi	a1, sp, 12
  1086e2: 09 45        	li	a0, 2
  1086e4: 3e c6        	sw	a5, 12(sp)
  1086e6: 13 00 00 00  	nop
  1086ea: 13 00 00 00  	nop
  1086ee: 01 00        	nop
  1086f0: 13 10 f0 01  	slli	zero, zero, 31
  1086f4: 73 00 10 00  	ebreak	
  1086f8: 13 50 70 40  	srai	zero, zero, 7
  1086fc: 2a 84        	mv	s0, a0
  1086fe: 63 4d 05 00  	bltz	a0, 0x108718 <_close+0x48>
  108702: 19 e1        	bnez	a0, 0x108708 <_close+0x38>
  108704: 26 85        	mv	a0, s1
  108706: 19 2a        	jal	0x10881c <__remove_fdentry>
  108708: f2 40        	lw	ra, 28(sp)
  10870a: 22 85        	mv	a0, s0
  10870c: 62 44        	lw	s0, 24(sp)
  10870e: d2 44        	lw	s1, 20(sp)
  108710: 05 61        	addi	sp, sp, 32
  108712: 82 80        	ret
  108714: 7d 54        	li	s0, -1
  108716: cd bf        	j	0x108708 <_close+0x38>
  108718: 4d 45        	li	a0, 19
  10871a: 81 45        	li	a1, 0
  10871c: 13 00 00 00  	nop
  108720: 13 10 f0 01  	slli	zero, zero, 31
  108724: 73 00 10 00  	ebreak	
  108728: 13 50 70 40  	srai	zero, zero, 7
  10872c: b7 c7 10 00  	lui	a5, 268
  108730: 23 a6 a7 88  	sw	a0, -1908(a5)
  108734: 7d 54        	li	s0, -1
  108736: c9 bf        	j	0x108708 <_close+0x38>
		...

00108750 <_exit>:
  108750: b7 05 02 00  	lui	a1, 32
  108754: 61 45        	li	a0, 24
  108756: 93 85 65 02  	addi	a1, a1, 38
  10875a: 13 00 00 00  	nop
  10875e: 01 00        	nop
  108760: 13 10 f0 01  	slli	zero, zero, 31
  108764: 73 00 10 00  	ebreak	
  108768: 13 50 70 40  	srai	zero, zero, 7
  10876c: 63 43 05 00  	bltz	a0, 0x108772 <_exit+0x22>
  108770: 01 a0        	j	0x108770 <_exit+0x20>
  108772: 4d 45        	li	a0, 19
  108774: 81 45        	li	a1, 0
  108776: 13 00 00 00  	nop
  10877a: 13 00 00 00  	nop
  10877e: 01 00        	nop
  108780: 13 10 f0 01  	slli	zero, zero, 31
  108784: 73 00 10 00  	ebreak	
  108788: 13 50 70 40  	srai	zero, zero, 7
  10878c: b7 c7 10 00  	lui	a5, 268
  108790: 23 a6 a7 88  	sw	a0, -1908(a5)
  108794: f1 bf        	j	0x108770 <_exit+0x20>
		...
  1087a2: 00 00        	unimp	

001087a4 <__add_fdentry>:
  1087a4: b7 c7 10 00  	lui	a5, 268
  1087a8: aa 85        	mv	a1, a0
  1087aa: 13 88 47 94  	addi	a6, a5, -1724
  1087ae: 01 45        	li	a0, 0
  1087b0: 93 87 47 94  	addi	a5, a5, -1724
  1087b4: fd 56        	li	a3, -1
  1087b6: 41 46        	li	a2, 16
  1087b8: 98 43        	lw	a4, 0(a5)
  1087ba: a1 07        	addi	a5, a5, 8
  1087bc: 63 0f d7 00  	beq	a4, a3, 0x1087da <__add_fdentry+0x36>
  1087c0: 05 05        	addi	a0, a0, 1
  1087c2: e3 1b c5 fe  	bne	a0, a2, 0x1087b8 <__add_fdentry+0x14>
  1087c6: 41 11        	addi	sp, sp, -16
  1087c8: 06 c6        	sw	ra, 12(sp)
  1087ca: ef f0 0f c1  	jal	0x107bda <__errno>
  1087ce: b2 40        	lw	ra, 12(sp)
  1087d0: dd 47        	li	a5, 23
  1087d2: 1c c1        	sw	a5, 0(a0)
  1087d4: 7d 55        	li	a0, -1
  1087d6: 41 01        	addi	sp, sp, 16
  1087d8: 82 80        	ret
  1087da: 93 17 35 00  	slli	a5, a0, 3
  1087de: 3e 98        	add	a6, a6, a5
  1087e0: 23 20 b8 00  	sw	a1, 0(a6)
  1087e4: 23 22 08 00  	sw	zero, 4(a6)
  1087e8: 82 80        	ret

001087ea <__get_fdentry>:
  1087ea: bd 47        	li	a5, 15
  1087ec: 63 ee a7 00  	bltu	a5, a0, 0x108808 <__get_fdentry+0x1e>
  1087f0: 93 17 35 00  	slli	a5, a0, 3
  1087f4: 37 c5 10 00  	lui	a0, 268
  1087f8: 13 05 45 94  	addi	a0, a0, -1724
  1087fc: 3e 95        	add	a0, a0, a5
  1087fe: 18 41        	lw	a4, 0(a0)
  108800: fd 57        	li	a5, -1
  108802: 63 03 f7 00  	beq	a4, a5, 0x108808 <__get_fdentry+0x1e>
  108806: 82 80        	ret
  108808: 41 11        	addi	sp, sp, -16
  10880a: 06 c6        	sw	ra, 12(sp)
  10880c: ef f0 ef bc  	jal	0x107bda <__errno>
  108810: b2 40        	lw	ra, 12(sp)
  108812: a5 47        	li	a5, 9
  108814: 1c c1        	sw	a5, 0(a0)
  108816: 01 45        	li	a0, 0
  108818: 41 01        	addi	sp, sp, 16
  10881a: 82 80        	ret

0010881c <__remove_fdentry>:
  10881c: 93 17 35 00  	slli	a5, a0, 3
  108820: 37 c5 10 00  	lui	a0, 268
  108824: 13 05 45 94  	addi	a0, a0, -1724
  108828: 3e 95        	add	a0, a0, a5
  10882a: fd 57        	li	a5, -1
  10882c: 1c c1        	sw	a5, 0(a0)
  10882e: 82 80        	ret

00108830 <_fstat>:
  108830: 41 11        	addi	sp, sp, -16
  108832: ae 87        	mv	a5, a1
  108834: 22 c4        	sw	s0, 8(sp)
  108836: 81 45        	li	a1, 0
  108838: 2a 84        	mv	s0, a0
  10883a: 13 06 80 05  	li	a2, 88
  10883e: 3e 85        	mv	a0, a5
  108840: 06 c6        	sw	ra, 12(sp)
  108842: ef b0 2f c7  	jal	0x103cb4 <memset>
  108846: aa 85        	mv	a1, a0
  108848: 22 85        	mv	a0, s0
  10884a: 22 44        	lw	s0, 8(sp)
  10884c: b2 40        	lw	ra, 12(sp)
  10884e: 41 01        	addi	sp, sp, 16
  108850: c1 ac        	j	0x108b20 <__stat_common>
		...
  10885e: 00 00        	unimp	

00108860 <_isatty>:
  108860: 01 11        	addi	sp, sp, -32
  108862: 06 ce        	sw	ra, 28(sp)
  108864: ef f0 7f f8  	jal	0x1087ea <__get_fdentry>
  108868: 1d c5        	beqz	a0, 0x108896 <_isatty+0x36>
  10886a: 1c 41        	lw	a5, 0(a0)
  10886c: 6c 00        	addi	a1, sp, 12
  10886e: 25 45        	li	a0, 9
  108870: 3e c6        	sw	a5, 12(sp)
  108872: 01 00        	nop
  108874: 13 00 00 00  	nop
  108878: 13 00 00 00  	nop
  10887c: 13 00 00 00  	nop
  108880: 13 10 f0 01  	slli	zero, zero, 31
  108884: 73 00 10 00  	ebreak	
  108888: 13 50 70 40  	srai	zero, zero, 7
  10888c: 63 47 05 00  	bltz	a0, 0x10889a <_isatty+0x3a>
  108890: f2 40        	lw	ra, 28(sp)
  108892: 05 61        	addi	sp, sp, 32
  108894: 82 80        	ret
  108896: 7d 55        	li	a0, -1
  108898: e5 bf        	j	0x108890 <_isatty+0x30>
  10889a: 4d 45        	li	a0, 19
  10889c: 81 45        	li	a1, 0
  10889e: 01 00        	nop
  1088a0: 13 10 f0 01  	slli	zero, zero, 31
  1088a4: 73 00 10 00  	ebreak	
  1088a8: 13 50 70 40  	srai	zero, zero, 7
  1088ac: b7 c7 10 00  	lui	a5, 268
  1088b0: 23 a6 a7 88  	sw	a0, -1908(a5)
  1088b4: 7d 55        	li	a0, -1
  1088b6: e9 bf        	j	0x108890 <_isatty+0x30>
		...

001088c0 <_lseek>:
  1088c0: 01 11        	addi	sp, sp, -32
  1088c2: 22 cc        	sw	s0, 24(sp)
  1088c4: 26 ca        	sw	s1, 20(sp)
  1088c6: 06 ce        	sw	ra, 28(sp)
  1088c8: 2e 84        	mv	s0, a1
  1088ca: b2 84        	mv	s1, a2
  1088cc: ef f0 ff f1  	jal	0x1087ea <__get_fdentry>
  1088d0: 79 c1        	beqz	a0, 0x108996 <_lseek+0xd6>
  1088d2: 05 47        	li	a4, 1
  1088d4: aa 87        	mv	a5, a0
  1088d6: 63 8a e4 0a  	beq	s1, a4, 0x10898a <_lseek+0xca>
  1088da: 14 41        	lw	a3, 0(a0)
  1088dc: 09 47        	li	a4, 2
  1088de: 36 c4        	sw	a3, 8(sp)
  1088e0: 63 8f e4 04  	beq	s1, a4, 0x10893e <_lseek+0x7e>
  1088e4: 63 43 97 04  	blt	a4, s1, 0x10892a <_lseek+0x6a>
  1088e8: a9 e0        	bnez	s1, 0x10892a <_lseek+0x6a>
  1088ea: 63 40 04 04  	bltz	s0, 0x10892a <_lseek+0x6a>
  1088ee: 22 c6        	sw	s0, 12(sp)
  1088f0: 29 45        	li	a0, 10
  1088f2: 2c 00        	addi	a1, sp, 8
  1088f4: 13 00 00 00  	nop
  1088f8: 13 00 00 00  	nop
  1088fc: 13 00 00 00  	nop
  108900: 13 10 f0 01  	slli	zero, zero, 31
  108904: 73 00 10 00  	ebreak	
  108908: 13 50 70 40  	srai	zero, zero, 7
  10890c: 63 4b 05 04  	bltz	a0, 0x108962 <_lseek+0xa2>
  108910: 11 c5        	beqz	a0, 0x10891c <_lseek+0x5c>
  108912: f2 40        	lw	ra, 28(sp)
  108914: 62 44        	lw	s0, 24(sp)
  108916: d2 44        	lw	s1, 20(sp)
  108918: 05 61        	addi	sp, sp, 32
  10891a: 82 80        	ret
  10891c: f2 40        	lw	ra, 28(sp)
  10891e: c0 c3        	sw	s0, 4(a5)
  108920: 22 85        	mv	a0, s0
  108922: 62 44        	lw	s0, 24(sp)
  108924: d2 44        	lw	s1, 20(sp)
  108926: 05 61        	addi	sp, sp, 32
  108928: 82 80        	ret
  10892a: ef f0 0f ab  	jal	0x107bda <__errno>
  10892e: f2 40        	lw	ra, 28(sp)
  108930: 62 44        	lw	s0, 24(sp)
  108932: d9 47        	li	a5, 22
  108934: 1c c1        	sw	a5, 0(a0)
  108936: d2 44        	lw	s1, 20(sp)
  108938: 7d 55        	li	a0, -1
  10893a: 05 61        	addi	sp, sp, 32
  10893c: 82 80        	ret
  10893e: 02 c6        	sw	zero, 12(sp)
  108940: 31 45        	li	a0, 12
  108942: 2c 00        	addi	a1, sp, 8
  108944: 13 00 00 00  	nop
  108948: 13 00 00 00  	nop
  10894c: 13 00 00 00  	nop
  108950: 13 10 f0 01  	slli	zero, zero, 31
  108954: 73 00 10 00  	ebreak	
  108958: 13 50 70 40  	srai	zero, zero, 7
  10895c: 2a 94        	add	s0, s0, a0
  10895e: e3 56 05 f8  	bgez	a0, 0x1088ea <_lseek+0x2a>
  108962: ef f0 8f a7  	jal	0x107bda <__errno>
  108966: aa 87        	mv	a5, a0
  108968: 81 45        	li	a1, 0
  10896a: 4d 45        	li	a0, 19
  10896c: 13 00 00 00  	nop
  108970: 13 10 f0 01  	slli	zero, zero, 31
  108974: 73 00 10 00  	ebreak	
  108978: 13 50 70 40  	srai	zero, zero, 7
  10897c: f2 40        	lw	ra, 28(sp)
  10897e: 62 44        	lw	s0, 24(sp)
  108980: 88 c3        	sw	a0, 0(a5)
  108982: d2 44        	lw	s1, 20(sp)
  108984: 7d 55        	li	a0, -1
  108986: 05 61        	addi	sp, sp, 32
  108988: 82 80        	ret
  10898a: 48 41        	lw	a0, 4(a0)
  10898c: 59 d0        	beqz	s0, 0x108912 <_lseek+0x52>
  10898e: 98 43        	lw	a4, 0(a5)
  108990: 2a 94        	add	s0, s0, a0
  108992: 3a c4        	sw	a4, 8(sp)
  108994: 99 bf        	j	0x1088ea <_lseek+0x2a>
  108996: ef f0 4f a4  	jal	0x107bda <__errno>
  10899a: a5 47        	li	a5, 9
  10899c: 1c c1        	sw	a5, 0(a0)
  10899e: 7d 55        	li	a0, -1
  1089a0: 8d bf        	j	0x108912 <_lseek+0x52>
		...
  1089ae: 00 00        	unimp	

001089b0 <_open>:
  1089b0: 39 71        	addi	sp, sp, -64
  1089b2: 3e da        	sw	a5, 52(sp)
  1089b4: 06 ce        	sw	ra, 28(sp)
  1089b6: 32 d4        	sw	a2, 40(sp)
  1089b8: 36 d6        	sw	a3, 44(sp)
  1089ba: 3a d8        	sw	a4, 48(sp)
  1089bc: 42 dc        	sw	a6, 56(sp)
  1089be: 46 de        	sw	a7, 60(sp)
  1089c0: 93 f7 35 00  	andi	a5, a1, 3
  1089c4: 85 cf        	beqz	a5, 0x1089fc <_open+0x4c>
  1089c6: 93 f7 15 60  	andi	a5, a1, 1537
  1089ca: 13 07 10 60  	li	a4, 1537
  1089ce: 63 8e e7 04  	beq	a5, a4, 0x108a2a <_open+0x7a>
  1089d2: 93 f7 95 20  	andi	a5, a1, 521
  1089d6: 13 07 90 20  	li	a4, 521
  1089da: 63 8c e7 04  	beq	a5, a4, 0x108a32 <_open+0x82>
  1089de: 93 f7 25 60  	andi	a5, a1, 1538
  1089e2: 13 07 20 60  	li	a4, 1538
  1089e6: 63 84 e7 04  	beq	a5, a4, 0x108a2e <_open+0x7e>
  1089ea: 93 f7 a5 20  	andi	a5, a1, 522
  1089ee: 13 07 a0 20  	li	a4, 522
  1089f2: 63 82 e7 04  	beq	a5, a4, 0x108a36 <_open+0x86>
  1089f6: 89 89        	andi	a1, a1, 2
  1089f8: 89 47        	li	a5, 2
  1089fa: a1 c1        	beqz	a1, 0x108a3a <_open+0x8a>
  1089fc: 2a c2        	sw	a0, 4(sp)
  1089fe: 3e c4        	sw	a5, 8(sp)
  108a00: ef b0 af ad  	jal	0x103cda <strlen>
  108a04: 2a c6        	sw	a0, 12(sp)
  108a06: 4c 00        	addi	a1, sp, 4
  108a08: 05 45        	li	a0, 1
  108a0a: 13 00 00 00  	nop
  108a0e: 01 00        	nop
  108a10: 13 10 f0 01  	slli	zero, zero, 31
  108a14: 73 00 10 00  	ebreak	
  108a18: 13 50 70 40  	srai	zero, zero, 7
  108a1c: 63 45 05 02  	bltz	a0, 0x108a46 <_open+0x96>
  108a20: ef f0 5f d8  	jal	0x1087a4 <__add_fdentry>
  108a24: f2 40        	lw	ra, 28(sp)
  108a26: 21 61        	addi	sp, sp, 64
  108a28: 82 80        	ret
  108a2a: 91 47        	li	a5, 4
  108a2c: c1 bf        	j	0x1089fc <_open+0x4c>
  108a2e: 99 47        	li	a5, 6
  108a30: f1 b7        	j	0x1089fc <_open+0x4c>
  108a32: a1 47        	li	a5, 8
  108a34: e1 b7        	j	0x1089fc <_open+0x4c>
  108a36: a9 47        	li	a5, 10
  108a38: d1 b7        	j	0x1089fc <_open+0x4c>
  108a3a: ef f0 0f 9a  	jal	0x107bda <__errno>
  108a3e: d9 47        	li	a5, 22
  108a40: 1c c1        	sw	a5, 0(a0)
  108a42: 7d 55        	li	a0, -1
  108a44: c5 b7        	j	0x108a24 <_open+0x74>
  108a46: 4d 45        	li	a0, 19
  108a48: 81 45        	li	a1, 0
  108a4a: 13 00 00 00  	nop
  108a4e: 01 00        	nop
  108a50: 13 10 f0 01  	slli	zero, zero, 31
  108a54: 73 00 10 00  	ebreak	
  108a58: 13 50 70 40  	srai	zero, zero, 7
  108a5c: b7 c7 10 00  	lui	a5, 268
  108a60: 23 a6 a7 88  	sw	a0, -1908(a5)
  108a64: 7d 55        	li	a0, -1
  108a66: 7d bf        	j	0x108a24 <_open+0x74>
		...

00108a80 <_read>:
  108a80: 01 11        	addi	sp, sp, -32
  108a82: 22 cc        	sw	s0, 24(sp)
  108a84: 26 ca        	sw	s1, 20(sp)
  108a86: 06 ce        	sw	ra, 28(sp)
  108a88: ae 84        	mv	s1, a1
  108a8a: 32 84        	mv	s0, a2
  108a8c: ef f0 ff d5  	jal	0x1087ea <__get_fdentry>
  108a90: 29 cd        	beqz	a0, 0x108aea <_read+0x6a>
  108a92: 18 41        	lw	a4, 0(a0)
  108a94: aa 87        	mv	a5, a0
  108a96: 26 c4        	sw	s1, 8(sp)
  108a98: 19 45        	li	a0, 6
  108a9a: 3a c2        	sw	a4, 4(sp)
  108a9c: 22 c6        	sw	s0, 12(sp)
  108a9e: 4c 00        	addi	a1, sp, 4
  108aa0: 13 10 f0 01  	slli	zero, zero, 31
  108aa4: 73 00 10 00  	ebreak	
  108aa8: 13 50 70 40  	srai	zero, zero, 7
  108aac: 63 4c 05 00  	bltz	a0, 0x108ac4 <_read+0x44>
  108ab0: d8 43        	lw	a4, 4(a5)
  108ab2: 33 05 a4 40  	sub	a0, s0, a0
  108ab6: 2a 97        	add	a4, a4, a0
  108ab8: d8 c3        	sw	a4, 4(a5)
  108aba: f2 40        	lw	ra, 28(sp)
  108abc: 62 44        	lw	s0, 24(sp)
  108abe: d2 44        	lw	s1, 20(sp)
  108ac0: 05 61        	addi	sp, sp, 32
  108ac2: 82 80        	ret
  108ac4: ef f0 6f 91  	jal	0x107bda <__errno>
  108ac8: aa 87        	mv	a5, a0
  108aca: 81 45        	li	a1, 0
  108acc: 4d 45        	li	a0, 19
  108ace: 01 00        	nop
  108ad0: 13 10 f0 01  	slli	zero, zero, 31
  108ad4: 73 00 10 00  	ebreak	
  108ad8: 13 50 70 40  	srai	zero, zero, 7
  108adc: f2 40        	lw	ra, 28(sp)
  108ade: 62 44        	lw	s0, 24(sp)
  108ae0: 88 c3        	sw	a0, 0(a5)
  108ae2: d2 44        	lw	s1, 20(sp)
  108ae4: 7d 55        	li	a0, -1
  108ae6: 05 61        	addi	sp, sp, 32
  108ae8: 82 80        	ret
  108aea: 7d 55        	li	a0, -1
  108aec: f9 b7        	j	0x108aba <_read+0x3a>

00108aee <_sbrk>:
  108aee: b7 c7 10 00  	lui	a5, 268
  108af2: 93 87 87 89  	addi	a5, a5, -1896
  108af6: 98 43        	lw	a4, 0(a5)
  108af8: 09 c7        	beqz	a4, 0x108b02 <_sbrk+0x14>
  108afa: 3a 95        	add	a0, a0, a4
  108afc: 88 c3        	sw	a0, 0(a5)
  108afe: 3a 85        	mv	a0, a4
  108b00: 82 80        	ret
  108b02: 37 c7 10 00  	lui	a4, 268
  108b06: 13 07 47 9d  	addi	a4, a4, -1580
  108b0a: 3a 95        	add	a0, a0, a4
  108b0c: 88 c3        	sw	a0, 0(a5)
  108b0e: 3a 85        	mv	a0, a4
  108b10: 82 80        	ret
		...
  108b1e: 00 00        	unimp	

00108b20 <__stat_common>:
  108b20: 01 11        	addi	sp, sp, -32
  108b22: 22 cc        	sw	s0, 24(sp)
  108b24: 06 ce        	sw	ra, 28(sp)
  108b26: 2e 84        	mv	s0, a1
  108b28: ef f0 3f cc  	jal	0x1087ea <__get_fdentry>
  108b2c: 21 c1        	beqz	a0, 0x108b6c <__stat_common+0x4c>
  108b2e: 5c 40        	lw	a5, 4(s0)
  108b30: 18 41        	lw	a4, 0(a0)
  108b32: 89 66        	lui	a3, 2
  108b34: d5 8f        	or	a5, a5, a3
  108b36: 5c c0        	sw	a5, 4(s0)
  108b38: 85 67        	lui	a5, 1
  108b3a: 3a c6        	sw	a4, 12(sp)
  108b3c: 3c c4        	sw	a5, 72(s0)
  108b3e: 31 45        	li	a0, 12
  108b40: 6c 00        	addi	a1, sp, 12
  108b42: 01 00        	nop
  108b44: 13 00 00 00  	nop
  108b48: 13 00 00 00  	nop
  108b4c: 13 00 00 00  	nop
  108b50: 13 10 f0 01  	slli	zero, zero, 31
  108b54: 73 00 10 00  	ebreak	
  108b58: 13 50 70 40  	srai	zero, zero, 7
  108b5c: 63 4a 05 00  	bltz	a0, 0x108b70 <__stat_common+0x50>
  108b60: 08 c8        	sw	a0, 16(s0)
  108b62: 01 45        	li	a0, 0
  108b64: f2 40        	lw	ra, 28(sp)
  108b66: 62 44        	lw	s0, 24(sp)
  108b68: 05 61        	addi	sp, sp, 32
  108b6a: 82 80        	ret
  108b6c: 7d 55        	li	a0, -1
  108b6e: dd bf        	j	0x108b64 <__stat_common+0x44>
  108b70: 4d 45        	li	a0, 19
  108b72: 81 45        	li	a1, 0
  108b74: 13 00 00 00  	nop
  108b78: 13 00 00 00  	nop
  108b7c: 13 00 00 00  	nop
  108b80: 13 10 f0 01  	slli	zero, zero, 31
  108b84: 73 00 10 00  	ebreak	
  108b88: 13 50 70 40  	srai	zero, zero, 7
  108b8c: b7 c7 10 00  	lui	a5, 268
  108b90: 23 a6 a7 88  	sw	a0, -1908(a5)
  108b94: 7d 55        	li	a0, -1
  108b96: f9 b7        	j	0x108b64 <__stat_common+0x44>
		...

00108ba0 <_write>:
  108ba0: 01 11        	addi	sp, sp, -32
  108ba2: 22 cc        	sw	s0, 24(sp)
  108ba4: 26 ca        	sw	s1, 20(sp)
  108ba6: 06 ce        	sw	ra, 28(sp)
  108ba8: ae 84        	mv	s1, a1
  108baa: 32 84        	mv	s0, a2
  108bac: ef f0 ff c3  	jal	0x1087ea <__get_fdentry>
  108bb0: 15 c9        	beqz	a0, 0x108be4 <_write+0x44>
  108bb2: 18 41        	lw	a4, 0(a0)
  108bb4: aa 87        	mv	a5, a0
  108bb6: 26 c4        	sw	s1, 8(sp)
  108bb8: 15 45        	li	a0, 5
  108bba: 3a c2        	sw	a4, 4(sp)
  108bbc: 22 c6        	sw	s0, 12(sp)
  108bbe: 4c 00        	addi	a1, sp, 4
  108bc0: 13 10 f0 01  	slli	zero, zero, 31
  108bc4: 73 00 10 00  	ebreak	
  108bc8: 13 50 70 40  	srai	zero, zero, 7
  108bcc: 63 4e 05 00  	bltz	a0, 0x108be8 <_write+0x48>
  108bd0: d8 43        	lw	a4, 4(a5)
  108bd2: 33 05 a4 40  	sub	a0, s0, a0
  108bd6: 2a 97        	add	a4, a4, a0
  108bd8: d8 c3        	sw	a4, 4(a5)
  108bda: f2 40        	lw	ra, 28(sp)
  108bdc: 62 44        	lw	s0, 24(sp)
  108bde: d2 44        	lw	s1, 20(sp)
  108be0: 05 61        	addi	sp, sp, 32
  108be2: 82 80        	ret
  108be4: 7d 55        	li	a0, -1
  108be6: d5 bf        	j	0x108bda <_write+0x3a>
  108be8: 4d 45        	li	a0, 19
  108bea: 81 45        	li	a1, 0
  108bec: 13 00 00 00  	nop
  108bf0: 13 10 f0 01  	slli	zero, zero, 31
  108bf4: 73 00 10 00  	ebreak	
  108bf8: 13 50 70 40  	srai	zero, zero, 7
  108bfc: b7 c7 10 00  	lui	a5, 268
  108c00: 23 a6 a7 88  	sw	a0, -1908(a5)
  108c04: 7d 55        	li	a0, -1
  108c06: d1 bf        	j	0x108bda <_write+0x3a>
		...

00108c14 <__adddf3>:
  108c14: 01 11        	addi	sp, sp, -32
  108c16: 06 ce        	sw	ra, 28(sp)
  108c18: 22 cc        	sw	s0, 24(sp)
  108c1a: 26 ca        	sw	s1, 20(sp)
  108c1c: 4a c8        	sw	s2, 16(sp)
  108c1e: 4e c6        	sw	s3, 12(sp)
  108c20: 52 c4        	sw	s4, 8(sp)
  108c22: f3 29 20 00  	frrm	s3
  108c26: b7 08 10 00  	lui	a7, 256
  108c2a: fd 18        	addi	a7, a7, -1
  108c2c: 33 f7 b8 00  	and	a4, a7, a1
  108c30: 13 d4 45 01  	srli	s0, a1, 20
  108c34: 93 d4 f5 01  	srli	s1, a1, 31
  108c38: 93 d5 46 01  	srli	a1, a3, 20
  108c3c: 93 17 37 00  	slli	a5, a4, 3
  108c40: b3 f8 d8 00  	and	a7, a7, a3
  108c44: 13 57 d5 01  	srli	a4, a0, 29
  108c48: 13 74 f4 7f  	andi	s0, s0, 2047
  108c4c: 93 f5 f5 7f  	andi	a1, a1, 2047
  108c50: 5d 8f        	or	a4, a4, a5
  108c52: 13 d3 f6 01  	srli	t1, a3, 31
  108c56: 93 17 35 00  	slli	a5, a0, 3
  108c5a: 93 56 d6 01  	srli	a3, a2, 29
  108c5e: 8e 08        	slli	a7, a7, 3
  108c60: 33 05 b4 40  	sub	a0, s0, a1
  108c64: 13 18 36 00  	slli	a6, a2, 3
  108c68: b3 e6 16 01  	or	a3, a3, a7
  108c6c: 2a 86        	mv	a2, a0
  108c6e: 63 91 64 34  	bne	s1, t1, 0x108fb0 <__adddf3+0x39c>
  108c72: 63 59 a0 10  	blez	a0, 0x108d84 <__adddf3+0x170>
  108c76: b9 e1        	bnez	a1, 0x108cbc <__adddf3+0xa8>
  108c78: 33 e5 06 01  	or	a0, a3, a6
  108c7c: 11 e5        	bnez	a0, 0x108c88 <__adddf3+0x74>
  108c7e: 93 06 f0 7f  	li	a3, 2047
  108c82: 63 1c d6 2a  	bne	a2, a3, 0x108f3a <__adddf3+0x326>
  108c86: 39 a8        	j	0x108ca4 <__adddf3+0x90>
  108c88: 13 05 f6 ff  	addi	a0, a2, -1
  108c8c: 01 e9        	bnez	a0, 0x108c9c <__adddf3+0x88>
  108c8e: 3e 98        	add	a6, a6, a5
  108c90: ba 96        	add	a3, a3, a4
  108c92: b3 37 f8 00  	sltu	a5, a6, a5
  108c96: be 96        	add	a3, a3, a5
  108c98: 05 46        	li	a2, 1
  108c9a: 59 a0        	j	0x108d20 <__adddf3+0x10c>
  108c9c: 93 08 f0 7f  	li	a7, 2047
  108ca0: 63 11 16 05  	bne	a2, a7, 0x108ce2 <__adddf3+0xce>
  108ca4: b3 66 f7 00  	or	a3, a4, a5
  108ca8: 63 8c 06 6e  	beqz	a3, 0x1093a0 <__adddf3+0x78c>
  108cac: b7 06 40 00  	lui	a3, 1024
  108cb0: f9 8e        	and	a3, a3, a4
  108cb2: 01 44        	li	s0, 0
  108cb4: 63 92 06 20  	bnez	a3, 0x108eb8 <__adddf3+0x2a4>
  108cb8: c1 45        	li	a1, 16
  108cba: fd aa        	j	0x108eb8 <__adddf3+0x2a4>
  108cbc: 13 06 f0 7f  	li	a2, 2047
  108cc0: 63 1e c4 00  	bne	s0, a2, 0x108cdc <__adddf3+0xc8>
  108cc4: b3 66 f7 00  	or	a3, a4, a5
  108cc8: 63 8f 06 6c  	beqz	a3, 0x1093a6 <__adddf3+0x792>
  108ccc: b7 06 40 00  	lui	a3, 1024
  108cd0: f9 8e        	and	a3, a3, a4
  108cd2: 63 85 06 12  	beqz	a3, 0x108dfc <__adddf3+0x1e8>
  108cd6: 13 06 f0 7f  	li	a2, 2047
  108cda: 85 a4        	j	0x108f3a <__adddf3+0x326>
  108cdc: 37 06 80 00  	lui	a2, 2048
  108ce0: d1 8e        	or	a3, a3, a2
  108ce2: 13 06 80 03  	li	a2, 56
  108ce6: 63 4a a6 08  	blt	a2, a0, 0x108d7a <__adddf3+0x166>
  108cea: 7d 46        	li	a2, 31
  108cec: 63 40 a6 06  	blt	a2, a0, 0x108d4c <__adddf3+0x138>
  108cf0: 13 06 00 02  	li	a2, 32
  108cf4: 09 8e        	sub	a2, a2, a0
  108cf6: b3 58 a8 00  	srl	a7, a6, a0
  108cfa: b3 95 c6 00  	sll	a1, a3, a2
  108cfe: 33 18 c8 00  	sll	a6, a6, a2
  108d02: b3 e5 15 01  	or	a1, a1, a7
  108d06: 33 38 00 01  	snez	a6, a6
  108d0a: 33 e8 05 01  	or	a6, a1, a6
  108d0e: 33 d5 a6 00  	srl	a0, a3, a0
  108d12: 3e 98        	add	a6, a6, a5
  108d14: 3a 95        	add	a0, a0, a4
  108d16: b3 37 f8 00  	sltu	a5, a6, a5
  108d1a: b3 06 f5 00  	add	a3, a0, a5
  108d1e: 22 86        	mv	a2, s0
  108d20: b7 07 80 00  	lui	a5, 2048
  108d24: f5 8f        	and	a5, a5, a3
  108d26: b5 cb        	beqz	a5, 0x108d9a <__adddf3+0x186>
  108d28: 05 06        	addi	a2, a2, 1
  108d2a: 93 07 f0 7f  	li	a5, 2047
  108d2e: 63 01 f6 26  	beq	a2, a5, 0x108f90 <__adddf3+0x37c>
  108d32: 37 07 80 ff  	lui	a4, 1046528
  108d36: 7d 17        	addi	a4, a4, -1
  108d38: 93 57 18 00  	srli	a5, a6, 1
  108d3c: 75 8f        	and	a4, a4, a3
  108d3e: 13 78 18 00  	andi	a6, a6, 1
  108d42: 33 e8 07 01  	or	a6, a5, a6
  108d46: 93 17 f7 01  	slli	a5, a4, 31
  108d4a: ed a2        	j	0x108f34 <__adddf3+0x320>
  108d4c: 93 05 05 fe  	addi	a1, a0, -32
  108d50: 93 08 00 02  	li	a7, 32
  108d54: b3 d5 b6 00  	srl	a1, a3, a1
  108d58: 01 46        	li	a2, 0
  108d5a: 63 08 15 01  	beq	a0, a7, 0x108d6a <__adddf3+0x156>
  108d5e: 13 06 00 04  	li	a2, 64
  108d62: 33 05 a6 40  	sub	a0, a2, a0
  108d66: 33 96 a6 00  	sll	a2, a3, a0
  108d6a: 33 68 06 01  	or	a6, a2, a6
  108d6e: 33 38 00 01  	snez	a6, a6
  108d72: 33 e8 05 01  	or	a6, a1, a6
  108d76: 01 45        	li	a0, 0
  108d78: 69 bf        	j	0x108d12 <__adddf3+0xfe>
  108d7a: 33 e8 06 01  	or	a6, a3, a6
  108d7e: 33 38 00 01  	snez	a6, a6
  108d82: d5 bf        	j	0x108d76 <__adddf3+0x162>
  108d84: 7d c9        	beqz	a0, 0x108e7a <__adddf3+0x266>
  108d86: 33 86 85 40  	sub	a2, a1, s0
  108d8a: 21 e8        	bnez	s0, 0x108dda <__adddf3+0x1c6>
  108d8c: 33 65 f7 00  	or	a0, a4, a5
  108d90: 11 e9        	bnez	a0, 0x108da4 <__adddf3+0x190>
  108d92: 93 07 f0 7f  	li	a5, 2047
  108d96: 63 06 f6 02  	beq	a2, a5, 0x108dc2 <__adddf3+0x1ae>
  108d9a: 36 87        	mv	a4, a3
  108d9c: c2 87        	mv	a5, a6
  108d9e: 63 01 06 40  	beqz	a2, 0x1091a0 <__adddf3+0x58c>
  108da2: 61 aa        	j	0x108f3a <__adddf3+0x326>
  108da4: 93 08 f6 ff  	addi	a7, a2, -1
  108da8: 63 99 08 00  	bnez	a7, 0x108dba <__adddf3+0x1a6>
  108dac: c2 97        	add	a5, a5, a6
  108dae: 33 b8 07 01  	sltu	a6, a5, a6
  108db2: ba 96        	add	a3, a3, a4
  108db4: c2 96        	add	a3, a3, a6
  108db6: 3e 88        	mv	a6, a5
  108db8: c5 b5        	j	0x108c98 <__adddf3+0x84>
  108dba: 13 05 f0 7f  	li	a0, 2047
  108dbe: 63 15 a6 04  	bne	a2, a0, 0x108e08 <__adddf3+0x1f4>
  108dc2: b3 e7 06 01  	or	a5, a3, a6
  108dc6: 63 83 07 5e  	beqz	a5, 0x1093ac <__adddf3+0x798>
  108dca: b7 07 40 00  	lui	a5, 1024
  108dce: f5 8f        	and	a5, a5, a3
  108dd0: 36 87        	mv	a4, a3
  108dd2: 63 9f 07 5c  	bnez	a5, 0x1093b0 <__adddf3+0x79c>
  108dd6: c2 87        	mv	a5, a6
  108dd8: c5 b5        	j	0x108cb8 <__adddf3+0xa4>
  108dda: 13 05 f0 7f  	li	a0, 2047
  108dde: 63 91 a5 02  	bne	a1, a0, 0x108e00 <__adddf3+0x1ec>
  108de2: b3 e7 06 01  	or	a5, a3, a6
  108de6: 63 80 07 5a  	beqz	a5, 0x109386 <__adddf3+0x772>
  108dea: b7 07 40 00  	lui	a5, 1024
  108dee: f5 8f        	and	a5, a5, a3
  108df0: 36 87        	mv	a4, a3
  108df2: 63 9f 07 58  	bnez	a5, 0x109390 <__adddf3+0x77c>
  108df6: c2 87        	mv	a5, a6
  108df8: 13 06 f0 7f  	li	a2, 2047
  108dfc: 01 44        	li	s0, 0
  108dfe: 6d bd        	j	0x108cb8 <__adddf3+0xa4>
  108e00: 37 05 80 00  	lui	a0, 2048
  108e04: 49 8f        	or	a4, a4, a0
  108e06: b2 88        	mv	a7, a2
  108e08: 13 06 80 03  	li	a2, 56
  108e0c: 63 43 16 07  	blt	a2, a7, 0x108e72 <__adddf3+0x25e>
  108e10: 7d 46        	li	a2, 31
  108e12: 63 4b 16 03  	blt	a2, a7, 0x108e48 <__adddf3+0x234>
  108e16: 13 05 00 02  	li	a0, 32
  108e1a: 33 05 15 41  	sub	a0, a0, a7
  108e1e: 33 16 a7 00  	sll	a2, a4, a0
  108e22: 33 d3 17 01  	srl	t1, a5, a7
  108e26: b3 97 a7 00  	sll	a5, a5, a0
  108e2a: 33 66 66 00  	or	a2, a2, t1
  108e2e: b3 37 f0 00  	snez	a5, a5
  108e32: d1 8f        	or	a5, a5, a2
  108e34: 33 57 17 01  	srl	a4, a4, a7
  108e38: c2 97        	add	a5, a5, a6
  108e3a: 36 97        	add	a4, a4, a3
  108e3c: b3 b6 07 01  	sltu	a3, a5, a6
  108e40: ba 96        	add	a3, a3, a4
  108e42: 3e 88        	mv	a6, a5
  108e44: 2e 86        	mv	a2, a1
  108e46: e9 bd        	j	0x108d20 <__adddf3+0x10c>
  108e48: 13 86 08 fe  	addi	a2, a7, -32
  108e4c: 13 03 00 02  	li	t1, 32
  108e50: 33 56 c7 00  	srl	a2, a4, a2
  108e54: 01 45        	li	a0, 0
  108e56: 63 88 68 00  	beq	a7, t1, 0x108e66 <__adddf3+0x252>
  108e5a: 13 05 00 04  	li	a0, 64
  108e5e: 33 05 15 41  	sub	a0, a0, a7
  108e62: 33 15 a7 00  	sll	a0, a4, a0
  108e66: c9 8f        	or	a5, a5, a0
  108e68: b3 37 f0 00  	snez	a5, a5
  108e6c: d1 8f        	or	a5, a5, a2
  108e6e: 01 47        	li	a4, 0
  108e70: e1 b7        	j	0x108e38 <__adddf3+0x224>
  108e72: d9 8f        	or	a5, a5, a4
  108e74: b3 37 f0 00  	snez	a5, a5
  108e78: dd bf        	j	0x108e6e <__adddf3+0x25a>
  108e7a: 13 06 14 00  	addi	a2, s0, 1
  108e7e: 13 75 e6 7f  	andi	a0, a2, 2046
  108e82: 41 ed        	bnez	a0, 0x108f1a <__adddf3+0x306>
  108e84: 33 65 f7 00  	or	a0, a4, a5
  108e88: 21 e4        	bnez	s0, 0x108ed0 <__adddf3+0x2bc>
  108e8a: 63 01 05 4c  	beqz	a0, 0x10934c <__adddf3+0x738>
  108e8e: 33 e6 06 01  	or	a2, a3, a6
  108e92: 63 07 06 30  	beqz	a2, 0x1091a0 <__adddf3+0x58c>
  108e96: 3e 98        	add	a6, a6, a5
  108e98: b3 37 f8 00  	sltu	a5, a6, a5
  108e9c: 36 97        	add	a4, a4, a3
  108e9e: 3e 97        	add	a4, a4, a5
  108ea0: b7 07 80 00  	lui	a5, 2048
  108ea4: f9 8f        	and	a5, a5, a4
  108ea6: 63 84 07 4a  	beqz	a5, 0x10934e <__adddf3+0x73a>
  108eaa: b7 07 80 ff  	lui	a5, 1046528
  108eae: fd 17        	addi	a5, a5, -1
  108eb0: 7d 8f        	and	a4, a4, a5
  108eb2: 81 45        	li	a1, 0
  108eb4: c2 87        	mv	a5, a6
  108eb6: 05 46        	li	a2, 1
  108eb8: 93 f6 77 00  	andi	a3, a5, 7
  108ebc: c5 e6        	bnez	a3, 0x108f64 <__adddf3+0x350>
  108ebe: 63 0d 04 56  	beqz	s0, 0x109438 <__adddf3+0x824>
  108ec2: 93 f6 15 00  	andi	a3, a1, 1
  108ec6: 63 89 06 56  	beqz	a3, 0x109438 <__adddf3+0x824>
  108eca: 93 e5 25 00  	ori	a1, a1, 2
  108ece: ad a3        	j	0x109438 <__adddf3+0x824>
  108ed0: 13 06 f0 7f  	li	a2, 2047
  108ed4: 63 1d c4 02  	bne	s0, a2, 0x108f0e <__adddf3+0x2fa>
  108ed8: 63 0f 05 5c  	beqz	a0, 0x1094b6 <__adddf3+0x8a2>
  108edc: 37 06 40 00  	lui	a2, 1024
  108ee0: 79 8e        	and	a2, a2, a4
  108ee2: 13 36 16 00  	seqz	a2, a2
  108ee6: 12 06        	slli	a2, a2, 4
  108ee8: 63 9d 85 52  	bne	a1, s0, 0x109422 <__adddf3+0x80e>
  108eec: b2 85        	mv	a1, a2
  108eee: 33 e6 06 01  	or	a2, a3, a6
  108ef2: 11 c6        	beqz	a2, 0x108efe <__adddf3+0x2ea>
  108ef4: 37 06 40 00  	lui	a2, 1024
  108ef8: 75 8e        	and	a2, a2, a3
  108efa: 11 e2        	bnez	a2, 0x108efe <__adddf3+0x2ea>
  108efc: c1 45        	li	a1, 16
  108efe: 63 13 05 52  	bnez	a0, 0x109424 <__adddf3+0x810>
  108f02: 36 87        	mv	a4, a3
  108f04: c2 87        	mv	a5, a6
  108f06: 01 44        	li	s0, 0
  108f08: 13 06 f0 7f  	li	a2, 2047
  108f0c: 75 b7        	j	0x108eb8 <__adddf3+0x2a4>
  108f0e: 63 94 c5 00  	bne	a1, a2, 0x108f16 <__adddf3+0x302>
  108f12: 81 45        	li	a1, 0
  108f14: e9 bf        	j	0x108eee <__adddf3+0x2da>
  108f16: 81 45        	li	a1, 0
  108f18: dd b7        	j	0x108efe <__adddf3+0x2ea>
  108f1a: 93 05 f0 7f  	li	a1, 2047
  108f1e: 63 00 b6 02  	beq	a2, a1, 0x108f3e <__adddf3+0x32a>
  108f22: 3e 98        	add	a6, a6, a5
  108f24: b3 37 f8 00  	sltu	a5, a6, a5
  108f28: 36 97        	add	a4, a4, a3
  108f2a: 3e 97        	add	a4, a4, a5
  108f2c: 93 17 f7 01  	slli	a5, a4, 31
  108f30: 13 58 18 00  	srli	a6, a6, 1
  108f34: b3 e7 07 01  	or	a5, a5, a6
  108f38: 05 83        	srli	a4, a4, 1
  108f3a: 01 44        	li	s0, 0
  108f3c: 9d a9        	j	0x1093b2 <__adddf3+0x79e>
  108f3e: 63 86 09 00  	beqz	s3, 0x108f4a <__adddf3+0x336>
  108f42: 8d 47        	li	a5, 3
  108f44: 63 96 f9 00  	bne	s3, a5, 0x108f50 <__adddf3+0x33c>
  108f48: 81 e8        	bnez	s1, 0x108f58 <__adddf3+0x344>
  108f4a: 13 06 f0 7f  	li	a2, 2047
  108f4e: 81 a8        	j	0x108f9e <__adddf3+0x38a>
  108f50: 89 47        	li	a5, 2
  108f52: 63 93 f9 00  	bne	s3, a5, 0x108f58 <__adddf3+0x344>
  108f56: f5 f8        	bnez	s1, 0x108f4a <__adddf3+0x336>
  108f58: 01 44        	li	s0, 0
  108f5a: 7d 57        	li	a4, -1
  108f5c: fd 57        	li	a5, -1
  108f5e: 13 06 e0 7f  	li	a2, 2046
  108f62: 95 45        	li	a1, 5
  108f64: 89 46        	li	a3, 2
  108f66: 93 e5 15 00  	ori	a1, a1, 1
  108f6a: 63 85 d9 48  	beq	s3, a3, 0x1093f4 <__adddf3+0x7e0>
  108f6e: 8d 46        	li	a3, 3
  108f70: 63 8e d9 46  	beq	s3, a3, 0x1093ec <__adddf3+0x7d8>
  108f74: 63 91 09 48  	bnez	s3, 0x1093f6 <__adddf3+0x7e2>
  108f78: 93 f6 f7 00  	andi	a3, a5, 15
  108f7c: 11 45        	li	a0, 4
  108f7e: 63 8c a6 46  	beq	a3, a0, 0x1093f6 <__adddf3+0x7e2>
  108f82: 93 86 47 00  	addi	a3, a5, 4
  108f86: b3 b7 f6 00  	sltu	a5, a3, a5
  108f8a: 3e 97        	add	a4, a4, a5
  108f8c: b6 87        	mv	a5, a3
  108f8e: a5 a1        	j	0x1093f6 <__adddf3+0x7e2>
  108f90: 63 87 09 00  	beqz	s3, 0x108f9e <__adddf3+0x38a>
  108f94: 8d 47        	li	a5, 3
  108f96: 63 98 f9 00  	bne	s3, a5, 0x108fa6 <__adddf3+0x392>
  108f9a: 63 9d 04 3e  	bnez	s1, 0x109394 <__adddf3+0x780>
  108f9e: 01 47        	li	a4, 0
  108fa0: 81 47        	li	a5, 0
  108fa2: 95 45        	li	a1, 5
  108fa4: 51 a9        	j	0x109438 <__adddf3+0x824>
  108fa6: 89 47        	li	a5, 2
  108fa8: 63 96 f9 3e  	bne	s3, a5, 0x109394 <__adddf3+0x780>
  108fac: ed f8        	bnez	s1, 0x108f9e <__adddf3+0x38a>
  108fae: 6d b7        	j	0x108f58 <__adddf3+0x344>
  108fb0: 63 56 a0 0c  	blez	a0, 0x10907c <__adddf3+0x468>
  108fb4: c9 e1        	bnez	a1, 0x109036 <__adddf3+0x422>
  108fb6: 33 e5 06 01  	or	a0, a3, a6
  108fba: e3 02 05 cc  	beqz	a0, 0x108c7e <__adddf3+0x6a>
  108fbe: 13 05 f6 ff  	addi	a0, a2, -1
  108fc2: 11 e9        	bnez	a0, 0x108fd6 <__adddf3+0x3c2>
  108fc4: 33 88 07 41  	sub	a6, a5, a6
  108fc8: b3 06 d7 40  	sub	a3, a4, a3
  108fcc: b3 b7 07 01  	sltu	a5, a5, a6
  108fd0: 9d 8e        	sub	a3, a3, a5
  108fd2: 05 46        	li	a2, 1
  108fd4: a9 a0        	j	0x10901e <__adddf3+0x40a>
  108fd6: 93 08 f0 7f  	li	a7, 2047
  108fda: e3 05 16 cd  	beq	a2, a7, 0x108ca4 <__adddf3+0x90>
  108fde: 13 06 80 03  	li	a2, 56
  108fe2: 63 48 a6 08  	blt	a2, a0, 0x109072 <__adddf3+0x45e>
  108fe6: 7d 46        	li	a2, 31
  108fe8: 63 4f a6 04  	blt	a2, a0, 0x109046 <__adddf3+0x432>
  108fec: 13 06 00 02  	li	a2, 32
  108ff0: 09 8e        	sub	a2, a2, a0
  108ff2: b3 95 c6 00  	sll	a1, a3, a2
  108ff6: b3 58 a8 00  	srl	a7, a6, a0
  108ffa: 33 18 c8 00  	sll	a6, a6, a2
  108ffe: b3 e5 15 01  	or	a1, a1, a7
  109002: 33 38 00 01  	snez	a6, a6
  109006: 33 e8 05 01  	or	a6, a1, a6
  10900a: b3 d6 a6 00  	srl	a3, a3, a0
  10900e: 33 88 07 41  	sub	a6, a5, a6
  109012: b3 06 d7 40  	sub	a3, a4, a3
  109016: b3 b7 07 01  	sltu	a5, a5, a6
  10901a: 9d 8e        	sub	a3, a3, a5
  10901c: 22 86        	mv	a2, s0
  10901e: 37 09 80 00  	lui	s2, 2048
  109022: b3 f7 26 01  	and	a5, a3, s2
  109026: e3 8a 07 d6  	beqz	a5, 0x108d9a <__adddf3+0x186>
  10902a: 7d 19        	addi	s2, s2, -1
  10902c: 33 f9 26 01  	and	s2, a3, s2
  109030: 42 8a        	mv	s4, a6
  109032: 32 84        	mv	s0, a2
  109034: b5 a4        	j	0x1092a0 <__adddf3+0x68c>
  109036: 13 06 f0 7f  	li	a2, 2047
  10903a: e3 05 c4 c8  	beq	s0, a2, 0x108cc4 <__adddf3+0xb0>
  10903e: 37 06 80 00  	lui	a2, 2048
  109042: d1 8e        	or	a3, a3, a2
  109044: 69 bf        	j	0x108fde <__adddf3+0x3ca>
  109046: 93 05 05 fe  	addi	a1, a0, -32
  10904a: 93 08 00 02  	li	a7, 32
  10904e: b3 d5 b6 00  	srl	a1, a3, a1
  109052: 01 46        	li	a2, 0
  109054: 63 07 15 01  	beq	a0, a7, 0x109062 <__adddf3+0x44e>
  109058: 13 06 00 04  	li	a2, 64
  10905c: 09 8e        	sub	a2, a2, a0
  10905e: 33 96 c6 00  	sll	a2, a3, a2
  109062: 33 68 06 01  	or	a6, a2, a6
  109066: 33 38 00 01  	snez	a6, a6
  10906a: 33 e8 05 01  	or	a6, a1, a6
  10906e: 81 46        	li	a3, 0
  109070: 79 bf        	j	0x10900e <__adddf3+0x3fa>
  109072: 33 e8 06 01  	or	a6, a3, a6
  109076: 33 38 00 01  	snez	a6, a6
  10907a: d5 bf        	j	0x10906e <__adddf3+0x45a>
  10907c: 75 cd        	beqz	a0, 0x109178 <__adddf3+0x564>
  10907e: 33 86 85 40  	sub	a2, a1, s0
  109082: 39 e4        	bnez	s0, 0x1090d0 <__adddf3+0x4bc>
  109084: 33 65 f7 00  	or	a0, a4, a5
  109088: 09 e5        	bnez	a0, 0x109092 <__adddf3+0x47e>
  10908a: 93 07 f0 7f  	li	a5, 2047
  10908e: 9a 84        	mv	s1, t1
  109090: 19 b3        	j	0x108d96 <__adddf3+0x182>
  109092: 93 08 f6 ff  	addi	a7, a2, -1
  109096: 63 9c 08 00  	bnez	a7, 0x1090ae <__adddf3+0x49a>
  10909a: b3 07 f8 40  	sub	a5, a6, a5
  10909e: 33 38 f8 00  	sltu	a6, a6, a5
  1090a2: 99 8e        	sub	a3, a3, a4
  1090a4: b3 86 06 41  	sub	a3, a3, a6
  1090a8: 9a 84        	mv	s1, t1
  1090aa: 3e 88        	mv	a6, a5
  1090ac: 1d b7        	j	0x108fd2 <__adddf3+0x3be>
  1090ae: 13 05 f0 7f  	li	a0, 2047
  1090b2: 63 16 a6 04  	bne	a2, a0, 0x1090fe <__adddf3+0x4ea>
  1090b6: b3 e7 06 01  	or	a5, a3, a6
  1090ba: 63 8e 07 2e  	beqz	a5, 0x1093b6 <__adddf3+0x7a2>
  1090be: b7 07 40 00  	lui	a5, 1024
  1090c2: f5 8f        	and	a5, a5, a3
  1090c4: 36 87        	mv	a4, a3
  1090c6: 63 9b 07 2e  	bnez	a5, 0x1093bc <__adddf3+0x7a8>
  1090ca: c2 87        	mv	a5, a6
  1090cc: 9a 84        	mv	s1, t1
  1090ce: ed b6        	j	0x108cb8 <__adddf3+0xa4>
  1090d0: 13 05 f0 7f  	li	a0, 2047
  1090d4: 63 91 a5 02  	bne	a1, a0, 0x1090f6 <__adddf3+0x4e2>
  1090d8: b3 e7 06 01  	or	a5, a3, a6
  1090dc: 63 83 07 2e  	beqz	a5, 0x1093c2 <__adddf3+0x7ae>
  1090e0: b7 07 40 00  	lui	a5, 1024
  1090e4: f5 8f        	and	a5, a5, a3
  1090e6: 36 87        	mv	a4, a3
  1090e8: 63 91 07 2e  	bnez	a5, 0x1093ca <__adddf3+0x7b6>
  1090ec: c2 87        	mv	a5, a6
  1090ee: 13 06 f0 7f  	li	a2, 2047
  1090f2: 9a 84        	mv	s1, t1
  1090f4: 21 b3        	j	0x108dfc <__adddf3+0x1e8>
  1090f6: 37 05 80 00  	lui	a0, 2048
  1090fa: 49 8f        	or	a4, a4, a0
  1090fc: b2 88        	mv	a7, a2
  1090fe: 13 06 80 03  	li	a2, 56
  109102: 63 47 16 07  	blt	a2, a7, 0x109170 <__adddf3+0x55c>
  109106: 7d 46        	li	a2, 31
  109108: 63 4f 16 03  	blt	a2, a7, 0x109146 <__adddf3+0x532>
  10910c: 13 05 00 02  	li	a0, 32
  109110: 33 05 15 41  	sub	a0, a0, a7
  109114: 33 16 a7 00  	sll	a2, a4, a0
  109118: 33 de 17 01  	srl	t3, a5, a7
  10911c: b3 97 a7 00  	sll	a5, a5, a0
  109120: 33 66 c6 01  	or	a2, a2, t3
  109124: b3 37 f0 00  	snez	a5, a5
  109128: d1 8f        	or	a5, a5, a2
  10912a: 33 57 17 01  	srl	a4, a4, a7
  10912e: b3 07 f8 40  	sub	a5, a6, a5
  109132: 33 87 e6 40  	sub	a4, a3, a4
  109136: b3 36 f8 00  	sltu	a3, a6, a5
  10913a: b3 06 d7 40  	sub	a3, a4, a3
  10913e: 3e 88        	mv	a6, a5
  109140: 2e 86        	mv	a2, a1
  109142: 9a 84        	mv	s1, t1
  109144: e9 bd        	j	0x10901e <__adddf3+0x40a>
  109146: 13 86 08 fe  	addi	a2, a7, -32
  10914a: 13 0e 00 02  	li	t3, 32
  10914e: 33 56 c7 00  	srl	a2, a4, a2
  109152: 01 45        	li	a0, 0
  109154: 63 88 c8 01  	beq	a7, t3, 0x109164 <__adddf3+0x550>
  109158: 13 05 00 04  	li	a0, 64
  10915c: 33 05 15 41  	sub	a0, a0, a7
  109160: 33 15 a7 00  	sll	a0, a4, a0
  109164: c9 8f        	or	a5, a5, a0
  109166: b3 37 f0 00  	snez	a5, a5
  10916a: d1 8f        	or	a5, a5, a2
  10916c: 01 47        	li	a4, 0
  10916e: c1 b7        	j	0x10912e <__adddf3+0x51a>
  109170: d9 8f        	or	a5, a5, a4
  109172: b3 37 f0 00  	snez	a5, a5
  109176: dd bf        	j	0x10916c <__adddf3+0x558>
  109178: 13 06 14 00  	addi	a2, s0, 1
  10917c: 13 76 e6 7f  	andi	a2, a2, 2046
  109180: 7d ea        	bnez	a2, 0x109276 <__adddf3+0x662>
  109182: b3 68 f7 00  	or	a7, a4, a5
  109186: 33 e5 06 01  	or	a0, a3, a6
  10918a: 5d e0        	bnez	s0, 0x109230 <__adddf3+0x61c>
  10918c: 63 92 08 06  	bnez	a7, 0x1091f0 <__adddf3+0x5dc>
  109190: 63 11 05 1c  	bnez	a0, 0x109352 <__adddf3+0x73e>
  109194: 93 84 e9 ff  	addi	s1, s3, -2
  109198: 93 b4 14 00  	seqz	s1, s1
  10919c: 01 47        	li	a4, 0
  10919e: 81 47        	li	a5, 0
  1091a0: b3 e6 e7 00  	or	a3, a5, a4
  1091a4: 63 80 06 24  	beqz	a3, 0x1093e4 <__adddf3+0x7d0>
  1091a8: 93 d6 f7 01  	srli	a3, a5, 31
  1091ac: 13 14 17 00  	slli	s0, a4, 1
  1091b0: 36 94        	add	s0, s0, a3
  1091b2: 93 96 17 00  	slli	a3, a5, 1
  1091b6: 13 f6 76 00  	andi	a2, a3, 7
  1091ba: 81 45        	li	a1, 0
  1091bc: 05 c6        	beqz	a2, 0x1091e4 <__adddf3+0x5d0>
  1091be: 09 46        	li	a2, 2
  1091c0: 63 89 c9 1a  	beq	s3, a2, 0x109372 <__adddf3+0x75e>
  1091c4: 0d 46        	li	a2, 3
  1091c6: 63 8c c9 18  	beq	s3, a2, 0x10935e <__adddf3+0x74a>
  1091ca: 85 45        	li	a1, 1
  1091cc: 63 9c 09 00  	bnez	s3, 0x1091e4 <__adddf3+0x5d0>
  1091d0: 13 f6 f6 00  	andi	a2, a3, 15
  1091d4: 11 45        	li	a0, 4
  1091d6: 63 07 a6 00  	beq	a2, a0, 0x1091e4 <__adddf3+0x5d0>
  1091da: 93 b6 c6 ff  	sltiu	a3, a3, -4
  1091de: 93 c6 16 00  	xori	a3, a3, 1
  1091e2: 36 94        	add	s0, s0, a3
  1091e4: 61 80        	srli	s0, s0, 24
  1091e6: 13 44 14 00  	xori	s0, s0, 1
  1091ea: 05 88        	andi	s0, s0, 1
  1091ec: 01 46        	li	a2, 0
  1091ee: e9 b1        	j	0x108eb8 <__adddf3+0x2a4>
  1091f0: 45 d9        	beqz	a0, 0x1091a0 <__adddf3+0x58c>
  1091f2: b3 85 07 41  	sub	a1, a5, a6
  1091f6: 33 b5 b7 00  	sltu	a0, a5, a1
  1091fa: 33 06 d7 40  	sub	a2, a4, a3
  1091fe: 09 8e        	sub	a2, a2, a0
  109200: 37 05 80 00  	lui	a0, 2048
  109204: 71 8d        	and	a0, a0, a2
  109206: 19 c9        	beqz	a0, 0x10921c <__adddf3+0x608>
  109208: b3 07 f8 40  	sub	a5, a6, a5
  10920c: 33 87 e6 40  	sub	a4, a3, a4
  109210: 33 38 f8 00  	sltu	a6, a6, a5
  109214: 33 07 07 41  	sub	a4, a4, a6
  109218: 9a 84        	mv	s1, t1
  10921a: 59 b7        	j	0x1091a0 <__adddf3+0x58c>
  10921c: b3 e7 c5 00  	or	a5, a1, a2
  109220: 63 9c 07 12  	bnez	a5, 0x109358 <__adddf3+0x744>
  109224: 93 84 e9 ff  	addi	s1, s3, -2
  109228: 93 b4 14 00  	seqz	s1, s1
  10922c: 01 47        	li	a4, 0
  10922e: 8d bf        	j	0x1091a0 <__adddf3+0x58c>
  109230: 13 06 f0 7f  	li	a2, 2047
  109234: 63 1e c4 00  	bne	s0, a2, 0x109250 <__adddf3+0x63c>
  109238: 63 87 08 26  	beqz	a7, 0x1094a6 <__adddf3+0x892>
  10923c: 37 06 40 00  	lui	a2, 1024
  109240: 79 8e        	and	a2, a2, a4
  109242: 13 36 16 00  	seqz	a2, a2
  109246: 12 06        	slli	a2, a2, 4
  109248: 63 93 85 26  	bne	a1, s0, 0x1094ae <__adddf3+0x89a>
  10924c: b2 85        	mv	a1, a2
  10924e: 21 a0        	j	0x109256 <__adddf3+0x642>
  109250: 63 91 c5 02  	bne	a1, a2, 0x109272 <__adddf3+0x65e>
  109254: 81 45        	li	a1, 0
  109256: 11 c5        	beqz	a0, 0x109262 <__adddf3+0x64e>
  109258: 37 06 40 00  	lui	a2, 1024
  10925c: 75 8e        	and	a2, a2, a3
  10925e: 11 e2        	bnez	a2, 0x109262 <__adddf3+0x64e>
  109260: c1 45        	li	a1, 16
  109262: 63 97 08 24  	bnez	a7, 0x1094b0 <__adddf3+0x89c>
  109266: 63 07 05 16  	beqz	a0, 0x1093d4 <__adddf3+0x7c0>
  10926a: 36 87        	mv	a4, a3
  10926c: c2 87        	mv	a5, a6
  10926e: 9a 84        	mv	s1, t1
  109270: 59 b9        	j	0x108f06 <__adddf3+0x2f2>
  109272: 81 45        	li	a1, 0
  109274: fd b7        	j	0x109262 <__adddf3+0x64e>
  109276: 33 8a 07 41  	sub	s4, a5, a6
  10927a: 33 b6 47 01  	sltu	a2, a5, s4
  10927e: 33 09 d7 40  	sub	s2, a4, a3
  109282: 33 09 c9 40  	sub	s2, s2, a2
  109286: 37 06 80 00  	lui	a2, 2048
  10928a: 33 76 c9 00  	and	a2, s2, a2
  10928e: 2d c6        	beqz	a2, 0x1092f8 <__adddf3+0x6e4>
  109290: 33 0a f8 40  	sub	s4, a6, a5
  109294: 99 8e        	sub	a3, a3, a4
  109296: 33 38 48 01  	sltu	a6, a6, s4
  10929a: 33 89 06 41  	sub	s2, a3, a6
  10929e: 9a 84        	mv	s1, t1
  1092a0: 63 00 09 06  	beqz	s2, 0x109300 <__adddf3+0x6ec>
  1092a4: 4a 85        	mv	a0, s2
  1092a6: ef 20 40 5a  	jal	0x10b84a <__clzsi2>
  1092aa: 13 06 85 ff  	addi	a2, a0, -8
  1092ae: fd 47        	li	a5, 31
  1092b0: 63 ce c7 04  	blt	a5, a2, 0x10930c <__adddf3+0x6f8>
  1092b4: 93 06 00 02  	li	a3, 32
  1092b8: 91 8e        	sub	a3, a3, a2
  1092ba: 33 17 c9 00  	sll	a4, s2, a2
  1092be: b3 56 da 00  	srl	a3, s4, a3
  1092c2: d9 8e        	or	a3, a3, a4
  1092c4: 33 18 ca 00  	sll	a6, s4, a2
  1092c8: 63 4b 86 06  	blt	a2, s0, 0x10933e <__adddf3+0x72a>
  1092cc: 01 8e        	sub	a2, a2, s0
  1092ce: 13 07 16 00  	addi	a4, a2, 1
  1092d2: fd 47        	li	a5, 31
  1092d4: 63 c2 e7 04  	blt	a5, a4, 0x109318 <__adddf3+0x704>
  1092d8: 13 06 00 02  	li	a2, 32
  1092dc: 19 8e        	sub	a2, a2, a4
  1092de: b3 97 c6 00  	sll	a5, a3, a2
  1092e2: 33 55 e8 00  	srl	a0, a6, a4
  1092e6: 33 16 c8 00  	sll	a2, a6, a2
  1092ea: c9 8f        	or	a5, a5, a0
  1092ec: 33 36 c0 00  	snez	a2, a2
  1092f0: d1 8f        	or	a5, a5, a2
  1092f2: 33 d7 e6 00  	srl	a4, a3, a4
  1092f6: 6d b5        	j	0x1091a0 <__adddf3+0x58c>
  1092f8: b3 67 2a 01  	or	a5, s4, s2
  1092fc: d5 f3        	bnez	a5, 0x1092a0 <__adddf3+0x68c>
  1092fe: 1d b7        	j	0x109224 <__adddf3+0x610>
  109300: 52 85        	mv	a0, s4
  109302: ef 20 80 54  	jal	0x10b84a <__clzsi2>
  109306: 13 05 05 02  	addi	a0, a0, 32
  10930a: 45 b7        	j	0x1092aa <__adddf3+0x696>
  10930c: 93 06 85 fd  	addi	a3, a0, -40
  109310: b3 16 da 00  	sll	a3, s4, a3
  109314: 01 48        	li	a6, 0
  109316: 4d bf        	j	0x1092c8 <__adddf3+0x6b4>
  109318: 05 16        	addi	a2, a2, -31
  10931a: 93 05 00 02  	li	a1, 32
  10931e: 33 d6 c6 00  	srl	a2, a3, a2
  109322: 81 47        	li	a5, 0
  109324: 63 07 b7 00  	beq	a4, a1, 0x109332 <__adddf3+0x71e>
  109328: 93 07 00 04  	li	a5, 64
  10932c: 99 8f        	sub	a5, a5, a4
  10932e: b3 97 f6 00  	sll	a5, a3, a5
  109332: b3 67 f8 00  	or	a5, a6, a5
  109336: b3 37 f0 00  	snez	a5, a5
  10933a: d1 8f        	or	a5, a5, a2
  10933c: c5 bd        	j	0x10922c <__adddf3+0x618>
  10933e: b7 07 80 ff  	lui	a5, 1046528
  109342: fd 17        	addi	a5, a5, -1
  109344: 33 06 c4 40  	sub	a2, s0, a2
  109348: fd 8e        	and	a3, a3, a5
  10934a: 81 bc        	j	0x108d9a <__adddf3+0x186>
  10934c: 36 87        	mv	a4, a3
  10934e: c2 87        	mv	a5, a6
  109350: 81 bd        	j	0x1091a0 <__adddf3+0x58c>
  109352: 36 87        	mv	a4, a3
  109354: c2 87        	mv	a5, a6
  109356: c9 b5        	j	0x109218 <__adddf3+0x604>
  109358: 32 87        	mv	a4, a2
  10935a: ae 87        	mv	a5, a1
  10935c: 91 b5        	j	0x1091a0 <__adddf3+0x58c>
  10935e: a6 85        	mv	a1, s1
  109360: e3 92 04 e8  	bnez	s1, 0x1091e4 <__adddf3+0x5d0>
  109364: 93 b6 86 ff  	sltiu	a3, a3, -8
  109368: 93 c6 16 00  	xori	a3, a3, 1
  10936c: 36 94        	add	s0, s0, a3
  10936e: 85 45        	li	a1, 1
  109370: 95 bd        	j	0x1091e4 <__adddf3+0x5d0>
  109372: 85 45        	li	a1, 1
  109374: e3 88 04 e6  	beqz	s1, 0x1091e4 <__adddf3+0x5d0>
  109378: 93 b6 86 ff  	sltiu	a3, a3, -8
  10937c: 93 c6 16 00  	xori	a3, a3, 1
  109380: 36 94        	add	s0, s0, a3
  109382: a6 85        	mv	a1, s1
  109384: 85 b5        	j	0x1091e4 <__adddf3+0x5d0>
  109386: 01 47        	li	a4, 0
  109388: 13 06 f0 7f  	li	a2, 2047
  10938c: 81 45        	li	a1, 0
  10938e: 6d a0        	j	0x109438 <__adddf3+0x824>
  109390: c2 87        	mv	a5, a6
  109392: 91 b2        	j	0x108cd6 <__adddf3+0xc2>
  109394: 7d 57        	li	a4, -1
  109396: fd 57        	li	a5, -1
  109398: 13 06 e0 7f  	li	a2, 2046
  10939c: 01 44        	li	s0, 0
  10939e: d1 b6        	j	0x108f62 <__adddf3+0x34e>
  1093a0: 01 47        	li	a4, 0
  1093a2: 81 47        	li	a5, 0
  1093a4: 51 a8        	j	0x109438 <__adddf3+0x824>
  1093a6: 01 47        	li	a4, 0
  1093a8: 81 47        	li	a5, 0
  1093aa: f9 bf        	j	0x109388 <__adddf3+0x774>
  1093ac: 01 47        	li	a4, 0
  1093ae: f9 bf        	j	0x10938c <__adddf3+0x778>
  1093b0: c2 87        	mv	a5, a6
  1093b2: 81 45        	li	a1, 0
  1093b4: 11 b6        	j	0x108eb8 <__adddf3+0x2a4>
  1093b6: 01 47        	li	a4, 0
  1093b8: 9a 84        	mv	s1, t1
  1093ba: c9 bf        	j	0x10938c <__adddf3+0x778>
  1093bc: c2 87        	mv	a5, a6
  1093be: 9a 84        	mv	s1, t1
  1093c0: cd bf        	j	0x1093b2 <__adddf3+0x79e>
  1093c2: 01 47        	li	a4, 0
  1093c4: 13 06 f0 7f  	li	a2, 2047
  1093c8: c5 bf        	j	0x1093b8 <__adddf3+0x7a4>
  1093ca: c2 87        	mv	a5, a6
  1093cc: 13 06 f0 7f  	li	a2, 2047
  1093d0: 9a 84        	mv	s1, t1
  1093d2: a5 b6        	j	0x108f3a <__adddf3+0x326>
  1093d4: 81 47        	li	a5, 0
  1093d6: 81 44        	li	s1, 0
  1093d8: 37 07 40 00  	lui	a4, 1024
  1093dc: 13 06 f0 7f  	li	a2, 2047
  1093e0: c1 45        	li	a1, 16
  1093e2: 99 a8        	j	0x109438 <__adddf3+0x824>
  1093e4: 01 47        	li	a4, 0
  1093e6: 81 47        	li	a5, 0
  1093e8: 01 46        	li	a2, 0
  1093ea: 4d b7        	j	0x10938c <__adddf3+0x778>
  1093ec: 89 e4        	bnez	s1, 0x1093f6 <__adddf3+0x7e2>
  1093ee: 93 86 87 00  	addi	a3, a5, 8
  1093f2: 51 be        	j	0x108f86 <__adddf3+0x372>
  1093f4: ed fc        	bnez	s1, 0x1093ee <__adddf3+0x7da>
  1093f6: e3 1a 04 ac  	bnez	s0, 0x108eca <__adddf3+0x2b6>
  1093fa: 3d a8        	j	0x109438 <__adddf3+0x824>
  1093fc: 81 47        	li	a5, 0
  1093fe: 63 8e 09 00  	beqz	s3, 0x10941a <__adddf3+0x806>
  109402: 0d 47        	li	a4, 3
  109404: 63 97 e9 00  	bne	s3, a4, 0x109412 <__adddf3+0x7fe>
  109408: 89 c8        	beqz	s1, 0x10941a <__adddf3+0x806>
  10940a: fd 57        	li	a5, -1
  10940c: 13 06 e0 7f  	li	a2, 2046
  109410: 29 a0        	j	0x10941a <__adddf3+0x806>
  109412: 09 47        	li	a4, 2
  109414: e3 9b e9 fe  	bne	s3, a4, 0x10940a <__adddf3+0x7f6>
  109418: ed d8        	beqz	s1, 0x10940a <__adddf3+0x7f6>
  10941a: 93 e5 55 00  	ori	a1, a1, 5
  10941e: 3e 87        	mv	a4, a5
  109420: 0d a8        	j	0x109452 <__adddf3+0x83e>
  109422: b2 85        	mv	a1, a2
  109424: b3 e6 06 01  	or	a3, a3, a6
  109428: e3 8f 06 ac  	beqz	a3, 0x108f06 <__adddf3+0x2f2>
  10942c: 81 44        	li	s1, 0
  10942e: 37 07 40 00  	lui	a4, 1024
  109432: 81 47        	li	a5, 0
  109434: 13 06 f0 7f  	li	a2, 2047
  109438: b7 06 80 00  	lui	a3, 2048
  10943c: f9 8e        	and	a3, a3, a4
  10943e: 91 ca        	beqz	a3, 0x109452 <__adddf3+0x83e>
  109440: 05 06        	addi	a2, a2, 1
  109442: 93 06 f0 7f  	li	a3, 2047
  109446: e3 0b d6 fa  	beq	a2, a3, 0x1093fc <__adddf3+0x7e8>
  10944a: b7 06 80 ff  	lui	a3, 1046528
  10944e: fd 16        	addi	a3, a3, -1
  109450: 75 8f        	and	a4, a4, a3
  109452: 13 d5 37 00  	srli	a0, a5, 3
  109456: 93 06 f0 7f  	li	a3, 2047
  10945a: 93 17 d7 01  	slli	a5, a4, 29
  10945e: c9 8f        	or	a5, a5, a0
  109460: 0d 83        	srli	a4, a4, 3
  109462: 63 19 d6 00  	bne	a2, a3, 0x109474 <__adddf3+0x860>
  109466: d9 8f        	or	a5, a5, a4
  109468: 01 47        	li	a4, 0
  10946a: 89 c7        	beqz	a5, 0x109474 <__adddf3+0x860>
  10946c: 37 07 08 00  	lui	a4, 128
  109470: 81 47        	li	a5, 0
  109472: 81 44        	li	s1, 0
  109474: b7 06 f0 7f  	lui	a3, 524032
  109478: 52 06        	slli	a2, a2, 20
  10947a: 32 07        	slli	a4, a4, 12
  10947c: 75 8e        	and	a2, a2, a3
  10947e: 31 83        	srli	a4, a4, 12
  109480: 51 8f        	or	a4, a4, a2
  109482: fe 04        	slli	s1, s1, 31
  109484: b3 66 97 00  	or	a3, a4, s1
  109488: 3e 87        	mv	a4, a5
  10948a: b6 87        	mv	a5, a3
  10948c: 99 c1        	beqz	a1, 0x109492 <__adddf3+0x87e>
  10948e: 73 a0 15 00  	csrs	fflags, a1
  109492: f2 40        	lw	ra, 28(sp)
  109494: 62 44        	lw	s0, 24(sp)
  109496: d2 44        	lw	s1, 20(sp)
  109498: 42 49        	lw	s2, 16(sp)
  10949a: b2 49        	lw	s3, 12(sp)
  10949c: 22 4a        	lw	s4, 8(sp)
  10949e: 3a 85        	mv	a0, a4
  1094a0: be 85        	mv	a1, a5
  1094a2: 05 61        	addi	sp, sp, 32
  1094a4: 82 80        	ret
  1094a6: e3 87 85 da  	beq	a1, s0, 0x109254 <__adddf3+0x640>
  1094aa: 81 45        	li	a1, 0
  1094ac: 6d bb        	j	0x109266 <__adddf3+0x652>
  1094ae: b2 85        	mv	a1, a2
  1094b0: e3 0b 05 a4  	beqz	a0, 0x108f06 <__adddf3+0x2f2>
  1094b4: a5 bf        	j	0x10942c <__adddf3+0x818>
  1094b6: e3 8e 85 a4  	beq	a1, s0, 0x108f12 <__adddf3+0x2fe>
  1094ba: 81 45        	li	a1, 0
  1094bc: 99 b4        	j	0x108f02 <__adddf3+0x2ee>

001094be <__divdf3>:
  1094be: 79 71        	addi	sp, sp, -48
  1094c0: 22 d4        	sw	s0, 40(sp)
  1094c2: 56 ca        	sw	s5, 20(sp)
  1094c4: 66 c2        	sw	s9, 4(sp)
  1094c6: 06 d6        	sw	ra, 44(sp)
  1094c8: 26 d2        	sw	s1, 36(sp)
  1094ca: 4a d0        	sw	s2, 32(sp)
  1094cc: 4e ce        	sw	s3, 28(sp)
  1094ce: 52 cc        	sw	s4, 24(sp)
  1094d0: 5a c8        	sw	s6, 16(sp)
  1094d2: 5e c6        	sw	s7, 12(sp)
  1094d4: 62 c4        	sw	s8, 8(sp)
  1094d6: 2a 84        	mv	s0, a0
  1094d8: b2 8c        	mv	s9, a2
  1094da: b6 8a        	mv	s5, a3
  1094dc: 73 29 20 00  	frrm	s2
  1094e0: 13 db 45 01  	srli	s6, a1, 20
  1094e4: 93 9b c5 00  	slli	s7, a1, 12
  1094e8: 13 7b fb 7f  	andi	s6, s6, 2047
  1094ec: 93 db cb 00  	srli	s7, s7, 12
  1094f0: 13 da f5 01  	srli	s4, a1, 31
  1094f4: 63 06 0b 02  	beqz	s6, 0x109520 <__divdf3+0x62>
  1094f8: 93 07 f0 7f  	li	a5, 2047
  1094fc: 63 0b fb 06  	beq	s6, a5, 0x109572 <__divdf3+0xb4>
  109500: 13 57 d5 01  	srli	a4, a0, 29
  109504: 8e 0b        	slli	s7, s7, 3
  109506: b3 6b 77 01  	or	s7, a4, s7
  10950a: b7 07 80 00  	lui	a5, 2048
  10950e: b3 eb fb 00  	or	s7, s7, a5
  109512: 93 19 35 00  	slli	s3, a0, 3
  109516: 13 0b 1b c0  	addi	s6, s6, -1023
  10951a: 01 4c        	li	s8, 0
  10951c: 81 44        	li	s1, 0
  10951e: bd a0        	j	0x10958c <__divdf3+0xce>
  109520: b3 e7 ab 00  	or	a5, s7, a0
  109524: f1 c3        	beqz	a5, 0x1095e8 <__divdf3+0x12a>
  109526: 63 8b 0b 02  	beqz	s7, 0x10955c <__divdf3+0x9e>
  10952a: 5e 85        	mv	a0, s7
  10952c: ef 20 e0 31  	jal	0x10b84a <__clzsi2>
  109530: 13 07 55 ff  	addi	a4, a0, -11
  109534: f1 47        	li	a5, 28
  109536: 63 c8 e7 02  	blt	a5, a4, 0x109566 <__divdf3+0xa8>
  10953a: f5 46        	li	a3, 29
  10953c: 93 09 85 ff  	addi	s3, a0, -8
  109540: 99 8e        	sub	a3, a3, a4
  109542: b3 9b 3b 01  	sll	s7, s7, s3
  109546: b3 56 d4 00  	srl	a3, s0, a3
  10954a: b3 eb 76 01  	or	s7, a3, s7
  10954e: b3 19 34 01  	sll	s3, s0, s3
  109552: 93 05 d0 c0  	li	a1, -1011
  109556: 33 8b a5 40  	sub	s6, a1, a0
  10955a: c1 b7        	j	0x10951a <__divdf3+0x5c>
  10955c: ef 20 e0 2e  	jal	0x10b84a <__clzsi2>
  109560: 13 05 05 02  	addi	a0, a0, 32
  109564: f1 b7        	j	0x109530 <__divdf3+0x72>
  109566: 93 0b 85 fd  	addi	s7, a0, -40
  10956a: b3 1b 74 01  	sll	s7, s0, s7
  10956e: 81 49        	li	s3, 0
  109570: cd b7        	j	0x109552 <__divdf3+0x94>
  109572: 33 e4 ab 00  	or	s0, s7, a0
  109576: 35 cc        	beqz	s0, 0x1095f2 <__divdf3+0x134>
  109578: b7 07 08 00  	lui	a5, 128
  10957c: b3 f7 fb 00  	and	a5, s7, a5
  109580: aa 89        	mv	s3, a0
  109582: 13 0b f0 7f  	li	s6, 2047
  109586: 0d 4c        	li	s8, 3
  109588: c1 44        	li	s1, 16
  10958a: c9 fb        	bnez	a5, 0x10951c <__divdf3+0x5e>
  10958c: 13 95 ca 00  	slli	a0, s5, 12
  109590: 13 54 c5 00  	srli	s0, a0, 12
  109594: 13 d5 4a 01  	srli	a0, s5, 20
  109598: 93 75 f5 7f  	andi	a1, a0, 2047
  10959c: e6 87        	mv	a5, s9
  10959e: 93 da fa 01  	srli	s5, s5, 31
  1095a2: b1 cd        	beqz	a1, 0x1095fe <__divdf3+0x140>
  1095a4: 13 07 f0 7f  	li	a4, 2047
  1095a8: 63 85 e5 0a  	beq	a1, a4, 0x109652 <__divdf3+0x194>
  1095ac: 93 d7 dc 01  	srli	a5, s9, 29
  1095b0: 13 15 34 00  	slli	a0, s0, 3
  1095b4: 5d 8d        	or	a0, a0, a5
  1095b6: 37 04 80 00  	lui	s0, 2048
  1095ba: 49 8c        	or	s0, s0, a0
  1095bc: 93 97 3c 00  	slli	a5, s9, 3
  1095c0: 13 85 15 c0  	addi	a0, a1, -1023
  1095c4: 01 47        	li	a4, 0
  1095c6: 93 16 2c 00  	slli	a3, s8, 2
  1095ca: d9 8e        	or	a3, a3, a4
  1095cc: b3 05 ab 40  	sub	a1, s6, a0
  1095d0: fd 16        	addi	a3, a3, -1
  1095d2: 39 45        	li	a0, 14
  1095d4: 33 46 5a 01  	xor	a2, s4, s5
  1095d8: 63 66 d5 0a  	bltu	a0, a3, 0x109684 <__divdf3+0x1c6>
  1095dc: 8a 06        	slli	a3, a3, 2
  1095de: 13 85 41 12  	addi	a0, gp, 292
  1095e2: aa 96        	add	a3, a3, a0
  1095e4: 94 42        	lw	a3, 0(a3)
  1095e6: 82 86        	jr	a3
  1095e8: 81 4b        	li	s7, 0
  1095ea: 81 49        	li	s3, 0
  1095ec: 01 4b        	li	s6, 0
  1095ee: 05 4c        	li	s8, 1
  1095f0: 35 b7        	j	0x10951c <__divdf3+0x5e>
  1095f2: 81 4b        	li	s7, 0
  1095f4: 81 49        	li	s3, 0
  1095f6: 13 0b f0 7f  	li	s6, 2047
  1095fa: 09 4c        	li	s8, 2
  1095fc: 05 b7        	j	0x10951c <__divdf3+0x5e>
  1095fe: b3 67 94 01  	or	a5, s0, s9
  109602: a5 c7        	beqz	a5, 0x10966a <__divdf3+0x1ac>
  109604: 1d c8        	beqz	s0, 0x10963a <__divdf3+0x17c>
  109606: 22 85        	mv	a0, s0
  109608: ef 20 20 24  	jal	0x10b84a <__clzsi2>
  10960c: aa 85        	mv	a1, a0
  10960e: 93 86 55 ff  	addi	a3, a1, -11
  109612: f1 47        	li	a5, 28
  109614: 63 c9 d7 02  	blt	a5, a3, 0x109646 <__divdf3+0x188>
  109618: 75 47        	li	a4, 29
  10961a: 93 87 85 ff  	addi	a5, a1, -8
  10961e: 15 8f        	sub	a4, a4, a3
  109620: 33 15 f4 00  	sll	a0, s0, a5
  109624: 33 d7 ec 00  	srl	a4, s9, a4
  109628: 33 64 a7 00  	or	s0, a4, a0
  10962c: b3 97 fc 00  	sll	a5, s9, a5
  109630: 13 07 d0 c0  	li	a4, -1011
  109634: 33 05 b7 40  	sub	a0, a4, a1
  109638: 71 b7        	j	0x1095c4 <__divdf3+0x106>
  10963a: 66 85        	mv	a0, s9
  10963c: ef 20 e0 20  	jal	0x10b84a <__clzsi2>
  109640: 93 05 05 02  	addi	a1, a0, 32
  109644: e9 b7        	j	0x10960e <__divdf3+0x150>
  109646: 13 85 85 fd  	addi	a0, a1, -40
  10964a: 33 94 ac 00  	sll	s0, s9, a0
  10964e: 81 47        	li	a5, 0
  109650: c5 b7        	j	0x109630 <__divdf3+0x172>
  109652: 33 66 94 01  	or	a2, s0, s9
  109656: 19 ce        	beqz	a2, 0x109674 <__divdf3+0x1b6>
  109658: 37 07 08 00  	lui	a4, 128
  10965c: 61 8f        	and	a4, a4, s0
  10965e: 13 05 f0 7f  	li	a0, 2047
  109662: 19 ef        	bnez	a4, 0x109680 <__divdf3+0x1c2>
  109664: 0d 47        	li	a4, 3
  109666: c1 44        	li	s1, 16
  109668: b9 bf        	j	0x1095c6 <__divdf3+0x108>
  10966a: 01 44        	li	s0, 0
  10966c: 81 47        	li	a5, 0
  10966e: 01 45        	li	a0, 0
  109670: 05 47        	li	a4, 1
  109672: 91 bf        	j	0x1095c6 <__divdf3+0x108>
  109674: 01 44        	li	s0, 0
  109676: 81 47        	li	a5, 0
  109678: 13 05 f0 7f  	li	a0, 2047
  10967c: 09 47        	li	a4, 2
  10967e: a1 b7        	j	0x1095c6 <__divdf3+0x108>
  109680: 0d 47        	li	a4, 3
  109682: 91 b7        	j	0x1095c6 <__divdf3+0x108>
  109684: 63 66 74 01  	bltu	s0, s7, 0x109690 <__divdf3+0x1d2>
  109688: 63 94 8b 26  	bne	s7, s0, 0x1098f0 <__divdf3+0x432>
  10968c: 63 e2 f9 26  	bltu	s3, a5, 0x1098f0 <__divdf3+0x432>
  109690: 13 95 fb 01  	slli	a0, s7, 31
  109694: 13 d7 19 00  	srli	a4, s3, 1
  109698: 93 96 f9 01  	slli	a3, s3, 31
  10969c: 93 db 1b 00  	srli	s7, s7, 1
  1096a0: b3 69 e5 00  	or	s3, a0, a4
  1096a4: 13 15 84 00  	slli	a0, s0, 8
  1096a8: 13 d8 87 01  	srli	a6, a5, 24
  1096ac: 33 68 a8 00  	or	a6, a6, a0
  1096b0: 41 81        	srli	a0, a0, 16
  1096b2: 33 de ab 02  	divu	t3, s7, a0
  1096b6: 13 1f 08 01  	slli	t5, a6, 16
  1096ba: 13 5f 0f 01  	srli	t5, t5, 16
  1096be: 93 98 87 00  	slli	a7, a5, 8
  1096c2: 93 d7 09 01  	srli	a5, s3, 16
  1096c6: b3 fb ab 02  	remu	s7, s7, a0
  1096ca: 72 83        	mv	t1, t3
  1096cc: 33 07 cf 03  	mul	a4, t5, t3
  1096d0: c2 0b        	slli	s7, s7, 16
  1096d2: b3 e7 77 01  	or	a5, a5, s7
  1096d6: 63 fc e7 00  	bgeu	a5, a4, 0x1096ee <__divdf3+0x230>
  1096da: c2 97        	add	a5, a5, a6
  1096dc: 13 03 fe ff  	addi	t1, t3, -1
  1096e0: 63 e7 07 01  	bltu	a5, a6, 0x1096ee <__divdf3+0x230>
  1096e4: 63 f5 e7 00  	bgeu	a5, a4, 0x1096ee <__divdf3+0x230>
  1096e8: 13 03 ee ff  	addi	t1, t3, -2
  1096ec: c2 97        	add	a5, a5, a6
  1096ee: 99 8f        	sub	a5, a5, a4
  1096f0: b3 de a7 02  	divu	t4, a5, a0
  1096f4: 13 97 09 01  	slli	a4, s3, 16
  1096f8: 41 83        	srli	a4, a4, 16
  1096fa: b3 f7 a7 02  	remu	a5, a5, a0
  1096fe: f6 89        	mv	s3, t4
  109700: 33 0e df 03  	mul	t3, t5, t4
  109704: c2 07        	slli	a5, a5, 16
  109706: 5d 8f        	or	a4, a4, a5
  109708: 63 7c c7 01  	bgeu	a4, t3, 0x109720 <__divdf3+0x262>
  10970c: 42 97        	add	a4, a4, a6
  10970e: 93 89 fe ff  	addi	s3, t4, -1
  109712: 63 67 07 01  	bltu	a4, a6, 0x109720 <__divdf3+0x262>
  109716: 63 75 c7 01  	bgeu	a4, t3, 0x109720 <__divdf3+0x262>
  10971a: 93 89 ee ff  	addi	s3, t4, -2
  10971e: 42 97        	add	a4, a4, a6
  109720: 42 03        	slli	t1, t1, 16
  109722: b3 69 33 01  	or	s3, t1, s3
  109726: 41 63        	lui	t1, 16
  109728: 93 0e f3 ff  	addi	t4, t1, -1
  10972c: 93 d2 09 01  	srli	t0, s3, 16
  109730: 93 df 08 01  	srli	t6, a7, 16
  109734: 33 07 c7 41  	sub	a4, a4, t3
  109738: 33 fe d9 01  	and	t3, s3, t4
  10973c: b3 fe d8 01  	and	t4, a7, t4
  109740: b3 07 de 03  	mul	a5, t3, t4
  109744: 33 84 d2 03  	mul	s0, t0, t4
  109748: 33 8e cf 03  	mul	t3, t6, t3
  10974c: b3 03 8e 00  	add	t2, t3, s0
  109750: 13 de 07 01  	srli	t3, a5, 16
  109754: 1e 9e        	add	t3, t3, t2
  109756: b3 82 f2 03  	mul	t0, t0, t6
  10975a: 63 73 8e 00  	bgeu	t3, s0, 0x109760 <__divdf3+0x2a2>
  10975e: 9a 92        	add	t0, t0, t1
  109760: c1 63        	lui	t2, 16
  109762: 13 53 0e 01  	srli	t1, t3, 16
  109766: fd 13        	addi	t2, t2, -1
  109768: 9a 92        	add	t0, t0, t1
  10976a: 33 73 7e 00  	and	t1, t3, t2
  10976e: 42 03        	slli	t1, t1, 16
  109770: b3 f7 77 00  	and	a5, a5, t2
  109774: 3e 93        	add	t1, t1, a5
  109776: 63 67 57 00  	bltu	a4, t0, 0x109784 <__divdf3+0x2c6>
  10977a: 4e 84        	mv	s0, s3
  10977c: 63 1e 57 02  	bne	a4, t0, 0x1097b8 <__divdf3+0x2fa>
  109780: 63 fc 66 02  	bgeu	a3, t1, 0x1097b8 <__divdf3+0x2fa>
  109784: c6 96        	add	a3, a3, a7
  109786: b3 b7 16 01  	sltu	a5, a3, a7
  10978a: c2 97        	add	a5, a5, a6
  10978c: 3e 97        	add	a4, a4, a5
  10978e: 13 84 f9 ff  	addi	s0, s3, -1
  109792: 63 66 e8 00  	bltu	a6, a4, 0x10979e <__divdf3+0x2e0>
  109796: 63 11 e8 02  	bne	a6, a4, 0x1097b8 <__divdf3+0x2fa>
  10979a: 63 ef 16 01  	bltu	a3, a7, 0x1097b8 <__divdf3+0x2fa>
  10979e: 63 66 57 00  	bltu	a4, t0, 0x1097aa <__divdf3+0x2ec>
  1097a2: 63 9b e2 00  	bne	t0, a4, 0x1097b8 <__divdf3+0x2fa>
  1097a6: 63 f9 66 00  	bgeu	a3, t1, 0x1097b8 <__divdf3+0x2fa>
  1097aa: c6 96        	add	a3, a3, a7
  1097ac: b3 b7 16 01  	sltu	a5, a3, a7
  1097b0: c2 97        	add	a5, a5, a6
  1097b2: 13 84 e9 ff  	addi	s0, s3, -2
  1097b6: 3e 97        	add	a4, a4, a5
  1097b8: 33 83 66 40  	sub	t1, a3, t1
  1097bc: 33 07 57 40  	sub	a4, a4, t0
  1097c0: b3 b6 66 00  	sltu	a3, a3, t1
  1097c4: 15 8f        	sub	a4, a4, a3
  1097c6: fd 57        	li	a5, -1
  1097c8: 63 07 e8 0e  	beq	a6, a4, 0x1098b6 <__divdf3+0x3f8>
  1097cc: b3 52 a7 02  	divu	t0, a4, a0
  1097d0: 93 57 03 01  	srli	a5, t1, 16
  1097d4: 33 77 a7 02  	remu	a4, a4, a0
  1097d8: 96 86        	mv	a3, t0
  1097da: 33 0e 5f 02  	mul	t3, t5, t0
  1097de: 42 07        	slli	a4, a4, 16
  1097e0: 5d 8f        	or	a4, a4, a5
  1097e2: 63 7c c7 01  	bgeu	a4, t3, 0x1097fa <__divdf3+0x33c>
  1097e6: 42 97        	add	a4, a4, a6
  1097e8: 93 86 f2 ff  	addi	a3, t0, -1
  1097ec: 63 67 07 01  	bltu	a4, a6, 0x1097fa <__divdf3+0x33c>
  1097f0: 63 75 c7 01  	bgeu	a4, t3, 0x1097fa <__divdf3+0x33c>
  1097f4: 93 86 e2 ff  	addi	a3, t0, -2
  1097f8: 42 97        	add	a4, a4, a6
  1097fa: 33 07 c7 41  	sub	a4, a4, t3
  1097fe: 33 5e a7 02  	divu	t3, a4, a0
  109802: 93 17 03 01  	slli	a5, t1, 16
  109806: c1 83        	srli	a5, a5, 16
  109808: 33 77 a7 02  	remu	a4, a4, a0
  10980c: 33 0f cf 03  	mul	t5, t5, t3
  109810: 42 07        	slli	a4, a4, 16
  109812: 5d 8f        	or	a4, a4, a5
  109814: f2 87        	mv	a5, t3
  109816: 63 7c e7 01  	bgeu	a4, t5, 0x10982e <__divdf3+0x370>
  10981a: 42 97        	add	a4, a4, a6
  10981c: 93 07 fe ff  	addi	a5, t3, -1
  109820: 63 67 07 01  	bltu	a4, a6, 0x10982e <__divdf3+0x370>
  109824: 63 75 e7 01  	bgeu	a4, t5, 0x10982e <__divdf3+0x370>
  109828: 93 07 ee ff  	addi	a5, t3, -2
  10982c: 42 97        	add	a4, a4, a6
  10982e: c2 06        	slli	a3, a3, 16
  109830: dd 8e        	or	a3, a3, a5
  109832: 93 97 06 01  	slli	a5, a3, 16
  109836: c1 83        	srli	a5, a5, 16
  109838: 13 d3 06 01  	srli	t1, a3, 16
  10983c: 33 8e 6f 02  	mul	t3, t6, t1
  109840: 33 07 e7 41  	sub	a4, a4, t5
  109844: b3 8f ff 02  	mul	t6, t6, a5
  109848: 33 8f fe 02  	mul	t5, t4, a5
  10984c: b3 0e d3 03  	mul	t4, t1, t4
  109850: 93 57 0f 01  	srli	a5, t5, 16
  109854: f6 9f        	add	t6, t6, t4
  109856: fe 97        	add	a5, a5, t6
  109858: 63 f4 d7 01  	bgeu	a5, t4, 0x109860 <__divdf3+0x3a2>
  10985c: 41 65        	lui	a0, 16
  10985e: 2a 9e        	add	t3, t3, a0
  109860: 13 d3 07 01  	srli	t1, a5, 16
  109864: 72 93        	add	t1, t1, t3
  109866: 41 6e        	lui	t3, 16
  109868: 7d 1e        	addi	t3, t3, -1
  10986a: 33 f5 c7 01  	and	a0, a5, t3
  10986e: 42 05        	slli	a0, a0, 16
  109870: 33 7f cf 01  	and	t5, t5, t3
  109874: 7a 95        	add	a0, a0, t5
  109876: 63 66 67 00  	bltu	a4, t1, 0x109882 <__divdf3+0x3c4>
  10987a: 63 12 67 2c  	bne	a4, t1, 0x109b3e <__divdf3+0x680>
  10987e: b6 87        	mv	a5, a3
  109880: 1d c9        	beqz	a0, 0x1098b6 <__divdf3+0x3f8>
  109882: 42 97        	add	a4, a4, a6
  109884: 93 87 f6 ff  	addi	a5, a3, -1
  109888: 63 61 07 03  	bltu	a4, a6, 0x1098aa <__divdf3+0x3ec>
  10988c: 63 66 67 00  	bltu	a4, t1, 0x109898 <__divdf3+0x3da>
  109890: 63 16 67 2a  	bne	a4, t1, 0x109b3c <__divdf3+0x67e>
  109894: 63 fd a8 00  	bgeu	a7, a0, 0x1098ae <__divdf3+0x3f0>
  109898: 93 87 e6 ff  	addi	a5, a3, -2
  10989c: 93 96 18 00  	slli	a3, a7, 1
  1098a0: b3 b8 16 01  	sltu	a7, a3, a7
  1098a4: 46 98        	add	a6, a6, a7
  1098a6: 42 97        	add	a4, a4, a6
  1098a8: b6 88        	mv	a7, a3
  1098aa: 63 14 67 00  	bne	a4, t1, 0x1098b2 <__divdf3+0x3f4>
  1098ae: 63 84 a8 00  	beq	a7, a0, 0x1098b6 <__divdf3+0x3f8>
  1098b2: 93 e7 17 00  	ori	a5, a5, 1
  1098b6: 13 88 f5 3f  	addi	a6, a1, 1023
  1098ba: 63 58 00 11  	blez	a6, 0x1099ca <__divdf3+0x50c>
  1098be: 13 f7 77 00  	andi	a4, a5, 7
  1098c2: 25 cf        	beqz	a4, 0x10993a <__divdf3+0x47c>
  1098c4: 09 47        	li	a4, 2
  1098c6: 93 e4 14 00  	ori	s1, s1, 1
  1098ca: 63 07 e9 06  	beq	s2, a4, 0x109938 <__divdf3+0x47a>
  1098ce: 0d 47        	li	a4, 3
  1098d0: 63 00 e9 06  	beq	s2, a4, 0x109930 <__divdf3+0x472>
  1098d4: 63 13 09 06  	bnez	s2, 0x10993a <__divdf3+0x47c>
  1098d8: 13 f7 f7 00  	andi	a4, a5, 15
  1098dc: 91 46        	li	a3, 4
  1098de: 63 0e d7 04  	beq	a4, a3, 0x10993a <__divdf3+0x47c>
  1098e2: 13 87 47 00  	addi	a4, a5, 4
  1098e6: b3 37 f7 00  	sltu	a5, a4, a5
  1098ea: 3e 94        	add	s0, s0, a5
  1098ec: ba 87        	mv	a5, a4
  1098ee: b1 a0        	j	0x10993a <__divdf3+0x47c>
  1098f0: fd 15        	addi	a1, a1, -1
  1098f2: 81 46        	li	a3, 0
  1098f4: 45 bb        	j	0x1096a4 <__divdf3+0x1e6>
  1098f6: 52 86        	mv	a2, s4
  1098f8: 5e 84        	mv	s0, s7
  1098fa: ce 87        	mv	a5, s3
  1098fc: 62 87        	mv	a4, s8
  1098fe: 8d 46        	li	a3, 3
  109900: 63 07 d7 22  	beq	a4, a3, 0x109b2e <__divdf3+0x670>
  109904: 85 46        	li	a3, 1
  109906: 63 01 d7 22  	beq	a4, a3, 0x109b28 <__divdf3+0x66a>
  10990a: 89 46        	li	a3, 2
  10990c: e3 15 d7 fa  	bne	a4, a3, 0x1098b6 <__divdf3+0x3f8>
  109910: 29 a0        	j	0x10991a <__divdf3+0x45c>
  109912: 56 86        	mv	a2, s5
  109914: ed b7        	j	0x1098fe <__divdf3+0x440>
  109916: 93 e4 84 00  	ori	s1, s1, 8
  10991a: 01 45        	li	a0, 0
  10991c: 81 47        	li	a5, 0
  10991e: 13 07 f0 7f  	li	a4, 2047
  109922: 91 a0        	j	0x109966 <__divdf3+0x4a8>
  109924: 37 04 08 00  	lui	s0, 128
  109928: 81 47        	li	a5, 0
  10992a: 01 46        	li	a2, 0
  10992c: 0d 47        	li	a4, 3
  10992e: c1 bf        	j	0x1098fe <__divdf3+0x440>
  109930: 09 e6        	bnez	a2, 0x10993a <__divdf3+0x47c>
  109932: 13 87 87 00  	addi	a4, a5, 8
  109936: 45 bf        	j	0x1098e6 <__divdf3+0x428>
  109938: 6d fe        	bnez	a2, 0x109932 <__divdf3+0x474>
  10993a: 37 07 00 01  	lui	a4, 4096
  10993e: 61 8f        	and	a4, a4, s0
  109940: 19 c7        	beqz	a4, 0x10994e <__divdf3+0x490>
  109942: 37 07 00 ff  	lui	a4, 1044480
  109946: 7d 17        	addi	a4, a4, -1
  109948: 79 8c        	and	s0, s0, a4
  10994a: 13 88 05 40  	addi	a6, a1, 1024
  10994e: 13 07 e0 7f  	li	a4, 2046
  109952: 63 46 07 05  	blt	a4, a6, 0x10999e <__divdf3+0x4e0>
  109956: 13 d7 37 00  	srli	a4, a5, 3
  10995a: 93 17 d4 01  	slli	a5, s0, 29
  10995e: d9 8f        	or	a5, a5, a4
  109960: 13 55 34 00  	srli	a0, s0, 3
  109964: 42 87        	mv	a4, a6
  109966: 52 07        	slli	a4, a4, 20
  109968: b7 06 f0 7f  	lui	a3, 524032
  10996c: 32 05        	slli	a0, a0, 12
  10996e: 75 8f        	and	a4, a4, a3
  109970: 31 81        	srli	a0, a0, 12
  109972: 59 8d        	or	a0, a0, a4
  109974: 7e 06        	slli	a2, a2, 31
  109976: 33 67 c5 00  	or	a4, a0, a2
  10997a: ba 85        	mv	a1, a4
  10997c: 3e 85        	mv	a0, a5
  10997e: 99 c0        	beqz	s1, 0x109984 <__divdf3+0x4c6>
  109980: 73 a0 14 00  	csrs	fflags, s1
  109984: b2 50        	lw	ra, 44(sp)
  109986: 22 54        	lw	s0, 40(sp)
  109988: 92 54        	lw	s1, 36(sp)
  10998a: 02 59        	lw	s2, 32(sp)
  10998c: f2 49        	lw	s3, 28(sp)
  10998e: 62 4a        	lw	s4, 24(sp)
  109990: d2 4a        	lw	s5, 20(sp)
  109992: 42 4b        	lw	s6, 16(sp)
  109994: b2 4b        	lw	s7, 12(sp)
  109996: 22 4c        	lw	s8, 8(sp)
  109998: 92 4c        	lw	s9, 4(sp)
  10999a: 45 61        	addi	sp, sp, 48
  10999c: 82 80        	ret
  10999e: 89 47        	li	a5, 2
  1099a0: 63 03 f9 02  	beq	s2, a5, 0x1099c6 <__divdf3+0x508>
  1099a4: 8d 47        	li	a5, 3
  1099a6: 63 08 f9 00  	beq	s2, a5, 0x1099b6 <__divdf3+0x4f8>
  1099aa: 63 17 09 00  	bnez	s2, 0x1099b8 <__divdf3+0x4fa>
  1099ae: 81 47        	li	a5, 0
  1099b0: 13 07 f0 7f  	li	a4, 2047
  1099b4: 29 a0        	j	0x1099be <__divdf3+0x500>
  1099b6: 65 de        	beqz	a2, 0x1099ae <__divdf3+0x4f0>
  1099b8: fd 57        	li	a5, -1
  1099ba: 13 07 e0 7f  	li	a4, 2046
  1099be: 93 e4 54 00  	ori	s1, s1, 5
  1099c2: 3e 85        	mv	a0, a5
  1099c4: 4d b7        	j	0x109966 <__divdf3+0x4a8>
  1099c6: 65 f6        	bnez	a2, 0x1099ae <__divdf3+0x4f0>
  1099c8: c5 bf        	j	0x1099b8 <__divdf3+0x4fa>
  1099ca: 05 47        	li	a4, 1
  1099cc: 63 14 08 04  	bnez	a6, 0x109a14 <__divdf3+0x556>
  1099d0: 93 f6 77 00  	andi	a3, a5, 7
  1099d4: 22 87        	mv	a4, s0
  1099d6: 9d ca        	beqz	a3, 0x109a0c <__divdf3+0x54e>
  1099d8: 89 46        	li	a3, 2
  1099da: 93 e4 14 00  	ori	s1, s1, 1
  1099de: 63 06 d9 02  	beq	s2, a3, 0x109a0a <__divdf3+0x54c>
  1099e2: 8d 46        	li	a3, 3
  1099e4: 63 0f d9 00  	beq	s2, a3, 0x109a02 <__divdf3+0x544>
  1099e8: 63 12 09 02  	bnez	s2, 0x109a0c <__divdf3+0x54e>
  1099ec: 93 f6 f7 00  	andi	a3, a5, 15
  1099f0: 11 45        	li	a0, 4
  1099f2: 63 8d a6 00  	beq	a3, a0, 0x109a0c <__divdf3+0x54e>
  1099f6: 13 b7 c7 ff  	sltiu	a4, a5, -4
  1099fa: 13 47 17 00  	xori	a4, a4, 1
  1099fe: 22 97        	add	a4, a4, s0
  109a00: 31 a0        	j	0x109a0c <__divdf3+0x54e>
  109a02: 09 e6        	bnez	a2, 0x109a0c <__divdf3+0x54e>
  109a04: 13 b7 87 ff  	sltiu	a4, a5, -8
  109a08: cd bf        	j	0x1099fa <__divdf3+0x53c>
  109a0a: 6d fe        	bnez	a2, 0x109a04 <__divdf3+0x546>
  109a0c: 61 83        	srli	a4, a4, 24
  109a0e: 13 47 17 00  	xori	a4, a4, 1
  109a12: 05 8b        	andi	a4, a4, 1
  109a14: 05 45        	li	a0, 1
  109a16: 33 05 05 41  	sub	a0, a0, a6
  109a1a: 93 06 80 03  	li	a3, 56
  109a1e: 63 c2 a6 0c  	blt	a3, a0, 0x109ae2 <__divdf3+0x624>
  109a22: fd 46        	li	a3, 31
  109a24: 63 ca a6 04  	blt	a3, a0, 0x109a78 <__divdf3+0x5ba>
  109a28: 93 85 e5 41  	addi	a1, a1, 1054
  109a2c: 33 d8 a7 00  	srl	a6, a5, a0
  109a30: b3 16 b4 00  	sll	a3, s0, a1
  109a34: b3 97 b7 00  	sll	a5, a5, a1
  109a38: b3 e6 06 01  	or	a3, a3, a6
  109a3c: b3 37 f0 00  	snez	a5, a5
  109a40: d5 8f        	or	a5, a5, a3
  109a42: 33 55 a4 00  	srl	a0, s0, a0
  109a46: 93 f6 77 00  	andi	a3, a5, 7
  109a4a: ad c2        	beqz	a3, 0x109aac <__divdf3+0x5ee>
  109a4c: 89 46        	li	a3, 2
  109a4e: 93 e4 14 00  	ori	s1, s1, 1
  109a52: 63 0c d9 04  	beq	s2, a3, 0x109aaa <__divdf3+0x5ec>
  109a56: 8d 46        	li	a3, 3
  109a58: 63 05 d9 04  	beq	s2, a3, 0x109aa2 <__divdf3+0x5e4>
  109a5c: 63 18 09 04  	bnez	s2, 0x109aac <__divdf3+0x5ee>
  109a60: 93 f6 f7 00  	andi	a3, a5, 15
  109a64: 91 45        	li	a1, 4
  109a66: 63 83 b6 04  	beq	a3, a1, 0x109aac <__divdf3+0x5ee>
  109a6a: 93 86 47 00  	addi	a3, a5, 4
  109a6e: b3 b7 f6 00  	sltu	a5, a3, a5
  109a72: 3e 95        	add	a0, a0, a5
  109a74: b6 87        	mv	a5, a3
  109a76: 1d a8        	j	0x109aac <__divdf3+0x5ee>
  109a78: 85 56        	li	a3, -31
  109a7a: b3 86 06 41  	sub	a3, a3, a6
  109a7e: 93 08 00 02  	li	a7, 32
  109a82: b3 56 d4 00  	srl	a3, s0, a3
  109a86: 01 48        	li	a6, 0
  109a88: 63 06 15 01  	beq	a0, a7, 0x109a94 <__divdf3+0x5d6>
  109a8c: 93 85 e5 43  	addi	a1, a1, 1086
  109a90: 33 18 b4 00  	sll	a6, s0, a1
  109a94: b3 67 f8 00  	or	a5, a6, a5
  109a98: b3 37 f0 00  	snez	a5, a5
  109a9c: d5 8f        	or	a5, a5, a3
  109a9e: 01 45        	li	a0, 0
  109aa0: 5d b7        	j	0x109a46 <__divdf3+0x588>
  109aa2: 09 e6        	bnez	a2, 0x109aac <__divdf3+0x5ee>
  109aa4: 93 86 87 00  	addi	a3, a5, 8
  109aa8: d9 b7        	j	0x109a6e <__divdf3+0x5b0>
  109aaa: 6d fe        	bnez	a2, 0x109aa4 <__divdf3+0x5e6>
  109aac: b7 06 80 00  	lui	a3, 2048
  109ab0: e9 8e        	and	a3, a3, a0
  109ab2: 81 ca        	beqz	a3, 0x109ac2 <__divdf3+0x604>
  109ab4: 93 e4 14 00  	ori	s1, s1, 1
  109ab8: 01 45        	li	a0, 0
  109aba: 81 47        	li	a5, 0
  109abc: 05 e3        	bnez	a4, 0x109adc <__divdf3+0x61e>
  109abe: 05 47        	li	a4, 1
  109ac0: 5d b5        	j	0x109966 <__divdf3+0x4a8>
  109ac2: 93 d6 37 00  	srli	a3, a5, 3
  109ac6: 93 17 d5 01  	slli	a5, a0, 29
  109aca: d5 8f        	or	a5, a5, a3
  109acc: 0d 81        	srli	a0, a0, 3
  109ace: e3 0c 07 e8  	beqz	a4, 0x109966 <__divdf3+0x4a8>
  109ad2: 13 f7 14 00  	andi	a4, s1, 1
  109ad6: e3 08 07 e8  	beqz	a4, 0x109966 <__divdf3+0x4a8>
  109ada: 01 47        	li	a4, 0
  109adc: 93 e4 24 00  	ori	s1, s1, 2
  109ae0: 59 b5        	j	0x109966 <__divdf3+0x4a8>
  109ae2: c1 8f        	or	a5, a5, s0
  109ae4: 91 cf        	beqz	a5, 0x109b00 <__divdf3+0x642>
  109ae6: 89 47        	li	a5, 2
  109ae8: 93 e4 14 00  	ori	s1, s1, 1
  109aec: 63 03 f9 02  	beq	s2, a5, 0x109b12 <__divdf3+0x654>
  109af0: 8d 47        	li	a5, 3
  109af2: 63 0c f9 00  	beq	s2, a5, 0x109b0a <__divdf3+0x64c>
  109af6: 85 47        	li	a5, 1
  109af8: 63 13 09 00  	bnez	s2, 0x109afe <__divdf3+0x640>
  109afc: 95 47        	li	a5, 5
  109afe: 8d 83        	srli	a5, a5, 3
  109b00: 93 e4 24 00  	ori	s1, s1, 2
  109b04: 01 45        	li	a0, 0
  109b06: 01 47        	li	a4, 0
  109b08: b9 bd        	j	0x109966 <__divdf3+0x4a8>
  109b0a: a5 47        	li	a5, 9
  109b0c: 6d da        	beqz	a2, 0x109afe <__divdf3+0x640>
  109b0e: 85 47        	li	a5, 1
  109b10: fd b7        	j	0x109afe <__divdf3+0x640>
  109b12: a5 47        	li	a5, 9
  109b14: 6d f6        	bnez	a2, 0x109afe <__divdf3+0x640>
  109b16: e5 bf        	j	0x109b0e <__divdf3+0x650>
  109b18: 37 05 08 00  	lui	a0, 128
  109b1c: 81 47        	li	a5, 0
  109b1e: 13 07 f0 7f  	li	a4, 2047
  109b22: 01 46        	li	a2, 0
  109b24: c1 44        	li	s1, 16
  109b26: 81 b5        	j	0x109966 <__divdf3+0x4a8>
  109b28: 01 45        	li	a0, 0
  109b2a: 81 47        	li	a5, 0
  109b2c: e9 bf        	j	0x109b06 <__divdf3+0x648>
  109b2e: 37 05 08 00  	lui	a0, 128
  109b32: 81 47        	li	a5, 0
  109b34: 13 07 f0 7f  	li	a4, 2047
  109b38: 01 46        	li	a2, 0
  109b3a: 35 b5        	j	0x109966 <__divdf3+0x4a8>
  109b3c: be 86        	mv	a3, a5
  109b3e: b6 87        	mv	a5, a3
  109b40: 8d bb        	j	0x1098b2 <__divdf3+0x3f4>

00109b42 <__nedf2>:
  109b42: 2a 88        	mv	a6, a0
  109b44: f3 27 20 00  	frrm	a5
  109b48: b7 07 10 00  	lui	a5, 256
  109b4c: 93 d8 45 01  	srli	a7, a1, 20
  109b50: fd 17        	addi	a5, a5, -1
  109b52: 13 d3 46 01  	srli	t1, a3, 20
  109b56: 2a 8e        	mv	t3, a0
  109b58: 93 f8 f8 7f  	andi	a7, a7, 2047
  109b5c: 13 05 f0 7f  	li	a0, 2047
  109b60: 33 f7 b7 00  	and	a4, a5, a1
  109b64: b2 8e        	mv	t4, a2
  109b66: f5 8f        	and	a5, a5, a3
  109b68: fd 81        	srli	a1, a1, 31
  109b6a: 13 73 f3 7f  	andi	t1, t1, 2047
  109b6e: fd 82        	srli	a3, a3, 31
  109b70: 63 98 a8 00  	bne	a7, a0, 0x109b80 <__nedf2+0x3e>
  109b74: 33 65 07 01  	or	a0, a4, a6
  109b78: 31 e5        	bnez	a0, 0x109bc4 <__nedf2+0x82>
  109b7a: 63 14 13 07  	bne	t1, a7, 0x109be2 <__nedf2+0xa0>
  109b7e: 19 a0        	j	0x109b84 <__nedf2+0x42>
  109b80: 63 15 a3 00  	bne	t1, a0, 0x109b8a <__nedf2+0x48>
  109b84: 33 e5 c7 00  	or	a0, a5, a2
  109b88: 15 e5        	bnez	a0, 0x109bb4 <__nedf2+0x72>
  109b8a: 05 45        	li	a0, 1
  109b8c: 63 9c 68 04  	bne	a7, t1, 0x109be4 <__nedf2+0xa2>
  109b90: 63 1a f7 04  	bne	a4, a5, 0x109be4 <__nedf2+0xa2>
  109b94: 63 18 de 05  	bne	t3, t4, 0x109be4 <__nedf2+0xa2>
  109b98: 63 8c d5 00  	beq	a1, a3, 0x109bb0 <__nedf2+0x6e>
  109b9c: 63 94 08 04  	bnez	a7, 0x109be4 <__nedf2+0xa2>
  109ba0: 33 67 07 01  	or	a4, a4, a6
  109ba4: 33 35 e0 00  	snez	a0, a4
  109ba8: 82 80        	ret
  109baa: 73 60 18 00  	csrsi	fflags, 16
  109bae: 15 a8        	j	0x109be2 <__nedf2+0xa0>
  109bb0: 01 45        	li	a0, 0
  109bb2: 82 80        	ret
  109bb4: 93 06 f0 7f  	li	a3, 2047
  109bb8: 63 91 d8 02  	bne	a7, a3, 0x109bda <__nedf2+0x98>
  109bbc: 33 68 07 01  	or	a6, a4, a6
  109bc0: 63 0d 08 00  	beqz	a6, 0x109bda <__nedf2+0x98>
  109bc4: b7 06 08 00  	lui	a3, 128
  109bc8: 75 8f        	and	a4, a4, a3
  109bca: 65 d3        	beqz	a4, 0x109baa <__nedf2+0x68>
  109bcc: 13 07 f0 7f  	li	a4, 2047
  109bd0: 05 45        	li	a0, 1
  109bd2: 63 19 e3 00  	bne	t1, a4, 0x109be4 <__nedf2+0xa2>
  109bd6: 5d 8e        	or	a2, a2, a5
  109bd8: 11 c6        	beqz	a2, 0x109be4 <__nedf2+0xa2>
  109bda: 37 07 08 00  	lui	a4, 128
  109bde: f9 8f        	and	a5, a5, a4
  109be0: e9 d7        	beqz	a5, 0x109baa <__nedf2+0x68>
  109be2: 05 45        	li	a0, 1
  109be4: 82 80        	ret

00109be6 <__gtdf2>:
  109be6: aa 87        	mv	a5, a0
  109be8: 73 27 20 00  	frrm	a4
  109bec: 37 07 10 00  	lui	a4, 256
  109bf0: 7d 17        	addi	a4, a4, -1
  109bf2: 13 d8 45 01  	srli	a6, a1, 20
  109bf6: b3 78 b7 00  	and	a7, a4, a1
  109bfa: 2a 83        	mv	t1, a0
  109bfc: 13 78 f8 7f  	andi	a6, a6, 2047
  109c00: 13 d5 f5 01  	srli	a0, a1, 31
  109c04: 93 0e f0 7f  	li	t4, 2047
  109c08: 93 d5 46 01  	srli	a1, a3, 20
  109c0c: 75 8f        	and	a4, a4, a3
  109c0e: 32 8e        	mv	t3, a2
  109c10: 93 f5 f5 7f  	andi	a1, a1, 2047
  109c14: fd 82        	srli	a3, a3, 31
  109c16: 63 1a d8 01  	bne	a6, t4, 0x109c2a <__gtdf2+0x44>
  109c1a: b3 ee f8 00  	or	t4, a7, a5
  109c1e: 63 86 0e 06  	beqz	t4, 0x109c8a <__gtdf2+0xa4>
  109c22: 73 60 18 00  	csrsi	fflags, 16
  109c26: 79 55        	li	a0, -2
  109c28: 82 80        	ret
  109c2a: 63 96 d5 01  	bne	a1, t4, 0x109c36 <__gtdf2+0x50>
  109c2e: b3 6e c7 00  	or	t4, a4, a2
  109c32: e3 98 0e fe  	bnez	t4, 0x109c22 <__gtdf2+0x3c>
  109c36: 63 1c 08 04  	bnez	a6, 0x109c8e <__gtdf2+0xa8>
  109c3a: b3 e7 f8 00  	or	a5, a7, a5
  109c3e: 93 b7 17 00  	seqz	a5, a5
  109c42: 99 e1        	bnez	a1, 0x109c48 <__gtdf2+0x62>
  109c44: 59 8e        	or	a2, a2, a4
  109c46: 0d ce        	beqz	a2, 0x109c80 <__gtdf2+0x9a>
  109c48: 81 eb        	bnez	a5, 0x109c58 <__gtdf2+0x72>
  109c4a: 63 14 d5 00  	bne	a0, a3, 0x109c52 <__gtdf2+0x6c>
  109c4e: 63 d9 05 01  	bge	a1, a6, 0x109c60 <__gtdf2+0x7a>
  109c52: 0d c5        	beqz	a0, 0x109c7c <__gtdf2+0x96>
  109c54: 7d 55        	li	a0, -1
  109c56: 82 80        	ret
  109c58: 7d 55        	li	a0, -1
  109c5a: 91 c6        	beqz	a3, 0x109c66 <__gtdf2+0x80>
  109c5c: 36 85        	mv	a0, a3
  109c5e: 82 80        	ret
  109c60: 63 54 b8 00  	bge	a6, a1, 0x109c68 <__gtdf2+0x82>
  109c64: 65 d9        	beqz	a0, 0x109c54 <__gtdf2+0x6e>
  109c66: 82 80        	ret
  109c68: e3 65 17 ff  	bltu	a4, a7, 0x109c52 <__gtdf2+0x6c>
  109c6c: 63 9c e8 00  	bne	a7, a4, 0x109c84 <__gtdf2+0x9e>
  109c70: e3 61 6e fe  	bltu	t3, t1, 0x109c52 <__gtdf2+0x6c>
  109c74: e3 68 c3 ff  	bltu	t1, t3, 0x109c64 <__gtdf2+0x7e>
  109c78: 01 45        	li	a0, 0
  109c7a: 82 80        	ret
  109c7c: 05 45        	li	a0, 1
  109c7e: 82 80        	ret
  109c80: e5 ff        	bnez	a5, 0x109c78 <__gtdf2+0x92>
  109c82: c1 bf        	j	0x109c52 <__gtdf2+0x6c>
  109c84: e3 e0 e8 fe  	bltu	a7, a4, 0x109c64 <__gtdf2+0x7e>
  109c88: c5 bf        	j	0x109c78 <__gtdf2+0x92>
  109c8a: e3 82 05 fb  	beq	a1, a6, 0x109c2e <__gtdf2+0x48>
  109c8e: d5 fd        	bnez	a1, 0x109c4a <__gtdf2+0x64>
  109c90: 81 47        	li	a5, 0
  109c92: 4d bf        	j	0x109c44 <__gtdf2+0x5e>

00109c94 <__ltdf2>:
  109c94: aa 87        	mv	a5, a0
  109c96: 73 27 20 00  	frrm	a4
  109c9a: 37 07 10 00  	lui	a4, 256
  109c9e: 7d 17        	addi	a4, a4, -1
  109ca0: 13 d8 45 01  	srli	a6, a1, 20
  109ca4: b3 78 b7 00  	and	a7, a4, a1
  109ca8: 2a 83        	mv	t1, a0
  109caa: 13 78 f8 7f  	andi	a6, a6, 2047
  109cae: 13 d5 f5 01  	srli	a0, a1, 31
  109cb2: 93 0e f0 7f  	li	t4, 2047
  109cb6: 93 d5 46 01  	srli	a1, a3, 20
  109cba: 75 8f        	and	a4, a4, a3
  109cbc: 32 8e        	mv	t3, a2
  109cbe: 93 f5 f5 7f  	andi	a1, a1, 2047
  109cc2: fd 82        	srli	a3, a3, 31
  109cc4: 63 1a d8 01  	bne	a6, t4, 0x109cd8 <__ltdf2+0x44>
  109cc8: b3 ee f8 00  	or	t4, a7, a5
  109ccc: 63 86 0e 06  	beqz	t4, 0x109d38 <__ltdf2+0xa4>
  109cd0: 73 60 18 00  	csrsi	fflags, 16
  109cd4: 09 45        	li	a0, 2
  109cd6: 82 80        	ret
  109cd8: 63 96 d5 01  	bne	a1, t4, 0x109ce4 <__ltdf2+0x50>
  109cdc: b3 6e c7 00  	or	t4, a4, a2
  109ce0: e3 98 0e fe  	bnez	t4, 0x109cd0 <__ltdf2+0x3c>
  109ce4: 63 1c 08 04  	bnez	a6, 0x109d3c <__ltdf2+0xa8>
  109ce8: b3 e7 f8 00  	or	a5, a7, a5
  109cec: 93 b7 17 00  	seqz	a5, a5
  109cf0: 99 e1        	bnez	a1, 0x109cf6 <__ltdf2+0x62>
  109cf2: 59 8e        	or	a2, a2, a4
  109cf4: 0d ce        	beqz	a2, 0x109d2e <__ltdf2+0x9a>
  109cf6: 81 eb        	bnez	a5, 0x109d06 <__ltdf2+0x72>
  109cf8: 63 14 d5 00  	bne	a0, a3, 0x109d00 <__ltdf2+0x6c>
  109cfc: 63 d9 05 01  	bge	a1, a6, 0x109d0e <__ltdf2+0x7a>
  109d00: 0d c5        	beqz	a0, 0x109d2a <__ltdf2+0x96>
  109d02: 7d 55        	li	a0, -1
  109d04: 82 80        	ret
  109d06: 7d 55        	li	a0, -1
  109d08: 91 c6        	beqz	a3, 0x109d14 <__ltdf2+0x80>
  109d0a: 36 85        	mv	a0, a3
  109d0c: 82 80        	ret
  109d0e: 63 54 b8 00  	bge	a6, a1, 0x109d16 <__ltdf2+0x82>
  109d12: 65 d9        	beqz	a0, 0x109d02 <__ltdf2+0x6e>
  109d14: 82 80        	ret
  109d16: e3 65 17 ff  	bltu	a4, a7, 0x109d00 <__ltdf2+0x6c>
  109d1a: 63 9c e8 00  	bne	a7, a4, 0x109d32 <__ltdf2+0x9e>
  109d1e: e3 61 6e fe  	bltu	t3, t1, 0x109d00 <__ltdf2+0x6c>
  109d22: e3 68 c3 ff  	bltu	t1, t3, 0x109d12 <__ltdf2+0x7e>
  109d26: 01 45        	li	a0, 0
  109d28: 82 80        	ret
  109d2a: 05 45        	li	a0, 1
  109d2c: 82 80        	ret
  109d2e: e5 ff        	bnez	a5, 0x109d26 <__ltdf2+0x92>
  109d30: c1 bf        	j	0x109d00 <__ltdf2+0x6c>
  109d32: e3 e0 e8 fe  	bltu	a7, a4, 0x109d12 <__ltdf2+0x7e>
  109d36: c5 bf        	j	0x109d26 <__ltdf2+0x92>
  109d38: e3 82 05 fb  	beq	a1, a6, 0x109cdc <__ltdf2+0x48>
  109d3c: d5 fd        	bnez	a1, 0x109cf8 <__ltdf2+0x64>
  109d3e: 81 47        	li	a5, 0
  109d40: 4d bf        	j	0x109cf2 <__ltdf2+0x5e>

00109d42 <__muldf3>:
  109d42: 79 71        	addi	sp, sp, -48
  109d44: 22 d4        	sw	s0, 40(sp)
  109d46: 56 ca        	sw	s5, 20(sp)
  109d48: 66 c2        	sw	s9, 4(sp)
  109d4a: 06 d6        	sw	ra, 44(sp)
  109d4c: 26 d2        	sw	s1, 36(sp)
  109d4e: 4a d0        	sw	s2, 32(sp)
  109d50: 4e ce        	sw	s3, 28(sp)
  109d52: 52 cc        	sw	s4, 24(sp)
  109d54: 5a c8        	sw	s6, 16(sp)
  109d56: 5e c6        	sw	s7, 12(sp)
  109d58: 62 c4        	sw	s8, 8(sp)
  109d5a: 2a 84        	mv	s0, a0
  109d5c: b2 8c        	mv	s9, a2
  109d5e: b6 8a        	mv	s5, a3
  109d60: 73 29 20 00  	frrm	s2
  109d64: 93 db 45 01  	srli	s7, a1, 20
  109d68: 93 99 c5 00  	slli	s3, a1, 12
  109d6c: 93 fb fb 7f  	andi	s7, s7, 2047
  109d70: 93 d9 c9 00  	srli	s3, s3, 12
  109d74: 13 db f5 01  	srli	s6, a1, 31
  109d78: 63 86 0b 02  	beqz	s7, 0x109da4 <__muldf3+0x62>
  109d7c: 93 07 f0 7f  	li	a5, 2047
  109d80: 63 8b fb 06  	beq	s7, a5, 0x109df6 <__muldf3+0xb4>
  109d84: 93 57 d5 01  	srli	a5, a0, 29
  109d88: 8e 09        	slli	s3, s3, 3
  109d8a: b3 e9 37 01  	or	s3, a5, s3
  109d8e: b7 07 80 00  	lui	a5, 2048
  109d92: b3 e9 f9 00  	or	s3, s3, a5
  109d96: 13 1a 35 00  	slli	s4, a0, 3
  109d9a: 93 8b 1b c0  	addi	s7, s7, -1023
  109d9e: 01 4c        	li	s8, 0
  109da0: 81 44        	li	s1, 0
  109da2: bd a0        	j	0x109e10 <__muldf3+0xce>
  109da4: b3 e7 a9 00  	or	a5, s3, a0
  109da8: e9 c3        	beqz	a5, 0x109e6a <__muldf3+0x128>
  109daa: 63 8b 09 02  	beqz	s3, 0x109de0 <__muldf3+0x9e>
  109dae: 4e 85        	mv	a0, s3
  109db0: ef 10 b0 29  	jal	0x10b84a <__clzsi2>
  109db4: 13 07 55 ff  	addi	a4, a0, -11
  109db8: f1 47        	li	a5, 28
  109dba: 63 c8 e7 02  	blt	a5, a4, 0x109dea <__muldf3+0xa8>
  109dbe: f5 47        	li	a5, 29
  109dc0: 13 0a 85 ff  	addi	s4, a0, -8
  109dc4: 99 8f        	sub	a5, a5, a4
  109dc6: b3 99 49 01  	sll	s3, s3, s4
  109dca: b3 57 f4 00  	srl	a5, s0, a5
  109dce: b3 e9 37 01  	or	s3, a5, s3
  109dd2: 33 1a 44 01  	sll	s4, s0, s4
  109dd6: 93 0b d0 c0  	li	s7, -1011
  109dda: b3 8b ab 40  	sub	s7, s7, a0
  109dde: c1 b7        	j	0x109d9e <__muldf3+0x5c>
  109de0: ef 10 b0 26  	jal	0x10b84a <__clzsi2>
  109de4: 13 05 05 02  	addi	a0, a0, 32
  109de8: f1 b7        	j	0x109db4 <__muldf3+0x72>
  109dea: 93 09 85 fd  	addi	s3, a0, -40
  109dee: b3 19 34 01  	sll	s3, s0, s3
  109df2: 01 4a        	li	s4, 0
  109df4: cd b7        	j	0x109dd6 <__muldf3+0x94>
  109df6: 33 e4 a9 00  	or	s0, s3, a0
  109dfa: 2d cc        	beqz	s0, 0x109e74 <__muldf3+0x132>
  109dfc: b7 07 08 00  	lui	a5, 128
  109e00: b3 f7 f9 00  	and	a5, s3, a5
  109e04: 2a 8a        	mv	s4, a0
  109e06: 93 0b f0 7f  	li	s7, 2047
  109e0a: 0d 4c        	li	s8, 3
  109e0c: c1 44        	li	s1, 16
  109e0e: c9 fb        	bnez	a5, 0x109da0 <__muldf3+0x5e>
  109e10: 13 d5 4a 01  	srli	a0, s5, 20
  109e14: 13 94 ca 00  	slli	s0, s5, 12
  109e18: 13 75 f5 7f  	andi	a0, a0, 2047
  109e1c: e6 87        	mv	a5, s9
  109e1e: 31 80        	srli	s0, s0, 12
  109e20: 93 da fa 01  	srli	s5, s5, 31
  109e24: 31 cd        	beqz	a0, 0x109e80 <__muldf3+0x13e>
  109e26: 13 07 f0 7f  	li	a4, 2047
  109e2a: 63 03 e5 0a  	beq	a0, a4, 0x109ed0 <__muldf3+0x18e>
  109e2e: 93 d7 dc 01  	srli	a5, s9, 29
  109e32: 0e 04        	slli	s0, s0, 3
  109e34: 5d 8c        	or	s0, s0, a5
  109e36: b7 07 80 00  	lui	a5, 2048
  109e3a: 5d 8c        	or	s0, s0, a5
  109e3c: 13 05 15 c0  	addi	a0, a0, -1023
  109e40: 93 97 3c 00  	slli	a5, s9, 3
  109e44: 01 47        	li	a4, 0
  109e46: 93 16 2c 00  	slli	a3, s8, 2
  109e4a: d9 8e        	or	a3, a3, a4
  109e4c: aa 9b        	add	s7, s7, a0
  109e4e: fd 16        	addi	a3, a3, -1
  109e50: 39 46        	li	a2, 14
  109e52: b3 45 5b 01  	xor	a1, s6, s5
  109e56: 13 85 1b 00  	addi	a0, s7, 1
  109e5a: 63 67 d6 0e  	bltu	a2, a3, 0x109f48 <__muldf3+0x206>
  109e5e: 8a 06        	slli	a3, a3, 2
  109e60: 13 86 01 16  	addi	a2, gp, 352
  109e64: b2 96        	add	a3, a3, a2
  109e66: 94 42        	lw	a3, 0(a3)
  109e68: 82 86        	jr	a3
  109e6a: 81 49        	li	s3, 0
  109e6c: 01 4a        	li	s4, 0
  109e6e: 81 4b        	li	s7, 0
  109e70: 05 4c        	li	s8, 1
  109e72: 3d b7        	j	0x109da0 <__muldf3+0x5e>
  109e74: 81 49        	li	s3, 0
  109e76: 01 4a        	li	s4, 0
  109e78: 93 0b f0 7f  	li	s7, 2047
  109e7c: 09 4c        	li	s8, 2
  109e7e: 0d b7        	j	0x109da0 <__muldf3+0x5e>
  109e80: b3 67 94 01  	or	a5, s0, s9
  109e84: b5 c3        	beqz	a5, 0x109ee8 <__muldf3+0x1a6>
  109e86: 0d c8        	beqz	s0, 0x109eb8 <__muldf3+0x176>
  109e88: 22 85        	mv	a0, s0
  109e8a: ef 10 10 1c  	jal	0x10b84a <__clzsi2>
  109e8e: 93 06 55 ff  	addi	a3, a0, -11
  109e92: f1 47        	li	a5, 28
  109e94: 63 c8 d7 02  	blt	a5, a3, 0x109ec4 <__muldf3+0x182>
  109e98: 75 47        	li	a4, 29
  109e9a: 93 07 85 ff  	addi	a5, a0, -8
  109e9e: 15 8f        	sub	a4, a4, a3
  109ea0: 33 14 f4 00  	sll	s0, s0, a5
  109ea4: 33 d7 ec 00  	srl	a4, s9, a4
  109ea8: 59 8c        	or	s0, s0, a4
  109eaa: b3 97 fc 00  	sll	a5, s9, a5
  109eae: 13 07 d0 c0  	li	a4, -1011
  109eb2: 33 05 a7 40  	sub	a0, a4, a0
  109eb6: 79 b7        	j	0x109e44 <__muldf3+0x102>
  109eb8: 66 85        	mv	a0, s9
  109eba: ef 10 10 19  	jal	0x10b84a <__clzsi2>
  109ebe: 13 05 05 02  	addi	a0, a0, 32
  109ec2: f1 b7        	j	0x109e8e <__muldf3+0x14c>
  109ec4: 13 04 85 fd  	addi	s0, a0, -40
  109ec8: 33 94 8c 00  	sll	s0, s9, s0
  109ecc: 81 47        	li	a5, 0
  109ece: c5 b7        	j	0x109eae <__muldf3+0x16c>
  109ed0: 33 66 94 01  	or	a2, s0, s9
  109ed4: 19 ce        	beqz	a2, 0x109ef2 <__muldf3+0x1b0>
  109ed6: 37 07 08 00  	lui	a4, 128
  109eda: 61 8f        	and	a4, a4, s0
  109edc: 13 05 f0 7f  	li	a0, 2047
  109ee0: 19 ef        	bnez	a4, 0x109efe <__muldf3+0x1bc>
  109ee2: 0d 47        	li	a4, 3
  109ee4: c1 44        	li	s1, 16
  109ee6: 85 b7        	j	0x109e46 <__muldf3+0x104>
  109ee8: 01 44        	li	s0, 0
  109eea: 81 47        	li	a5, 0
  109eec: 01 45        	li	a0, 0
  109eee: 05 47        	li	a4, 1
  109ef0: 99 bf        	j	0x109e46 <__muldf3+0x104>
  109ef2: 01 44        	li	s0, 0
  109ef4: 81 47        	li	a5, 0
  109ef6: 13 05 f0 7f  	li	a0, 2047
  109efa: 09 47        	li	a4, 2
  109efc: a9 b7        	j	0x109e46 <__muldf3+0x104>
  109efe: 0d 47        	li	a4, 3
  109f00: 99 b7        	j	0x109e46 <__muldf3+0x104>
  109f02: 37 04 08 00  	lui	s0, 128
  109f06: 81 47        	li	a5, 0
  109f08: 13 07 f0 7f  	li	a4, 2047
  109f0c: 81 45        	li	a1, 0
  109f0e: c1 44        	li	s1, 16
  109f10: 52 07        	slli	a4, a4, 20
  109f12: b7 06 f0 7f  	lui	a3, 524032
  109f16: 32 04        	slli	s0, s0, 12
  109f18: 75 8f        	and	a4, a4, a3
  109f1a: 31 80        	srli	s0, s0, 12
  109f1c: fe 05        	slli	a1, a1, 31
  109f1e: 59 8c        	or	s0, s0, a4
  109f20: 33 67 b4 00  	or	a4, s0, a1
  109f24: 3e 85        	mv	a0, a5
  109f26: ba 85        	mv	a1, a4
  109f28: 99 c0        	beqz	s1, 0x109f2e <__muldf3+0x1ec>
  109f2a: 73 a0 14 00  	csrs	fflags, s1
  109f2e: b2 50        	lw	ra, 44(sp)
  109f30: 22 54        	lw	s0, 40(sp)
  109f32: 92 54        	lw	s1, 36(sp)
  109f34: 02 59        	lw	s2, 32(sp)
  109f36: f2 49        	lw	s3, 28(sp)
  109f38: 62 4a        	lw	s4, 24(sp)
  109f3a: d2 4a        	lw	s5, 20(sp)
  109f3c: 42 4b        	lw	s6, 16(sp)
  109f3e: b2 4b        	lw	s7, 12(sp)
  109f40: 22 4c        	lw	s8, 8(sp)
  109f42: 92 4c        	lw	s9, 4(sp)
  109f44: 45 61        	addi	sp, sp, 48
  109f46: 82 80        	ret
  109f48: c1 6e        	lui	t4, 16
  109f4a: 13 8e fe ff  	addi	t3, t4, -1
  109f4e: 13 57 0a 01  	srli	a4, s4, 16
  109f52: 93 d8 07 01  	srli	a7, a5, 16
  109f56: 33 7a ca 01  	and	s4, s4, t3
  109f5a: b3 f7 c7 01  	and	a5, a5, t3
  109f5e: 33 88 48 03  	mul	a6, a7, s4
  109f62: b3 86 47 03  	mul	a3, a5, s4
  109f66: 33 0f f7 02  	mul	t5, a4, a5
  109f6a: 33 03 e8 01  	add	t1, a6, t5
  109f6e: 13 d8 06 01  	srli	a6, a3, 16
  109f72: 1a 98        	add	a6, a6, t1
  109f74: 33 06 17 03  	mul	a2, a4, a7
  109f78: 63 73 e8 01  	bgeu	a6, t5, 0x109f7e <__muldf3+0x23c>
  109f7c: 76 96        	add	a2, a2, t4
  109f7e: 93 5f 08 01  	srli	t6, a6, 16
  109f82: 33 78 c8 01  	and	a6, a6, t3
  109f86: b3 f6 c6 01  	and	a3, a3, t3
  109f8a: 93 5e 04 01  	srli	t4, s0, 16
  109f8e: 33 7e c4 01  	and	t3, s0, t3
  109f92: 42 08        	slli	a6, a6, 16
  109f94: 36 98        	add	a6, a6, a3
  109f96: 33 0f c7 03  	mul	t5, a4, t3
  109f9a: b3 06 ca 03  	mul	a3, s4, t3
  109f9e: 33 8a 4e 03  	mul	s4, t4, s4
  109fa2: 33 03 ea 01  	add	t1, s4, t5
  109fa6: 13 da 06 01  	srli	s4, a3, 16
  109faa: 1a 9a        	add	s4, s4, t1
  109fac: 33 07 d7 03  	mul	a4, a4, t4
  109fb0: 63 74 ea 01  	bgeu	s4, t5, 0x109fb8 <__muldf3+0x276>
  109fb4: 41 63        	lui	t1, 16
  109fb6: 1a 97        	add	a4, a4, t1
  109fb8: 13 53 0a 01  	srli	t1, s4, 16
  109fbc: 3a 93        	add	t1, t1, a4
  109fbe: 41 67        	lui	a4, 16
  109fc0: 13 0f f7 ff  	addi	t5, a4, -1
  109fc4: 33 7a ea 01  	and	s4, s4, t5
  109fc8: b3 f6 e6 01  	and	a3, a3, t5
  109fcc: 13 d4 09 01  	srli	s0, s3, 16
  109fd0: 42 0a        	slli	s4, s4, 16
  109fd2: b3 f9 e9 01  	and	s3, s3, t5
  109fd6: 33 8f 37 03  	mul	t5, a5, s3
  109fda: 36 9a        	add	s4, s4, a3
  109fdc: d2 9f        	add	t6, t6, s4
  109fde: b3 86 38 03  	mul	a3, a7, s3
  109fe2: b3 07 f4 02  	mul	a5, s0, a5
  109fe6: b3 82 88 02  	mul	t0, a7, s0
  109fea: b3 88 f6 00  	add	a7, a3, a5
  109fee: 93 56 0f 01  	srli	a3, t5, 16
  109ff2: c6 96        	add	a3, a3, a7
  109ff4: 63 f3 f6 00  	bgeu	a3, a5, 0x109ffa <__muldf3+0x2b8>
  109ff8: ba 92        	add	t0, t0, a4
  109ffa: 41 67        	lui	a4, 16
  109ffc: 93 07 f7 ff  	addi	a5, a4, -1
  10a000: 33 7f ff 00  	and	t5, t5, a5
  10a004: 93 d8 06 01  	srli	a7, a3, 16
  10a008: fd 8e        	and	a3, a3, a5
  10a00a: b3 87 c9 03  	mul	a5, s3, t3
  10a00e: c2 06        	slli	a3, a3, 16
  10a010: fa 96        	add	a3, a3, t5
  10a012: 96 98        	add	a7, a7, t0
  10a014: 33 0e c4 03  	mul	t3, s0, t3
  10a018: b3 89 3e 03  	mul	s3, t4, s3
  10a01c: 33 8f 8e 02  	mul	t5, t4, s0
  10a020: f2 99        	add	s3, s3, t3
  10a022: 13 d4 07 01  	srli	s0, a5, 16
  10a026: a2 99        	add	s3, s3, s0
  10a028: 63 f3 c9 01  	bgeu	s3, t3, 0x10a02e <__muldf3+0x2ec>
  10a02c: 3a 9f        	add	t5, t5, a4
  10a02e: 41 6e        	lui	t3, 16
  10a030: 7d 1e        	addi	t3, t3, -1
  10a032: 33 f7 c9 01  	and	a4, s3, t3
  10a036: b3 f7 c7 01  	and	a5, a5, t3
  10a03a: 42 07        	slli	a4, a4, 16
  10a03c: 7e 96        	add	a2, a2, t6
  10a03e: 3e 97        	add	a4, a4, a5
  10a040: 33 3a 46 01  	sltu	s4, a2, s4
  10a044: 1a 97        	add	a4, a4, t1
  10a046: 33 04 47 01  	add	s0, a4, s4
  10a04a: 36 96        	add	a2, a2, a3
  10a04c: b3 36 d6 00  	sltu	a3, a2, a3
  10a050: 33 0e 14 01  	add	t3, s0, a7
  10a054: b3 0e de 00  	add	t4, t3, a3
  10a058: 33 37 67 00  	sltu	a4, a4, t1
  10a05c: 33 34 44 01  	sltu	s0, s0, s4
  10a060: 59 8c        	or	s0, s0, a4
  10a062: b3 b6 de 00  	sltu	a3, t4, a3
  10a066: 93 d9 09 01  	srli	s3, s3, 16
  10a06a: b3 38 1e 01  	sltu	a7, t3, a7
  10a06e: 4e 94        	add	s0, s0, s3
  10a070: b3 e6 d8 00  	or	a3, a7, a3
  10a074: 36 94        	add	s0, s0, a3
  10a076: 7a 94        	add	s0, s0, t5
  10a078: 93 d7 7e 01  	srli	a5, t4, 23
  10a07c: 26 04        	slli	s0, s0, 9
  10a07e: 5d 8c        	or	s0, s0, a5
  10a080: 93 17 96 00  	slli	a5, a2, 9
  10a084: b3 e7 07 01  	or	a5, a5, a6
  10a088: b3 37 f0 00  	snez	a5, a5
  10a08c: 5d 82        	srli	a2, a2, 23
  10a08e: 37 07 00 01  	lui	a4, 4096
  10a092: d1 8f        	or	a5, a5, a2
  10a094: a6 0e        	slli	t4, t4, 9
  10a096: 61 8f        	and	a4, a4, s0
  10a098: b3 e7 d7 01  	or	a5, a5, t4
  10a09c: 25 cb        	beqz	a4, 0x10a10c <__muldf3+0x3ca>
  10a09e: 13 d7 17 00  	srli	a4, a5, 1
  10a0a2: 85 8b        	andi	a5, a5, 1
  10a0a4: d9 8f        	or	a5, a5, a4
  10a0a6: 13 17 f4 01  	slli	a4, s0, 31
  10a0aa: d9 8f        	or	a5, a5, a4
  10a0ac: 05 80        	srli	s0, s0, 1
  10a0ae: 13 08 f5 3f  	addi	a6, a0, 1023
  10a0b2: 63 50 00 0d  	blez	a6, 0x10a172 <__muldf3+0x430>
  10a0b6: 13 f7 77 00  	andi	a4, a5, 7
  10a0ba: 25 c3        	beqz	a4, 0x10a11a <__muldf3+0x3d8>
  10a0bc: 09 47        	li	a4, 2
  10a0be: 93 e4 14 00  	ori	s1, s1, 1
  10a0c2: 63 0b e9 04  	beq	s2, a4, 0x10a118 <__muldf3+0x3d6>
  10a0c6: 0d 47        	li	a4, 3
  10a0c8: 63 04 e9 04  	beq	s2, a4, 0x10a110 <__muldf3+0x3ce>
  10a0cc: 63 17 09 04  	bnez	s2, 0x10a11a <__muldf3+0x3d8>
  10a0d0: 13 f7 f7 00  	andi	a4, a5, 15
  10a0d4: 91 46        	li	a3, 4
  10a0d6: 63 02 d7 04  	beq	a4, a3, 0x10a11a <__muldf3+0x3d8>
  10a0da: 13 87 47 00  	addi	a4, a5, 4
  10a0de: b3 37 f7 00  	sltu	a5, a4, a5
  10a0e2: 3e 94        	add	s0, s0, a5
  10a0e4: ba 87        	mv	a5, a4
  10a0e6: 15 a8        	j	0x10a11a <__muldf3+0x3d8>
  10a0e8: da 85        	mv	a1, s6
  10a0ea: 4e 84        	mv	s0, s3
  10a0ec: d2 87        	mv	a5, s4
  10a0ee: 62 87        	mv	a4, s8
  10a0f0: 89 46        	li	a3, 2
  10a0f2: 63 07 d7 1c  	beq	a4, a3, 0x10a2c0 <__muldf3+0x57e>
  10a0f6: 8d 46        	li	a3, 3
  10a0f8: 63 09 d7 1c  	beq	a4, a3, 0x10a2ca <__muldf3+0x588>
  10a0fc: 85 46        	li	a3, 1
  10a0fe: e3 18 d7 fa  	bne	a4, a3, 0x10a0ae <__muldf3+0x36c>
  10a102: 01 44        	li	s0, 0
  10a104: 81 47        	li	a5, 0
  10a106: 65 a2        	j	0x10a2ae <__muldf3+0x56c>
  10a108: d6 85        	mv	a1, s5
  10a10a: dd b7        	j	0x10a0f0 <__muldf3+0x3ae>
  10a10c: 5e 85        	mv	a0, s7
  10a10e: 45 b7        	j	0x10a0ae <__muldf3+0x36c>
  10a110: 89 e5        	bnez	a1, 0x10a11a <__muldf3+0x3d8>
  10a112: 13 87 87 00  	addi	a4, a5, 8
  10a116: e1 b7        	j	0x10a0de <__muldf3+0x39c>
  10a118: ed fd        	bnez	a1, 0x10a112 <__muldf3+0x3d0>
  10a11a: 37 07 00 01  	lui	a4, 4096
  10a11e: 61 8f        	and	a4, a4, s0
  10a120: 19 c7        	beqz	a4, 0x10a12e <__muldf3+0x3ec>
  10a122: 37 07 00 ff  	lui	a4, 1044480
  10a126: 7d 17        	addi	a4, a4, -1
  10a128: 79 8c        	and	s0, s0, a4
  10a12a: 13 08 05 40  	addi	a6, a0, 1024
  10a12e: 13 07 e0 7f  	li	a4, 2046
  10a132: 63 4a 07 01  	blt	a4, a6, 0x10a146 <__muldf3+0x404>
  10a136: 13 d7 37 00  	srli	a4, a5, 3
  10a13a: 93 17 d4 01  	slli	a5, s0, 29
  10a13e: d9 8f        	or	a5, a5, a4
  10a140: 0d 80        	srli	s0, s0, 3
  10a142: 42 87        	mv	a4, a6
  10a144: f1 b3        	j	0x109f10 <__muldf3+0x1ce>
  10a146: 89 47        	li	a5, 2
  10a148: 63 03 f9 02  	beq	s2, a5, 0x10a16e <__muldf3+0x42c>
  10a14c: 8d 47        	li	a5, 3
  10a14e: 63 08 f9 00  	beq	s2, a5, 0x10a15e <__muldf3+0x41c>
  10a152: 63 17 09 00  	bnez	s2, 0x10a160 <__muldf3+0x41e>
  10a156: 81 47        	li	a5, 0
  10a158: 13 07 f0 7f  	li	a4, 2047
  10a15c: 29 a0        	j	0x10a166 <__muldf3+0x424>
  10a15e: e5 dd        	beqz	a1, 0x10a156 <__muldf3+0x414>
  10a160: fd 57        	li	a5, -1
  10a162: 13 07 e0 7f  	li	a4, 2046
  10a166: 93 e4 54 00  	ori	s1, s1, 5
  10a16a: 3e 84        	mv	s0, a5
  10a16c: 55 b3        	j	0x109f10 <__muldf3+0x1ce>
  10a16e: e5 f5        	bnez	a1, 0x10a156 <__muldf3+0x414>
  10a170: c5 bf        	j	0x10a160 <__muldf3+0x41e>
  10a172: 05 47        	li	a4, 1
  10a174: 63 14 08 04  	bnez	a6, 0x10a1bc <__muldf3+0x47a>
  10a178: 93 f6 77 00  	andi	a3, a5, 7
  10a17c: 22 87        	mv	a4, s0
  10a17e: 9d ca        	beqz	a3, 0x10a1b4 <__muldf3+0x472>
  10a180: 89 46        	li	a3, 2
  10a182: 93 e4 14 00  	ori	s1, s1, 1
  10a186: 63 06 d9 02  	beq	s2, a3, 0x10a1b2 <__muldf3+0x470>
  10a18a: 8d 46        	li	a3, 3
  10a18c: 63 0f d9 00  	beq	s2, a3, 0x10a1aa <__muldf3+0x468>
  10a190: 63 12 09 02  	bnez	s2, 0x10a1b4 <__muldf3+0x472>
  10a194: 93 f6 f7 00  	andi	a3, a5, 15
  10a198: 11 46        	li	a2, 4
  10a19a: 63 8d c6 00  	beq	a3, a2, 0x10a1b4 <__muldf3+0x472>
  10a19e: 13 b7 c7 ff  	sltiu	a4, a5, -4
  10a1a2: 13 47 17 00  	xori	a4, a4, 1
  10a1a6: 22 97        	add	a4, a4, s0
  10a1a8: 31 a0        	j	0x10a1b4 <__muldf3+0x472>
  10a1aa: 89 e5        	bnez	a1, 0x10a1b4 <__muldf3+0x472>
  10a1ac: 13 b7 87 ff  	sltiu	a4, a5, -8
  10a1b0: cd bf        	j	0x10a1a2 <__muldf3+0x460>
  10a1b2: ed fd        	bnez	a1, 0x10a1ac <__muldf3+0x46a>
  10a1b4: 61 83        	srli	a4, a4, 24
  10a1b6: 13 47 17 00  	xori	a4, a4, 1
  10a1ba: 05 8b        	andi	a4, a4, 1
  10a1bc: 85 46        	li	a3, 1
  10a1be: b3 86 06 41  	sub	a3, a3, a6
  10a1c2: 13 06 80 03  	li	a2, 56
  10a1c6: 63 42 d6 0c  	blt	a2, a3, 0x10a28a <__muldf3+0x548>
  10a1ca: 7d 46        	li	a2, 31
  10a1cc: 63 4a d6 04  	blt	a2, a3, 0x10a220 <__muldf3+0x4de>
  10a1d0: 13 05 e5 41  	addi	a0, a0, 1054
  10a1d4: 33 16 a4 00  	sll	a2, s0, a0
  10a1d8: 33 d8 d7 00  	srl	a6, a5, a3
  10a1dc: b3 97 a7 00  	sll	a5, a5, a0
  10a1e0: 33 66 06 01  	or	a2, a2, a6
  10a1e4: b3 37 f0 00  	snez	a5, a5
  10a1e8: d1 8f        	or	a5, a5, a2
  10a1ea: 33 54 d4 00  	srl	s0, s0, a3
  10a1ee: 93 f6 77 00  	andi	a3, a5, 7
  10a1f2: ad c2        	beqz	a3, 0x10a254 <__muldf3+0x512>
  10a1f4: 89 46        	li	a3, 2
  10a1f6: 93 e4 14 00  	ori	s1, s1, 1
  10a1fa: 63 0c d9 04  	beq	s2, a3, 0x10a252 <__muldf3+0x510>
  10a1fe: 8d 46        	li	a3, 3
  10a200: 63 05 d9 04  	beq	s2, a3, 0x10a24a <__muldf3+0x508>
  10a204: 63 18 09 04  	bnez	s2, 0x10a254 <__muldf3+0x512>
  10a208: 93 f6 f7 00  	andi	a3, a5, 15
  10a20c: 11 46        	li	a2, 4
  10a20e: 63 83 c6 04  	beq	a3, a2, 0x10a254 <__muldf3+0x512>
  10a212: 93 86 47 00  	addi	a3, a5, 4
  10a216: b3 b7 f6 00  	sltu	a5, a3, a5
  10a21a: 3e 94        	add	s0, s0, a5
  10a21c: b6 87        	mv	a5, a3
  10a21e: 1d a8        	j	0x10a254 <__muldf3+0x512>
  10a220: 05 56        	li	a2, -31
  10a222: 33 06 06 41  	sub	a2, a2, a6
  10a226: 93 08 00 02  	li	a7, 32
  10a22a: 33 56 c4 00  	srl	a2, s0, a2
  10a22e: 01 48        	li	a6, 0
  10a230: 63 86 16 01  	beq	a3, a7, 0x10a23c <__muldf3+0x4fa>
  10a234: 13 05 e5 43  	addi	a0, a0, 1086
  10a238: 33 18 a4 00  	sll	a6, s0, a0
  10a23c: b3 67 f8 00  	or	a5, a6, a5
  10a240: b3 37 f0 00  	snez	a5, a5
  10a244: d1 8f        	or	a5, a5, a2
  10a246: 01 44        	li	s0, 0
  10a248: 5d b7        	j	0x10a1ee <__muldf3+0x4ac>
  10a24a: 89 e5        	bnez	a1, 0x10a254 <__muldf3+0x512>
  10a24c: 93 86 87 00  	addi	a3, a5, 8
  10a250: d9 b7        	j	0x10a216 <__muldf3+0x4d4>
  10a252: ed fd        	bnez	a1, 0x10a24c <__muldf3+0x50a>
  10a254: b7 06 80 00  	lui	a3, 2048
  10a258: e1 8e        	and	a3, a3, s0
  10a25a: 81 ca        	beqz	a3, 0x10a26a <__muldf3+0x528>
  10a25c: 93 e4 14 00  	ori	s1, s1, 1
  10a260: 01 44        	li	s0, 0
  10a262: 81 47        	li	a5, 0
  10a264: 05 e3        	bnez	a4, 0x10a284 <__muldf3+0x542>
  10a266: 05 47        	li	a4, 1
  10a268: 65 b1        	j	0x109f10 <__muldf3+0x1ce>
  10a26a: 93 d6 37 00  	srli	a3, a5, 3
  10a26e: 93 17 d4 01  	slli	a5, s0, 29
  10a272: d5 8f        	or	a5, a5, a3
  10a274: 0d 80        	srli	s0, s0, 3
  10a276: e3 0d 07 c8  	beqz	a4, 0x109f10 <__muldf3+0x1ce>
  10a27a: 13 f7 14 00  	andi	a4, s1, 1
  10a27e: e3 09 07 c8  	beqz	a4, 0x109f10 <__muldf3+0x1ce>
  10a282: 01 47        	li	a4, 0
  10a284: 93 e4 24 00  	ori	s1, s1, 2
  10a288: 61 b1        	j	0x109f10 <__muldf3+0x1ce>
  10a28a: c1 8f        	or	a5, a5, s0
  10a28c: 91 cf        	beqz	a5, 0x10a2a8 <__muldf3+0x566>
  10a28e: 89 47        	li	a5, 2
  10a290: 93 e4 14 00  	ori	s1, s1, 1
  10a294: 63 03 f9 02  	beq	s2, a5, 0x10a2ba <__muldf3+0x578>
  10a298: 8d 47        	li	a5, 3
  10a29a: 63 0c f9 00  	beq	s2, a5, 0x10a2b2 <__muldf3+0x570>
  10a29e: 85 47        	li	a5, 1
  10a2a0: 63 13 09 00  	bnez	s2, 0x10a2a6 <__muldf3+0x564>
  10a2a4: 95 47        	li	a5, 5
  10a2a6: 8d 83        	srli	a5, a5, 3
  10a2a8: 93 e4 24 00  	ori	s1, s1, 2
  10a2ac: 01 44        	li	s0, 0
  10a2ae: 01 47        	li	a4, 0
  10a2b0: 85 b1        	j	0x109f10 <__muldf3+0x1ce>
  10a2b2: a5 47        	li	a5, 9
  10a2b4: ed d9        	beqz	a1, 0x10a2a6 <__muldf3+0x564>
  10a2b6: 85 47        	li	a5, 1
  10a2b8: fd b7        	j	0x10a2a6 <__muldf3+0x564>
  10a2ba: a5 47        	li	a5, 9
  10a2bc: ed f5        	bnez	a1, 0x10a2a6 <__muldf3+0x564>
  10a2be: e5 bf        	j	0x10a2b6 <__muldf3+0x574>
  10a2c0: 01 44        	li	s0, 0
  10a2c2: 81 47        	li	a5, 0
  10a2c4: 13 07 f0 7f  	li	a4, 2047
  10a2c8: a1 b1        	j	0x109f10 <__muldf3+0x1ce>
  10a2ca: 37 04 08 00  	lui	s0, 128
  10a2ce: 81 47        	li	a5, 0
  10a2d0: 13 07 f0 7f  	li	a4, 2047
  10a2d4: 81 45        	li	a1, 0
  10a2d6: 2d b9        	j	0x109f10 <__muldf3+0x1ce>

0010a2d8 <__subdf3>:
  10a2d8: 01 11        	addi	sp, sp, -32
  10a2da: 06 ce        	sw	ra, 28(sp)
  10a2dc: 22 cc        	sw	s0, 24(sp)
  10a2de: 26 ca        	sw	s1, 20(sp)
  10a2e0: 4a c8        	sw	s2, 16(sp)
  10a2e2: 4e c6        	sw	s3, 12(sp)
  10a2e4: 52 c4        	sw	s4, 8(sp)
  10a2e6: f3 29 20 00  	frrm	s3
  10a2ea: b7 08 10 00  	lui	a7, 256
  10a2ee: fd 18        	addi	a7, a7, -1
  10a2f0: 33 f7 b8 00  	and	a4, a7, a1
  10a2f4: 13 d4 45 01  	srli	s0, a1, 20
  10a2f8: b3 f8 d8 00  	and	a7, a7, a3
  10a2fc: 93 d4 f5 01  	srli	s1, a1, 31
  10a300: 93 d5 46 01  	srli	a1, a3, 20
  10a304: 93 17 37 00  	slli	a5, a4, 3
  10a308: 13 d3 f6 01  	srli	t1, a3, 31
  10a30c: 13 57 d5 01  	srli	a4, a0, 29
  10a310: 93 56 d6 01  	srli	a3, a2, 29
  10a314: 8e 08        	slli	a7, a7, 3
  10a316: 13 18 36 00  	slli	a6, a2, 3
  10a31a: 93 f5 f5 7f  	andi	a1, a1, 2047
  10a31e: 13 06 f0 7f  	li	a2, 2047
  10a322: 5d 8f        	or	a4, a4, a5
  10a324: 13 74 f4 7f  	andi	s0, s0, 2047
  10a328: 93 17 35 00  	slli	a5, a0, 3
  10a32c: b3 e6 16 01  	or	a3, a3, a7
  10a330: 63 95 c5 00  	bne	a1, a2, 0x10a33a <__subdf3+0x62>
  10a334: 33 e6 06 01  	or	a2, a3, a6
  10a338: 19 e2        	bnez	a2, 0x10a33e <__subdf3+0x66>
  10a33a: 13 43 13 00  	xori	t1, t1, 1
  10a33e: 33 06 b4 40  	sub	a2, s0, a1
  10a342: 63 16 93 3c  	bne	t1, s1, 0x10a70e <__subdf3+0x436>
  10a346: 63 50 c0 12  	blez	a2, 0x10a466 <__subdf3+0x18e>
  10a34a: a9 e9        	bnez	a1, 0x10a39c <__subdf3+0xc4>
  10a34c: 33 e5 06 01  	or	a0, a3, a6
  10a350: 0d e1        	bnez	a0, 0x10a372 <__subdf3+0x9a>
  10a352: 93 06 f0 7f  	li	a3, 2047
  10a356: 01 44        	li	s0, 0
  10a358: 63 13 d6 24  	bne	a2, a3, 0x10a59e <__subdf3+0x2c6>
  10a35c: b3 66 f7 00  	or	a3, a4, a5
  10a360: 63 80 06 7a  	beqz	a3, 0x10ab00 <__subdf3+0x828>
  10a364: 37 04 40 00  	lui	s0, 1024
  10a368: 79 8c        	and	s0, s0, a4
  10a36a: 13 34 14 00  	seqz	s0, s0
  10a36e: 12 04        	slli	s0, s0, 4
  10a370: 3d a4        	j	0x10a59e <__subdf3+0x2c6>
  10a372: 13 05 f6 ff  	addi	a0, a2, -1
  10a376: 01 e9        	bnez	a0, 0x10a386 <__subdf3+0xae>
  10a378: 3e 98        	add	a6, a6, a5
  10a37a: ba 96        	add	a3, a3, a4
  10a37c: b3 37 f8 00  	sltu	a5, a6, a5
  10a380: be 96        	add	a3, a3, a5
  10a382: 05 46        	li	a2, 1
  10a384: 41 a0        	j	0x10a404 <__subdf3+0x12c>
  10a386: 93 08 f0 7f  	li	a7, 2047
  10a38a: 63 1f 16 03  	bne	a2, a7, 0x10a3c8 <__subdf3+0xf0>
  10a38e: b3 66 f7 00  	or	a3, a4, a5
  10a392: e9 fa        	bnez	a3, 0x10a364 <__subdf3+0x8c>
  10a394: 01 47        	li	a4, 0
  10a396: 81 47        	li	a5, 0
  10a398: 01 44        	li	s0, 0
  10a39a: 8d ac        	j	0x10a60c <__subdf3+0x334>
  10a39c: 93 05 f0 7f  	li	a1, 2047
  10a3a0: 63 10 b4 02  	bne	s0, a1, 0x10a3c0 <__subdf3+0xe8>
  10a3a4: b3 66 f7 00  	or	a3, a4, a5
  10a3a8: 63 8f 06 74  	beqz	a3, 0x10ab06 <__subdf3+0x82e>
  10a3ac: b7 06 40 00  	lui	a3, 1024
  10a3b0: f9 8e        	and	a3, a3, a4
  10a3b2: 13 06 f0 7f  	li	a2, 2047
  10a3b6: 81 45        	li	a1, 0
  10a3b8: 63 90 06 2e  	bnez	a3, 0x10a698 <__subdf3+0x3c0>
  10a3bc: 41 44        	li	s0, 16
  10a3be: c5 a2        	j	0x10a59e <__subdf3+0x2c6>
  10a3c0: b7 05 80 00  	lui	a1, 2048
  10a3c4: cd 8e        	or	a3, a3, a1
  10a3c6: 32 85        	mv	a0, a2
  10a3c8: 13 06 80 03  	li	a2, 56
  10a3cc: 63 48 a6 08  	blt	a2, a0, 0x10a45c <__subdf3+0x184>
  10a3d0: 7d 46        	li	a2, 31
  10a3d2: 63 4f a6 04  	blt	a2, a0, 0x10a430 <__subdf3+0x158>
  10a3d6: 13 06 00 02  	li	a2, 32
  10a3da: 09 8e        	sub	a2, a2, a0
  10a3dc: b3 95 c6 00  	sll	a1, a3, a2
  10a3e0: b3 58 a8 00  	srl	a7, a6, a0
  10a3e4: 33 18 c8 00  	sll	a6, a6, a2
  10a3e8: b3 e5 15 01  	or	a1, a1, a7
  10a3ec: 33 38 00 01  	snez	a6, a6
  10a3f0: 33 e8 05 01  	or	a6, a1, a6
  10a3f4: b3 d6 a6 00  	srl	a3, a3, a0
  10a3f8: 3e 98        	add	a6, a6, a5
  10a3fa: ba 96        	add	a3, a3, a4
  10a3fc: b3 37 f8 00  	sltu	a5, a6, a5
  10a400: be 96        	add	a3, a3, a5
  10a402: 22 86        	mv	a2, s0
  10a404: b7 07 80 00  	lui	a5, 2048
  10a408: f5 8f        	and	a5, a5, a3
  10a40a: ad cb        	beqz	a5, 0x10a47c <__subdf3+0x1a4>
  10a40c: 05 06        	addi	a2, a2, 1
  10a40e: 93 07 f0 7f  	li	a5, 2047
  10a412: 63 0e f6 2c  	beq	a2, a5, 0x10a6ee <__subdf3+0x416>
  10a416: 37 07 80 ff  	lui	a4, 1046528
  10a41a: 7d 17        	addi	a4, a4, -1
  10a41c: 93 57 18 00  	srli	a5, a6, 1
  10a420: 75 8f        	and	a4, a4, a3
  10a422: 13 78 18 00  	andi	a6, a6, 1
  10a426: 33 e8 07 01  	or	a6, a5, a6
  10a42a: 93 17 f7 01  	slli	a5, a4, 31
  10a42e: 8d a4        	j	0x10a690 <__subdf3+0x3b8>
  10a430: 93 05 05 fe  	addi	a1, a0, -32
  10a434: 93 08 00 02  	li	a7, 32
  10a438: b3 d5 b6 00  	srl	a1, a3, a1
  10a43c: 01 46        	li	a2, 0
  10a43e: 63 07 15 01  	beq	a0, a7, 0x10a44c <__subdf3+0x174>
  10a442: 13 06 00 04  	li	a2, 64
  10a446: 09 8e        	sub	a2, a2, a0
  10a448: 33 96 c6 00  	sll	a2, a3, a2
  10a44c: 33 68 06 01  	or	a6, a2, a6
  10a450: 33 38 00 01  	snez	a6, a6
  10a454: 33 e8 05 01  	or	a6, a1, a6
  10a458: 81 46        	li	a3, 0
  10a45a: 79 bf        	j	0x10a3f8 <__subdf3+0x120>
  10a45c: 33 e8 06 01  	or	a6, a3, a6
  10a460: 33 38 00 01  	snez	a6, a6
  10a464: d5 bf        	j	0x10a458 <__subdf3+0x180>
  10a466: 65 ce        	beqz	a2, 0x10a55e <__subdf3+0x286>
  10a468: 33 86 85 40  	sub	a2, a1, s0
  10a46c: 29 e8        	bnez	s0, 0x10a4be <__subdf3+0x1e6>
  10a46e: 33 65 f7 00  	or	a0, a4, a5
  10a472: 11 e9        	bnez	a0, 0x10a486 <__subdf3+0x1ae>
  10a474: 93 07 f0 7f  	li	a5, 2047
  10a478: 63 06 f6 02  	beq	a2, a5, 0x10a4a4 <__subdf3+0x1cc>
  10a47c: 36 87        	mv	a4, a3
  10a47e: c2 87        	mv	a5, a6
  10a480: 63 0e 06 46  	beqz	a2, 0x10a8fc <__subdf3+0x624>
  10a484: 09 ac        	j	0x10a696 <__subdf3+0x3be>
  10a486: 93 08 f6 ff  	addi	a7, a2, -1
  10a48a: 63 99 08 00  	bnez	a7, 0x10a49c <__subdf3+0x1c4>
  10a48e: c2 97        	add	a5, a5, a6
  10a490: 33 b8 07 01  	sltu	a6, a5, a6
  10a494: ba 96        	add	a3, a3, a4
  10a496: c2 96        	add	a3, a3, a6
  10a498: 3e 88        	mv	a6, a5
  10a49a: e5 b5        	j	0x10a382 <__subdf3+0xaa>
  10a49c: 13 05 f0 7f  	li	a0, 2047
  10a4a0: 63 16 a6 04  	bne	a2, a0, 0x10a4ec <__subdf3+0x214>
  10a4a4: b3 e7 06 01  	or	a5, a3, a6
  10a4a8: 01 47        	li	a4, 0
  10a4aa: 63 81 07 16  	beqz	a5, 0x10a60c <__subdf3+0x334>
  10a4ae: b7 07 40 00  	lui	a5, 1024
  10a4b2: f5 8f        	and	a5, a5, a3
  10a4b4: 36 87        	mv	a4, a3
  10a4b6: 63 9b 07 64  	bnez	a5, 0x10ab0c <__subdf3+0x834>
  10a4ba: c2 87        	mv	a5, a6
  10a4bc: 15 a0        	j	0x10a4e0 <__subdf3+0x208>
  10a4be: 13 05 f0 7f  	li	a0, 2047
  10a4c2: 63 91 a5 02  	bne	a1, a0, 0x10a4e4 <__subdf3+0x20c>
  10a4c6: b3 e7 06 01  	or	a5, a3, a6
  10a4ca: 63 8d 07 60  	beqz	a5, 0x10aae4 <__subdf3+0x80c>
  10a4ce: b7 07 40 00  	lui	a5, 1024
  10a4d2: f5 8f        	and	a5, a5, a3
  10a4d4: 36 87        	mv	a4, a3
  10a4d6: 63 9b 07 60  	bnez	a5, 0x10aaec <__subdf3+0x814>
  10a4da: c2 87        	mv	a5, a6
  10a4dc: 13 06 f0 7f  	li	a2, 2047
  10a4e0: 81 45        	li	a1, 0
  10a4e2: e9 bd        	j	0x10a3bc <__subdf3+0xe4>
  10a4e4: 37 05 80 00  	lui	a0, 2048
  10a4e8: 49 8f        	or	a4, a4, a0
  10a4ea: b2 88        	mv	a7, a2
  10a4ec: 13 06 80 03  	li	a2, 56
  10a4f0: 63 43 16 07  	blt	a2, a7, 0x10a556 <__subdf3+0x27e>
  10a4f4: 7d 46        	li	a2, 31
  10a4f6: 63 4b 16 03  	blt	a2, a7, 0x10a52c <__subdf3+0x254>
  10a4fa: 13 05 00 02  	li	a0, 32
  10a4fe: 33 05 15 41  	sub	a0, a0, a7
  10a502: 33 16 a7 00  	sll	a2, a4, a0
  10a506: 33 d3 17 01  	srl	t1, a5, a7
  10a50a: b3 97 a7 00  	sll	a5, a5, a0
  10a50e: 33 66 66 00  	or	a2, a2, t1
  10a512: b3 37 f0 00  	snez	a5, a5
  10a516: d1 8f        	or	a5, a5, a2
  10a518: 33 57 17 01  	srl	a4, a4, a7
  10a51c: c2 97        	add	a5, a5, a6
  10a51e: 36 97        	add	a4, a4, a3
  10a520: b3 b6 07 01  	sltu	a3, a5, a6
  10a524: ba 96        	add	a3, a3, a4
  10a526: 3e 88        	mv	a6, a5
  10a528: 2e 86        	mv	a2, a1
  10a52a: e9 bd        	j	0x10a404 <__subdf3+0x12c>
  10a52c: 13 86 08 fe  	addi	a2, a7, -32
  10a530: 13 03 00 02  	li	t1, 32
  10a534: 33 56 c7 00  	srl	a2, a4, a2
  10a538: 01 45        	li	a0, 0
  10a53a: 63 88 68 00  	beq	a7, t1, 0x10a54a <__subdf3+0x272>
  10a53e: 13 05 00 04  	li	a0, 64
  10a542: 33 05 15 41  	sub	a0, a0, a7
  10a546: 33 15 a7 00  	sll	a0, a4, a0
  10a54a: c9 8f        	or	a5, a5, a0
  10a54c: b3 37 f0 00  	snez	a5, a5
  10a550: d1 8f        	or	a5, a5, a2
  10a552: 01 47        	li	a4, 0
  10a554: e1 b7        	j	0x10a51c <__subdf3+0x244>
  10a556: d9 8f        	or	a5, a5, a4
  10a558: b3 37 f0 00  	snez	a5, a5
  10a55c: dd bf        	j	0x10a552 <__subdf3+0x27a>
  10a55e: 13 06 14 00  	addi	a2, s0, 1
  10a562: 13 75 e6 7f  	andi	a0, a2, 2046
  10a566: 63 18 05 10  	bnez	a0, 0x10a676 <__subdf3+0x39e>
  10a56a: 33 66 f7 00  	or	a2, a4, a5
  10a56e: 39 e0        	bnez	s0, 0x10a5b4 <__subdf3+0x2dc>
  10a570: 63 0d 06 52  	beqz	a2, 0x10aaaa <__subdf3+0x7d2>
  10a574: 33 e6 06 01  	or	a2, a3, a6
  10a578: 63 02 06 38  	beqz	a2, 0x10a8fc <__subdf3+0x624>
  10a57c: 3e 98        	add	a6, a6, a5
  10a57e: b3 37 f8 00  	sltu	a5, a6, a5
  10a582: 36 97        	add	a4, a4, a3
  10a584: 3e 97        	add	a4, a4, a5
  10a586: b7 07 80 00  	lui	a5, 2048
  10a58a: f9 8f        	and	a5, a5, a4
  10a58c: 63 80 07 52  	beqz	a5, 0x10aaac <__subdf3+0x7d4>
  10a590: b7 07 80 ff  	lui	a5, 1046528
  10a594: fd 17        	addi	a5, a5, -1
  10a596: 7d 8f        	and	a4, a4, a5
  10a598: 81 45        	li	a1, 0
  10a59a: c2 87        	mv	a5, a6
  10a59c: 05 46        	li	a2, 1
  10a59e: 93 f6 77 00  	andi	a3, a5, 7
  10a5a2: 63 90 06 12  	bnez	a3, 0x10a6c2 <__subdf3+0x3ea>
  10a5a6: bd c1        	beqz	a1, 0x10a60c <__subdf3+0x334>
  10a5a8: 93 76 14 00  	andi	a3, s0, 1
  10a5ac: a5 c2        	beqz	a3, 0x10a60c <__subdf3+0x334>
  10a5ae: 13 64 24 00  	ori	s0, s0, 2
  10a5b2: a9 a8        	j	0x10a60c <__subdf3+0x334>
  10a5b4: 13 05 f0 7f  	li	a0, 2047
  10a5b8: 63 15 a4 02  	bne	s0, a0, 0x10a5e2 <__subdf3+0x30a>
  10a5bc: 63 06 06 5c  	beqz	a2, 0x10ab88 <__subdf3+0x8b0>
  10a5c0: 37 04 40 00  	lui	s0, 1024
  10a5c4: 79 8c        	and	s0, s0, a4
  10a5c6: 13 34 14 00  	seqz	s0, s0
  10a5ca: 12 04        	slli	s0, s0, 4
  10a5cc: 63 97 a5 02  	bne	a1, a0, 0x10a5fa <__subdf3+0x322>
  10a5d0: b3 e5 06 01  	or	a1, a3, a6
  10a5d4: 91 c9        	beqz	a1, 0x10a5e8 <__subdf3+0x310>
  10a5d6: b7 05 40 00  	lui	a1, 1024
  10a5da: f5 8d        	and	a1, a1, a3
  10a5dc: 91 e5        	bnez	a1, 0x10a5e8 <__subdf3+0x310>
  10a5de: 41 44        	li	s0, 16
  10a5e0: 21 a0        	j	0x10a5e8 <__subdf3+0x310>
  10a5e2: 01 44        	li	s0, 0
  10a5e4: e3 86 a5 fe  	beq	a1, a0, 0x10a5d0 <__subdf3+0x2f8>
  10a5e8: 09 ea        	bnez	a2, 0x10a5fa <__subdf3+0x322>
  10a5ea: 36 87        	mv	a4, a3
  10a5ec: c2 87        	mv	a5, a6
  10a5ee: 81 45        	li	a1, 0
  10a5f0: 13 06 f0 7f  	li	a2, 2047
  10a5f4: 6d b7        	j	0x10a59e <__subdf3+0x2c6>
  10a5f6: 01 44        	li	s0, 0
  10a5f8: e1 bf        	j	0x10a5d0 <__subdf3+0x2f8>
  10a5fa: b3 e6 06 01  	or	a3, a3, a6
  10a5fe: e5 da        	beqz	a3, 0x10a5ee <__subdf3+0x316>
  10a600: 81 44        	li	s1, 0
  10a602: 37 07 40 00  	lui	a4, 1024
  10a606: 81 47        	li	a5, 0
  10a608: 13 06 f0 7f  	li	a2, 2047
  10a60c: b7 06 80 00  	lui	a3, 2048
  10a610: f9 8e        	and	a3, a3, a4
  10a612: 91 ca        	beqz	a3, 0x10a626 <__subdf3+0x34e>
  10a614: 05 06        	addi	a2, a2, 1
  10a616: 93 06 f0 7f  	li	a3, 2047
  10a61a: 63 00 d6 54  	beq	a2, a3, 0x10ab5a <__subdf3+0x882>
  10a61e: b7 06 80 ff  	lui	a3, 1046528
  10a622: fd 16        	addi	a3, a3, -1
  10a624: 75 8f        	and	a4, a4, a3
  10a626: 13 d5 37 00  	srli	a0, a5, 3
  10a62a: 93 06 f0 7f  	li	a3, 2047
  10a62e: 93 17 d7 01  	slli	a5, a4, 29
  10a632: c9 8f        	or	a5, a5, a0
  10a634: 0d 83        	srli	a4, a4, 3
  10a636: 63 19 d6 00  	bne	a2, a3, 0x10a648 <__subdf3+0x370>
  10a63a: d9 8f        	or	a5, a5, a4
  10a63c: 01 47        	li	a4, 0
  10a63e: 89 c7        	beqz	a5, 0x10a648 <__subdf3+0x370>
  10a640: 37 07 08 00  	lui	a4, 128
  10a644: 81 47        	li	a5, 0
  10a646: 81 44        	li	s1, 0
  10a648: b7 06 f0 7f  	lui	a3, 524032
  10a64c: 52 06        	slli	a2, a2, 20
  10a64e: 32 07        	slli	a4, a4, 12
  10a650: 75 8e        	and	a2, a2, a3
  10a652: 31 83        	srli	a4, a4, 12
  10a654: 51 8f        	or	a4, a4, a2
  10a656: fe 04        	slli	s1, s1, 31
  10a658: b3 66 97 00  	or	a3, a4, s1
  10a65c: 3e 85        	mv	a0, a5
  10a65e: b6 85        	mv	a1, a3
  10a660: 19 c0        	beqz	s0, 0x10a666 <__subdf3+0x38e>
  10a662: 73 20 14 00  	csrs	fflags, s0
  10a666: f2 40        	lw	ra, 28(sp)
  10a668: 62 44        	lw	s0, 24(sp)
  10a66a: d2 44        	lw	s1, 20(sp)
  10a66c: 42 49        	lw	s2, 16(sp)
  10a66e: b2 49        	lw	s3, 12(sp)
  10a670: 22 4a        	lw	s4, 8(sp)
  10a672: 05 61        	addi	sp, sp, 32
  10a674: 82 80        	ret
  10a676: 93 05 f0 7f  	li	a1, 2047
  10a67a: 63 01 b6 02  	beq	a2, a1, 0x10a69c <__subdf3+0x3c4>
  10a67e: 3e 98        	add	a6, a6, a5
  10a680: b3 37 f8 00  	sltu	a5, a6, a5
  10a684: 36 97        	add	a4, a4, a3
  10a686: 3e 97        	add	a4, a4, a5
  10a688: 93 17 f7 01  	slli	a5, a4, 31
  10a68c: 13 58 18 00  	srli	a6, a6, 1
  10a690: b3 e7 07 01  	or	a5, a5, a6
  10a694: 05 83        	srli	a4, a4, 1
  10a696: 81 45        	li	a1, 0
  10a698: 01 44        	li	s0, 0
  10a69a: 11 b7        	j	0x10a59e <__subdf3+0x2c6>
  10a69c: 63 86 09 00  	beqz	s3, 0x10a6a8 <__subdf3+0x3d0>
  10a6a0: 8d 47        	li	a5, 3
  10a6a2: 63 96 f9 00  	bne	s3, a5, 0x10a6ae <__subdf3+0x3d6>
  10a6a6: 81 e8        	bnez	s1, 0x10a6b6 <__subdf3+0x3de>
  10a6a8: 13 06 f0 7f  	li	a2, 2047
  10a6ac: 81 a8        	j	0x10a6fc <__subdf3+0x424>
  10a6ae: 89 47        	li	a5, 2
  10a6b0: 63 93 f9 00  	bne	s3, a5, 0x10a6b6 <__subdf3+0x3de>
  10a6b4: f5 f8        	bnez	s1, 0x10a6a8 <__subdf3+0x3d0>
  10a6b6: 81 45        	li	a1, 0
  10a6b8: 7d 57        	li	a4, -1
  10a6ba: fd 57        	li	a5, -1
  10a6bc: 13 06 e0 7f  	li	a2, 2046
  10a6c0: 15 44        	li	s0, 5
  10a6c2: 89 46        	li	a3, 2
  10a6c4: 13 64 14 00  	ori	s0, s0, 1
  10a6c8: 63 85 d9 48  	beq	s3, a3, 0x10ab52 <__subdf3+0x87a>
  10a6cc: 8d 46        	li	a3, 3
  10a6ce: 63 8e d9 46  	beq	s3, a3, 0x10ab4a <__subdf3+0x872>
  10a6d2: 63 91 09 48  	bnez	s3, 0x10ab54 <__subdf3+0x87c>
  10a6d6: 93 f6 f7 00  	andi	a3, a5, 15
  10a6da: 11 45        	li	a0, 4
  10a6dc: 63 8c a6 46  	beq	a3, a0, 0x10ab54 <__subdf3+0x87c>
  10a6e0: 93 86 47 00  	addi	a3, a5, 4
  10a6e4: b3 b7 f6 00  	sltu	a5, a3, a5
  10a6e8: 3e 97        	add	a4, a4, a5
  10a6ea: b6 87        	mv	a5, a3
  10a6ec: a5 a1        	j	0x10ab54 <__subdf3+0x87c>
  10a6ee: 63 87 09 00  	beqz	s3, 0x10a6fc <__subdf3+0x424>
  10a6f2: 8d 47        	li	a5, 3
  10a6f4: 63 98 f9 00  	bne	s3, a5, 0x10a704 <__subdf3+0x42c>
  10a6f8: 63 9e 04 3e  	bnez	s1, 0x10aaf4 <__subdf3+0x81c>
  10a6fc: 01 47        	li	a4, 0
  10a6fe: 81 47        	li	a5, 0
  10a700: 15 44        	li	s0, 5
  10a702: 29 b7        	j	0x10a60c <__subdf3+0x334>
  10a704: 89 47        	li	a5, 2
  10a706: 63 97 f9 3e  	bne	s3, a5, 0x10aaf4 <__subdf3+0x81c>
  10a70a: ed f8        	bnez	s1, 0x10a6fc <__subdf3+0x424>
  10a70c: 6d b7        	j	0x10a6b6 <__subdf3+0x3de>
  10a70e: 63 57 c0 0c  	blez	a2, 0x10a7dc <__subdf3+0x504>
  10a712: c9 e1        	bnez	a1, 0x10a794 <__subdf3+0x4bc>
  10a714: 33 e5 06 01  	or	a0, a3, a6
  10a718: e3 0d 05 c2  	beqz	a0, 0x10a352 <__subdf3+0x7a>
  10a71c: 13 05 f6 ff  	addi	a0, a2, -1
  10a720: 11 e9        	bnez	a0, 0x10a734 <__subdf3+0x45c>
  10a722: 33 88 07 41  	sub	a6, a5, a6
  10a726: b3 06 d7 40  	sub	a3, a4, a3
  10a72a: b3 b7 07 01  	sltu	a5, a5, a6
  10a72e: 9d 8e        	sub	a3, a3, a5
  10a730: 05 46        	li	a2, 1
  10a732: a9 a0        	j	0x10a77c <__subdf3+0x4a4>
  10a734: 93 08 f0 7f  	li	a7, 2047
  10a738: e3 0b 16 c5  	beq	a2, a7, 0x10a38e <__subdf3+0xb6>
  10a73c: 13 06 80 03  	li	a2, 56
  10a740: 63 49 a6 08  	blt	a2, a0, 0x10a7d2 <__subdf3+0x4fa>
  10a744: 7d 46        	li	a2, 31
  10a746: 63 40 a6 06  	blt	a2, a0, 0x10a7a6 <__subdf3+0x4ce>
  10a74a: 13 06 00 02  	li	a2, 32
  10a74e: 09 8e        	sub	a2, a2, a0
  10a750: b3 95 c6 00  	sll	a1, a3, a2
  10a754: b3 58 a8 00  	srl	a7, a6, a0
  10a758: 33 18 c8 00  	sll	a6, a6, a2
  10a75c: b3 e5 15 01  	or	a1, a1, a7
  10a760: 33 38 00 01  	snez	a6, a6
  10a764: 33 e8 05 01  	or	a6, a1, a6
  10a768: b3 d6 a6 00  	srl	a3, a3, a0
  10a76c: 33 88 07 41  	sub	a6, a5, a6
  10a770: b3 06 d7 40  	sub	a3, a4, a3
  10a774: b3 b7 07 01  	sltu	a5, a5, a6
  10a778: 9d 8e        	sub	a3, a3, a5
  10a77a: 22 86        	mv	a2, s0
  10a77c: 37 09 80 00  	lui	s2, 2048
  10a780: b3 f7 26 01  	and	a5, a3, s2
  10a784: e3 8c 07 ce  	beqz	a5, 0x10a47c <__subdf3+0x1a4>
  10a788: 7d 19        	addi	s2, s2, -1
  10a78a: 33 f9 26 01  	and	s2, a3, s2
  10a78e: 42 8a        	mv	s4, a6
  10a790: 32 84        	mv	s0, a2
  10a792: b5 a4        	j	0x10a9fe <__subdf3+0x726>
  10a794: 93 05 f0 7f  	li	a1, 2047
  10a798: e3 06 b4 c0  	beq	s0, a1, 0x10a3a4 <__subdf3+0xcc>
  10a79c: b7 05 80 00  	lui	a1, 2048
  10a7a0: cd 8e        	or	a3, a3, a1
  10a7a2: 32 85        	mv	a0, a2
  10a7a4: 61 bf        	j	0x10a73c <__subdf3+0x464>
  10a7a6: 93 05 05 fe  	addi	a1, a0, -32
  10a7aa: 93 08 00 02  	li	a7, 32
  10a7ae: b3 d5 b6 00  	srl	a1, a3, a1
  10a7b2: 01 46        	li	a2, 0
  10a7b4: 63 07 15 01  	beq	a0, a7, 0x10a7c2 <__subdf3+0x4ea>
  10a7b8: 13 06 00 04  	li	a2, 64
  10a7bc: 09 8e        	sub	a2, a2, a0
  10a7be: 33 96 c6 00  	sll	a2, a3, a2
  10a7c2: 33 68 06 01  	or	a6, a2, a6
  10a7c6: 33 38 00 01  	snez	a6, a6
  10a7ca: 33 e8 05 01  	or	a6, a1, a6
  10a7ce: 81 46        	li	a3, 0
  10a7d0: 71 bf        	j	0x10a76c <__subdf3+0x494>
  10a7d2: 33 e8 06 01  	or	a6, a3, a6
  10a7d6: 33 38 00 01  	snez	a6, a6
  10a7da: d5 bf        	j	0x10a7ce <__subdf3+0x4f6>
  10a7dc: 6d ce        	beqz	a2, 0x10a8d6 <__subdf3+0x5fe>
  10a7de: 33 86 85 40  	sub	a2, a1, s0
  10a7e2: 39 e4        	bnez	s0, 0x10a830 <__subdf3+0x558>
  10a7e4: 33 65 f7 00  	or	a0, a4, a5
  10a7e8: 09 e5        	bnez	a0, 0x10a7f2 <__subdf3+0x51a>
  10a7ea: 93 07 f0 7f  	li	a5, 2047
  10a7ee: 9a 84        	mv	s1, t1
  10a7f0: 61 b1        	j	0x10a478 <__subdf3+0x1a0>
  10a7f2: 93 08 f6 ff  	addi	a7, a2, -1
  10a7f6: 63 9c 08 00  	bnez	a7, 0x10a80e <__subdf3+0x536>
  10a7fa: b3 07 f8 40  	sub	a5, a6, a5
  10a7fe: 33 38 f8 00  	sltu	a6, a6, a5
  10a802: 99 8e        	sub	a3, a3, a4
  10a804: b3 86 06 41  	sub	a3, a3, a6
  10a808: 9a 84        	mv	s1, t1
  10a80a: 3e 88        	mv	a6, a5
  10a80c: 15 b7        	j	0x10a730 <__subdf3+0x458>
  10a80e: 13 05 f0 7f  	li	a0, 2047
  10a812: 63 15 a6 04  	bne	a2, a0, 0x10a85c <__subdf3+0x584>
  10a816: b3 e7 06 01  	or	a5, a3, a6
  10a81a: 63 8c 07 2e  	beqz	a5, 0x10ab12 <__subdf3+0x83a>
  10a81e: b7 07 40 00  	lui	a5, 1024
  10a822: f5 8f        	and	a5, a5, a3
  10a824: 36 87        	mv	a4, a3
  10a826: 63 99 07 2e  	bnez	a5, 0x10ab18 <__subdf3+0x840>
  10a82a: c2 87        	mv	a5, a6
  10a82c: 9a 84        	mv	s1, t1
  10a82e: 4d b9        	j	0x10a4e0 <__subdf3+0x208>
  10a830: 13 05 f0 7f  	li	a0, 2047
  10a834: 63 90 a5 02  	bne	a1, a0, 0x10a854 <__subdf3+0x57c>
  10a838: b3 e7 06 01  	or	a5, a3, a6
  10a83c: 63 81 07 2e  	beqz	a5, 0x10ab1e <__subdf3+0x846>
  10a840: b7 07 40 00  	lui	a5, 1024
  10a844: f5 8f        	and	a5, a5, a3
  10a846: 36 87        	mv	a4, a3
  10a848: 63 90 07 2e  	bnez	a5, 0x10ab28 <__subdf3+0x850>
  10a84c: c2 87        	mv	a5, a6
  10a84e: 13 06 f0 7f  	li	a2, 2047
  10a852: e9 bf        	j	0x10a82c <__subdf3+0x554>
  10a854: 37 05 80 00  	lui	a0, 2048
  10a858: 49 8f        	or	a4, a4, a0
  10a85a: b2 88        	mv	a7, a2
  10a85c: 13 06 80 03  	li	a2, 56
  10a860: 63 47 16 07  	blt	a2, a7, 0x10a8ce <__subdf3+0x5f6>
  10a864: 7d 46        	li	a2, 31
  10a866: 63 4f 16 03  	blt	a2, a7, 0x10a8a4 <__subdf3+0x5cc>
  10a86a: 13 05 00 02  	li	a0, 32
  10a86e: 33 05 15 41  	sub	a0, a0, a7
  10a872: 33 16 a7 00  	sll	a2, a4, a0
  10a876: 33 de 17 01  	srl	t3, a5, a7
  10a87a: b3 97 a7 00  	sll	a5, a5, a0
  10a87e: 33 66 c6 01  	or	a2, a2, t3
  10a882: b3 37 f0 00  	snez	a5, a5
  10a886: d1 8f        	or	a5, a5, a2
  10a888: 33 57 17 01  	srl	a4, a4, a7
  10a88c: b3 07 f8 40  	sub	a5, a6, a5
  10a890: 33 87 e6 40  	sub	a4, a3, a4
  10a894: b3 36 f8 00  	sltu	a3, a6, a5
  10a898: b3 06 d7 40  	sub	a3, a4, a3
  10a89c: 3e 88        	mv	a6, a5
  10a89e: 2e 86        	mv	a2, a1
  10a8a0: 9a 84        	mv	s1, t1
  10a8a2: e9 bd        	j	0x10a77c <__subdf3+0x4a4>
  10a8a4: 13 86 08 fe  	addi	a2, a7, -32
  10a8a8: 13 0e 00 02  	li	t3, 32
  10a8ac: 33 56 c7 00  	srl	a2, a4, a2
  10a8b0: 01 45        	li	a0, 0
  10a8b2: 63 88 c8 01  	beq	a7, t3, 0x10a8c2 <__subdf3+0x5ea>
  10a8b6: 13 05 00 04  	li	a0, 64
  10a8ba: 33 05 15 41  	sub	a0, a0, a7
  10a8be: 33 15 a7 00  	sll	a0, a4, a0
  10a8c2: c9 8f        	or	a5, a5, a0
  10a8c4: b3 37 f0 00  	snez	a5, a5
  10a8c8: d1 8f        	or	a5, a5, a2
  10a8ca: 01 47        	li	a4, 0
  10a8cc: c1 b7        	j	0x10a88c <__subdf3+0x5b4>
  10a8ce: d9 8f        	or	a5, a5, a4
  10a8d0: b3 37 f0 00  	snez	a5, a5
  10a8d4: dd bf        	j	0x10a8ca <__subdf3+0x5f2>
  10a8d6: 13 06 14 00  	addi	a2, s0, 1
  10a8da: 13 76 e6 7f  	andi	a2, a2, 2046
  10a8de: 7d ea        	bnez	a2, 0x10a9d4 <__subdf3+0x6fc>
  10a8e0: 33 65 f7 00  	or	a0, a4, a5
  10a8e4: 33 e6 06 01  	or	a2, a3, a6
  10a8e8: 55 e0        	bnez	s0, 0x10a98c <__subdf3+0x6b4>
  10a8ea: 2d e1        	bnez	a0, 0x10a94c <__subdf3+0x674>
  10a8ec: 63 12 06 1c  	bnez	a2, 0x10aab0 <__subdf3+0x7d8>
  10a8f0: 93 84 e9 ff  	addi	s1, s3, -2
  10a8f4: 93 b4 14 00  	seqz	s1, s1
  10a8f8: 01 47        	li	a4, 0
  10a8fa: 81 47        	li	a5, 0
  10a8fc: b3 e6 e7 00  	or	a3, a5, a4
  10a900: 63 81 06 24  	beqz	a3, 0x10ab42 <__subdf3+0x86a>
  10a904: 93 d6 f7 01  	srli	a3, a5, 31
  10a908: 93 15 17 00  	slli	a1, a4, 1
  10a90c: b6 95        	add	a1, a1, a3
  10a90e: 93 96 17 00  	slli	a3, a5, 1
  10a912: 13 f6 76 00  	andi	a2, a3, 7
  10a916: 01 44        	li	s0, 0
  10a918: 05 c6        	beqz	a2, 0x10a940 <__subdf3+0x668>
  10a91a: 09 46        	li	a2, 2
  10a91c: 63 8a c9 1a  	beq	s3, a2, 0x10aad0 <__subdf3+0x7f8>
  10a920: 0d 46        	li	a2, 3
  10a922: 63 8d c9 18  	beq	s3, a2, 0x10aabc <__subdf3+0x7e4>
  10a926: 05 44        	li	s0, 1
  10a928: 63 9c 09 00  	bnez	s3, 0x10a940 <__subdf3+0x668>
  10a92c: 13 f6 f6 00  	andi	a2, a3, 15
  10a930: 11 45        	li	a0, 4
  10a932: 63 07 a6 00  	beq	a2, a0, 0x10a940 <__subdf3+0x668>
  10a936: 93 b6 c6 ff  	sltiu	a3, a3, -4
  10a93a: 93 c6 16 00  	xori	a3, a3, 1
  10a93e: b6 95        	add	a1, a1, a3
  10a940: e1 81        	srli	a1, a1, 24
  10a942: 93 c5 15 00  	xori	a1, a1, 1
  10a946: 85 89        	andi	a1, a1, 1
  10a948: 01 46        	li	a2, 0
  10a94a: 91 b9        	j	0x10a59e <__subdf3+0x2c6>
  10a94c: 45 da        	beqz	a2, 0x10a8fc <__subdf3+0x624>
  10a94e: b3 85 07 41  	sub	a1, a5, a6
  10a952: 33 b5 b7 00  	sltu	a0, a5, a1
  10a956: 33 06 d7 40  	sub	a2, a4, a3
  10a95a: 09 8e        	sub	a2, a2, a0
  10a95c: 37 05 80 00  	lui	a0, 2048
  10a960: 71 8d        	and	a0, a0, a2
  10a962: 19 c9        	beqz	a0, 0x10a978 <__subdf3+0x6a0>
  10a964: b3 07 f8 40  	sub	a5, a6, a5
  10a968: 33 87 e6 40  	sub	a4, a3, a4
  10a96c: 33 38 f8 00  	sltu	a6, a6, a5
  10a970: 33 07 07 41  	sub	a4, a4, a6
  10a974: 9a 84        	mv	s1, t1
  10a976: 59 b7        	j	0x10a8fc <__subdf3+0x624>
  10a978: b3 e7 c5 00  	or	a5, a1, a2
  10a97c: 63 9d 07 12  	bnez	a5, 0x10aab6 <__subdf3+0x7de>
  10a980: 93 84 e9 ff  	addi	s1, s3, -2
  10a984: 93 b4 14 00  	seqz	s1, s1
  10a988: 01 47        	li	a4, 0
  10a98a: 8d bf        	j	0x10a8fc <__subdf3+0x624>
  10a98c: 93 08 f0 7f  	li	a7, 2047
  10a990: 63 13 14 03  	bne	s0, a7, 0x10a9b6 <__subdf3+0x6de>
  10a994: 63 06 05 1e  	beqz	a0, 0x10ab80 <__subdf3+0x8a8>
  10a998: 37 04 40 00  	lui	s0, 1024
  10a99c: 79 8c        	and	s0, s0, a4
  10a99e: 13 34 14 00  	seqz	s0, s0
  10a9a2: 12 04        	slli	s0, s0, 4
  10a9a4: 63 95 15 03  	bne	a1, a7, 0x10a9ce <__subdf3+0x6f6>
  10a9a8: 11 ca        	beqz	a2, 0x10a9bc <__subdf3+0x6e4>
  10a9aa: b7 05 40 00  	lui	a1, 1024
  10a9ae: f5 8d        	and	a1, a1, a3
  10a9b0: 91 e5        	bnez	a1, 0x10a9bc <__subdf3+0x6e4>
  10a9b2: 41 44        	li	s0, 16
  10a9b4: 21 a0        	j	0x10a9bc <__subdf3+0x6e4>
  10a9b6: 01 44        	li	s0, 0
  10a9b8: e3 88 15 ff  	beq	a1, a7, 0x10a9a8 <__subdf3+0x6d0>
  10a9bc: 09 e9        	bnez	a0, 0x10a9ce <__subdf3+0x6f6>
  10a9be: 63 0a 06 16  	beqz	a2, 0x10ab32 <__subdf3+0x85a>
  10a9c2: 36 87        	mv	a4, a3
  10a9c4: c2 87        	mv	a5, a6
  10a9c6: 9a 84        	mv	s1, t1
  10a9c8: 1d b1        	j	0x10a5ee <__subdf3+0x316>
  10a9ca: 01 44        	li	s0, 0
  10a9cc: f1 bf        	j	0x10a9a8 <__subdf3+0x6d0>
  10a9ce: e3 00 06 c2  	beqz	a2, 0x10a5ee <__subdf3+0x316>
  10a9d2: 3d b1        	j	0x10a600 <__subdf3+0x328>
  10a9d4: 33 8a 07 41  	sub	s4, a5, a6
  10a9d8: 33 b6 47 01  	sltu	a2, a5, s4
  10a9dc: 33 09 d7 40  	sub	s2, a4, a3
  10a9e0: 33 09 c9 40  	sub	s2, s2, a2
  10a9e4: 37 06 80 00  	lui	a2, 2048
  10a9e8: 33 76 c9 00  	and	a2, s2, a2
  10a9ec: 2d c6        	beqz	a2, 0x10aa56 <__subdf3+0x77e>
  10a9ee: 33 0a f8 40  	sub	s4, a6, a5
  10a9f2: 99 8e        	sub	a3, a3, a4
  10a9f4: 33 38 48 01  	sltu	a6, a6, s4
  10a9f8: 33 89 06 41  	sub	s2, a3, a6
  10a9fc: 9a 84        	mv	s1, t1
  10a9fe: 63 00 09 06  	beqz	s2, 0x10aa5e <__subdf3+0x786>
  10aa02: 4a 85        	mv	a0, s2
  10aa04: ef 00 70 64  	jal	0x10b84a <__clzsi2>
  10aa08: 13 06 85 ff  	addi	a2, a0, -8
  10aa0c: fd 47        	li	a5, 31
  10aa0e: 63 ce c7 04  	blt	a5, a2, 0x10aa6a <__subdf3+0x792>
  10aa12: 93 06 00 02  	li	a3, 32
  10aa16: 91 8e        	sub	a3, a3, a2
  10aa18: 33 17 c9 00  	sll	a4, s2, a2
  10aa1c: b3 56 da 00  	srl	a3, s4, a3
  10aa20: d9 8e        	or	a3, a3, a4
  10aa22: 33 18 ca 00  	sll	a6, s4, a2
  10aa26: 63 4b 86 06  	blt	a2, s0, 0x10aa9c <__subdf3+0x7c4>
  10aa2a: 01 8e        	sub	a2, a2, s0
  10aa2c: 13 07 16 00  	addi	a4, a2, 1
  10aa30: fd 47        	li	a5, 31
  10aa32: 63 c2 e7 04  	blt	a5, a4, 0x10aa76 <__subdf3+0x79e>
  10aa36: 13 06 00 02  	li	a2, 32
  10aa3a: 19 8e        	sub	a2, a2, a4
  10aa3c: b3 97 c6 00  	sll	a5, a3, a2
  10aa40: 33 55 e8 00  	srl	a0, a6, a4
  10aa44: 33 16 c8 00  	sll	a2, a6, a2
  10aa48: c9 8f        	or	a5, a5, a0
  10aa4a: 33 36 c0 00  	snez	a2, a2
  10aa4e: d1 8f        	or	a5, a5, a2
  10aa50: 33 d7 e6 00  	srl	a4, a3, a4
  10aa54: 65 b5        	j	0x10a8fc <__subdf3+0x624>
  10aa56: b3 67 2a 01  	or	a5, s4, s2
  10aa5a: d5 f3        	bnez	a5, 0x10a9fe <__subdf3+0x726>
  10aa5c: 15 b7        	j	0x10a980 <__subdf3+0x6a8>
  10aa5e: 52 85        	mv	a0, s4
  10aa60: ef 00 b0 5e  	jal	0x10b84a <__clzsi2>
  10aa64: 13 05 05 02  	addi	a0, a0, 32
  10aa68: 45 b7        	j	0x10aa08 <__subdf3+0x730>
  10aa6a: 93 06 85 fd  	addi	a3, a0, -40
  10aa6e: b3 16 da 00  	sll	a3, s4, a3
  10aa72: 01 48        	li	a6, 0
  10aa74: 4d bf        	j	0x10aa26 <__subdf3+0x74e>
  10aa76: 05 16        	addi	a2, a2, -31
  10aa78: 93 05 00 02  	li	a1, 32
  10aa7c: 33 d6 c6 00  	srl	a2, a3, a2
  10aa80: 81 47        	li	a5, 0
  10aa82: 63 07 b7 00  	beq	a4, a1, 0x10aa90 <__subdf3+0x7b8>
  10aa86: 93 07 00 04  	li	a5, 64
  10aa8a: 99 8f        	sub	a5, a5, a4
  10aa8c: b3 97 f6 00  	sll	a5, a3, a5
  10aa90: b3 67 f8 00  	or	a5, a6, a5
  10aa94: b3 37 f0 00  	snez	a5, a5
  10aa98: d1 8f        	or	a5, a5, a2
  10aa9a: fd b5        	j	0x10a988 <__subdf3+0x6b0>
  10aa9c: b7 07 80 ff  	lui	a5, 1046528
  10aaa0: fd 17        	addi	a5, a5, -1
  10aaa2: 33 06 c4 40  	sub	a2, s0, a2
  10aaa6: fd 8e        	and	a3, a3, a5
  10aaa8: d1 ba        	j	0x10a47c <__subdf3+0x1a4>
  10aaaa: 36 87        	mv	a4, a3
  10aaac: c2 87        	mv	a5, a6
  10aaae: b9 b5        	j	0x10a8fc <__subdf3+0x624>
  10aab0: 36 87        	mv	a4, a3
  10aab2: c2 87        	mv	a5, a6
  10aab4: c1 b5        	j	0x10a974 <__subdf3+0x69c>
  10aab6: 32 87        	mv	a4, a2
  10aab8: ae 87        	mv	a5, a1
  10aaba: 89 b5        	j	0x10a8fc <__subdf3+0x624>
  10aabc: 26 84        	mv	s0, s1
  10aabe: e3 91 04 e8  	bnez	s1, 0x10a940 <__subdf3+0x668>
  10aac2: 93 b6 86 ff  	sltiu	a3, a3, -8
  10aac6: 93 c6 16 00  	xori	a3, a3, 1
  10aaca: b6 95        	add	a1, a1, a3
  10aacc: 05 44        	li	s0, 1
  10aace: 8d bd        	j	0x10a940 <__subdf3+0x668>
  10aad0: 05 44        	li	s0, 1
  10aad2: e3 87 04 e6  	beqz	s1, 0x10a940 <__subdf3+0x668>
  10aad6: 93 b6 86 ff  	sltiu	a3, a3, -8
  10aada: 93 c6 16 00  	xori	a3, a3, 1
  10aade: b6 95        	add	a1, a1, a3
  10aae0: 26 84        	mv	s0, s1
  10aae2: b9 bd        	j	0x10a940 <__subdf3+0x668>
  10aae4: 01 47        	li	a4, 0
  10aae6: 13 06 f0 7f  	li	a2, 2047
  10aaea: 7d b0        	j	0x10a398 <__subdf3+0xc0>
  10aaec: c2 87        	mv	a5, a6
  10aaee: 13 06 f0 7f  	li	a2, 2047
  10aaf2: 55 b6        	j	0x10a696 <__subdf3+0x3be>
  10aaf4: 7d 57        	li	a4, -1
  10aaf6: fd 57        	li	a5, -1
  10aaf8: 13 06 e0 7f  	li	a2, 2046
  10aafc: 81 45        	li	a1, 0
  10aafe: c9 b6        	j	0x10a6c0 <__subdf3+0x3e8>
  10ab00: 01 47        	li	a4, 0
  10ab02: 81 47        	li	a5, 0
  10ab04: 21 b6        	j	0x10a60c <__subdf3+0x334>
  10ab06: 01 47        	li	a4, 0
  10ab08: 81 47        	li	a5, 0
  10ab0a: f1 bf        	j	0x10aae6 <__subdf3+0x80e>
  10ab0c: c2 87        	mv	a5, a6
  10ab0e: 81 45        	li	a1, 0
  10ab10: 79 b4        	j	0x10a59e <__subdf3+0x2c6>
  10ab12: 01 47        	li	a4, 0
  10ab14: 9a 84        	mv	s1, t1
  10ab16: dd bc        	j	0x10a60c <__subdf3+0x334>
  10ab18: c2 87        	mv	a5, a6
  10ab1a: 9a 84        	mv	s1, t1
  10ab1c: cd bf        	j	0x10ab0e <__subdf3+0x836>
  10ab1e: 01 47        	li	a4, 0
  10ab20: 13 06 f0 7f  	li	a2, 2047
  10ab24: 9a 84        	mv	s1, t1
  10ab26: 8d b8        	j	0x10a398 <__subdf3+0xc0>
  10ab28: c2 87        	mv	a5, a6
  10ab2a: 13 06 f0 7f  	li	a2, 2047
  10ab2e: 9a 84        	mv	s1, t1
  10ab30: 9d b6        	j	0x10a696 <__subdf3+0x3be>
  10ab32: 81 47        	li	a5, 0
  10ab34: 81 44        	li	s1, 0
  10ab36: 37 07 40 00  	lui	a4, 1024
  10ab3a: 13 06 f0 7f  	li	a2, 2047
  10ab3e: 41 44        	li	s0, 16
  10ab40: f1 b4        	j	0x10a60c <__subdf3+0x334>
  10ab42: 01 47        	li	a4, 0
  10ab44: 81 47        	li	a5, 0
  10ab46: 01 46        	li	a2, 0
  10ab48: 81 b8        	j	0x10a398 <__subdf3+0xc0>
  10ab4a: 89 e4        	bnez	s1, 0x10ab54 <__subdf3+0x87c>
  10ab4c: 93 86 87 00  	addi	a3, a5, 8
  10ab50: 51 be        	j	0x10a6e4 <__subdf3+0x40c>
  10ab52: ed fc        	bnez	s1, 0x10ab4c <__subdf3+0x874>
  10ab54: e3 9d 05 a4  	bnez	a1, 0x10a5ae <__subdf3+0x2d6>
  10ab58: 55 bc        	j	0x10a60c <__subdf3+0x334>
  10ab5a: 81 47        	li	a5, 0
  10ab5c: 63 8e 09 00  	beqz	s3, 0x10ab78 <__subdf3+0x8a0>
  10ab60: 0d 47        	li	a4, 3
  10ab62: 63 97 e9 00  	bne	s3, a4, 0x10ab70 <__subdf3+0x898>
  10ab66: 89 c8        	beqz	s1, 0x10ab78 <__subdf3+0x8a0>
  10ab68: fd 57        	li	a5, -1
  10ab6a: 13 06 e0 7f  	li	a2, 2046
  10ab6e: 29 a0        	j	0x10ab78 <__subdf3+0x8a0>
  10ab70: 09 47        	li	a4, 2
  10ab72: e3 9b e9 fe  	bne	s3, a4, 0x10ab68 <__subdf3+0x890>
  10ab76: ed d8        	beqz	s1, 0x10ab68 <__subdf3+0x890>
  10ab78: 13 64 54 00  	ori	s0, s0, 5
  10ab7c: 3e 87        	mv	a4, a5
  10ab7e: 65 b4        	j	0x10a626 <__subdf3+0x34e>
  10ab80: e3 85 85 e4  	beq	a1, s0, 0x10a9ca <__subdf3+0x6f2>
  10ab84: 01 44        	li	s0, 0
  10ab86: 25 bd        	j	0x10a9be <__subdf3+0x6e6>
  10ab88: e3 87 85 a6  	beq	a1, s0, 0x10a5f6 <__subdf3+0x31e>
  10ab8c: 01 44        	li	s0, 0
  10ab8e: b1 bc        	j	0x10a5ea <__subdf3+0x312>

0010ab90 <__unorddf2>:
  10ab90: 2a 87        	mv	a4, a0
  10ab92: f3 27 20 00  	frrm	a5
  10ab96: b7 07 10 00  	lui	a5, 256
  10ab9a: fd 17        	addi	a5, a5, -1
  10ab9c: 33 f8 b7 00  	and	a6, a5, a1
  10aba0: d1 81        	srli	a1, a1, 20
  10aba2: f5 8f        	and	a5, a5, a3
  10aba4: 93 f5 f5 7f  	andi	a1, a1, 2047
  10aba8: d1 82        	srli	a3, a3, 20
  10abaa: 13 05 f0 7f  	li	a0, 2047
  10abae: 93 f6 f6 7f  	andi	a3, a3, 2047
  10abb2: 63 95 a5 00  	bne	a1, a0, 0x10abbc <__unorddf2+0x2c>
  10abb6: 33 65 e8 00  	or	a0, a6, a4
  10abba: 05 e1        	bnez	a0, 0x10abda <__unorddf2+0x4a>
  10abbc: 93 08 f0 7f  	li	a7, 2047
  10abc0: 01 45        	li	a0, 0
  10abc2: 63 93 16 05  	bne	a3, a7, 0x10ac08 <__unorddf2+0x78>
  10abc6: b3 e8 c7 00  	or	a7, a5, a2
  10abca: 63 93 08 00  	bnez	a7, 0x10abd0 <__unorddf2+0x40>
  10abce: 82 80        	ret
  10abd0: 63 93 d5 02  	bne	a1, a3, 0x10abf6 <__unorddf2+0x66>
  10abd4: 33 67 e8 00  	or	a4, a6, a4
  10abd8: 01 cf        	beqz	a4, 0x10abf0 <__unorddf2+0x60>
  10abda: 37 07 08 00  	lui	a4, 128
  10abde: 33 78 e8 00  	and	a6, a6, a4
  10abe2: 63 0f 08 00  	beqz	a6, 0x10ac00 <__unorddf2+0x70>
  10abe6: 13 07 f0 7f  	li	a4, 2047
  10abea: 05 45        	li	a0, 1
  10abec: 63 9e e6 00  	bne	a3, a4, 0x10ac08 <__unorddf2+0x78>
  10abf0: 5d 8e        	or	a2, a2, a5
  10abf2: 05 45        	li	a0, 1
  10abf4: 11 ca        	beqz	a2, 0x10ac08 <__unorddf2+0x78>
  10abf6: 37 07 08 00  	lui	a4, 128
  10abfa: f9 8f        	and	a5, a5, a4
  10abfc: 05 45        	li	a0, 1
  10abfe: 89 e7        	bnez	a5, 0x10ac08 <__unorddf2+0x78>
  10ac00: 73 60 18 00  	csrsi	fflags, 16
  10ac04: 05 45        	li	a0, 1
  10ac06: 82 80        	ret
  10ac08: 82 80        	ret

0010ac0a <__fixdfsi>:
  10ac0a: 2a 88        	mv	a6, a0
  10ac0c: f3 27 20 00  	frrm	a5
  10ac10: b7 07 10 00  	lui	a5, 256
  10ac14: 93 d6 45 01  	srli	a3, a1, 20
  10ac18: 13 86 f7 ff  	addi	a2, a5, -1
  10ac1c: 93 f6 f6 7f  	andi	a3, a3, 2047
  10ac20: 13 07 e0 3f  	li	a4, 1022
  10ac24: 6d 8e        	and	a2, a2, a1
  10ac26: fd 81        	srli	a1, a1, 31
  10ac28: 63 46 d7 00  	blt	a4, a3, 0x10ac34 <__fixdfsi+0x2a>
  10ac2c: d1 ea        	bnez	a3, 0x10acc0 <__fixdfsi+0xb6>
  10ac2e: 51 8d        	or	a0, a0, a2
  10ac30: 41 e9        	bnez	a0, 0x10acc0 <__fixdfsi+0xb6>
  10ac32: 82 80        	ret
  10ac34: 13 07 d0 41  	li	a4, 1053
  10ac38: 63 58 d7 02  	bge	a4, a3, 0x10ac68 <__fixdfsi+0x5e>
  10ac3c: 37 07 00 80  	lui	a4, 524288
  10ac40: 13 47 f7 ff  	not	a4, a4
  10ac44: 33 85 e5 00  	add	a0, a1, a4
  10ac48: bd cd        	beqz	a1, 0x10acc6 <__fixdfsi+0xbc>
  10ac4a: 93 07 e0 41  	li	a5, 1054
  10ac4e: 41 47        	li	a4, 16
  10ac50: 63 92 f6 04  	bne	a3, a5, 0x10ac94 <__fixdfsi+0x8a>
  10ac54: 93 17 b6 00  	slli	a5, a2, 11
  10ac58: 13 56 58 01  	srli	a2, a6, 21
  10ac5c: d1 8f        	or	a5, a5, a2
  10ac5e: 9d eb        	bnez	a5, 0x10ac94 <__fixdfsi+0x8a>
  10ac60: 13 17 b8 00  	slli	a4, a6, 11
  10ac64: 3d e3        	bnez	a4, 0x10acca <__fixdfsi+0xc0>
  10ac66: 82 80        	ret
  10ac68: 13 05 30 43  	li	a0, 1075
  10ac6c: 15 8d        	sub	a0, a0, a3
  10ac6e: 7d 47        	li	a4, 31
  10ac70: d1 8f        	or	a5, a5, a2
  10ac72: 63 44 a7 02  	blt	a4, a0, 0x10ac9a <__fixdfsi+0x90>
  10ac76: 13 86 d6 be  	addi	a2, a3, -1043
  10ac7a: b3 16 c8 00  	sll	a3, a6, a2
  10ac7e: b3 97 c7 00  	sll	a5, a5, a2
  10ac82: 33 55 a8 00  	srl	a0, a6, a0
  10ac86: 33 37 d0 00  	snez	a4, a3
  10ac8a: 5d 8d        	or	a0, a0, a5
  10ac8c: 99 c1        	beqz	a1, 0x10ac92 <__fixdfsi+0x88>
  10ac8e: 33 05 a0 40  	neg	a0, a0
  10ac92: 19 c3        	beqz	a4, 0x10ac98 <__fixdfsi+0x8e>
  10ac94: 73 20 17 00  	csrs	fflags, a4
  10ac98: 82 80        	ret
  10ac9a: 13 06 00 02  	li	a2, 32
  10ac9e: 01 47        	li	a4, 0
  10aca0: 63 06 c5 00  	beq	a0, a2, 0x10acac <__fixdfsi+0xa2>
  10aca4: 13 87 d6 c0  	addi	a4, a3, -1011
  10aca8: 33 97 e7 00  	sll	a4, a5, a4
  10acac: 13 05 30 41  	li	a0, 1043
  10acb0: 33 67 07 01  	or	a4, a4, a6
  10acb4: 15 8d        	sub	a0, a0, a3
  10acb6: 33 37 e0 00  	snez	a4, a4
  10acba: 33 d5 a7 00  	srl	a0, a5, a0
  10acbe: f9 b7        	j	0x10ac8c <__fixdfsi+0x82>
  10acc0: 01 45        	li	a0, 0
  10acc2: 05 47        	li	a4, 1
  10acc4: c1 bf        	j	0x10ac94 <__fixdfsi+0x8a>
  10acc6: 41 47        	li	a4, 16
  10acc8: f1 b7        	j	0x10ac94 <__fixdfsi+0x8a>
  10acca: 2e 87        	mv	a4, a1
  10accc: e1 b7        	j	0x10ac94 <__fixdfsi+0x8a>

0010acce <__fixunsdfsi>:
  10acce: aa 86        	mv	a3, a0
  10acd0: f3 27 20 00  	frrm	a5
  10acd4: 37 08 10 00  	lui	a6, 256
  10acd8: 93 d7 45 01  	srli	a5, a1, 20
  10acdc: 13 05 f8 ff  	addi	a0, a6, -1
  10ace0: 93 f7 f7 7f  	andi	a5, a5, 2047
  10ace4: 13 06 e0 3f  	li	a2, 1022
  10ace8: 6d 8d        	and	a0, a0, a1
  10acea: 13 d7 f5 01  	srli	a4, a1, 31
  10acee: 63 46 f6 00  	blt	a2, a5, 0x10acfa <__fixunsdfsi+0x2c>
  10acf2: ad e7        	bnez	a5, 0x10ad5c <__fixunsdfsi+0x8e>
  10acf4: 55 8d        	or	a0, a0, a3
  10acf6: 3d e1        	bnez	a0, 0x10ad5c <__fixunsdfsi+0x8e>
  10acf8: 82 80        	ret
  10acfa: 13 06 f0 41  	li	a2, 1055
  10acfe: 19 8e        	sub	a2, a2, a4
  10ad00: 63 d7 c7 02  	bge	a5, a2, 0x10ad2e <__fixunsdfsi+0x60>
  10ad04: 31 ef        	bnez	a4, 0x10ad60 <__fixunsdfsi+0x92>
  10ad06: b3 65 05 01  	or	a1, a0, a6
  10ad0a: 13 05 30 43  	li	a0, 1075
  10ad0e: 1d 8d        	sub	a0, a0, a5
  10ad10: 7d 47        	li	a4, 31
  10ad12: 63 44 a7 02  	blt	a4, a0, 0x10ad3a <__fixunsdfsi+0x6c>
  10ad16: 93 87 d7 be  	addi	a5, a5, -1043
  10ad1a: b3 95 f5 00  	sll	a1, a1, a5
  10ad1e: 33 d5 a6 00  	srl	a0, a3, a0
  10ad22: b3 97 f6 00  	sll	a5, a3, a5
  10ad26: 4d 8d        	or	a0, a0, a1
  10ad28: 8d cb        	beqz	a5, 0x10ad5a <__fixunsdfsi+0x8c>
  10ad2a: 85 47        	li	a5, 1
  10ad2c: 21 a0        	j	0x10ad34 <__fixunsdfsi+0x66>
  10ad2e: 13 05 f7 ff  	addi	a0, a4, -1
  10ad32: c1 47        	li	a5, 16
  10ad34: 73 a0 17 00  	csrs	fflags, a5
  10ad38: 0d a0        	j	0x10ad5a <__fixunsdfsi+0x8c>
  10ad3a: 13 06 00 02  	li	a2, 32
  10ad3e: 01 47        	li	a4, 0
  10ad40: 63 06 c5 00  	beq	a0, a2, 0x10ad4c <__fixunsdfsi+0x7e>
  10ad44: 13 87 d7 c0  	addi	a4, a5, -1011
  10ad48: 33 97 e5 00  	sll	a4, a1, a4
  10ad4c: 13 05 30 41  	li	a0, 1043
  10ad50: 1d 8d        	sub	a0, a0, a5
  10ad52: 55 8f        	or	a4, a4, a3
  10ad54: 33 d5 a5 00  	srl	a0, a1, a0
  10ad58: 69 fb        	bnez	a4, 0x10ad2a <__fixunsdfsi+0x5c>
  10ad5a: 82 80        	ret
  10ad5c: 01 45        	li	a0, 0
  10ad5e: f1 b7        	j	0x10ad2a <__fixunsdfsi+0x5c>
  10ad60: 01 45        	li	a0, 0
  10ad62: c1 bf        	j	0x10ad32 <__fixunsdfsi+0x64>

0010ad64 <__floatsidf>:
  10ad64: 41 11        	addi	sp, sp, -16
  10ad66: 06 c6        	sw	ra, 12(sp)
  10ad68: 22 c4        	sw	s0, 8(sp)
  10ad6a: 26 c2        	sw	s1, 4(sp)
  10ad6c: 29 cd        	beqz	a0, 0x10adc6 <__floatsidf+0x62>
  10ad6e: 93 57 f5 41  	srai	a5, a0, 31
  10ad72: 33 c4 a7 00  	xor	s0, a5, a0
  10ad76: 1d 8c        	sub	s0, s0, a5
  10ad78: 93 54 f5 01  	srli	s1, a0, 31
  10ad7c: 22 85        	mv	a0, s0
  10ad7e: ef 00 d0 2c  	jal	0x10b84a <__clzsi2>
  10ad82: 13 07 e0 41  	li	a4, 1054
  10ad86: a9 47        	li	a5, 10
  10ad88: 09 8f        	sub	a4, a4, a0
  10ad8a: 63 c8 a7 02  	blt	a5, a0, 0x10adba <__floatsidf+0x56>
  10ad8e: ad 47        	li	a5, 11
  10ad90: 89 8f        	sub	a5, a5, a0
  10ad92: 55 05        	addi	a0, a0, 21
  10ad94: b3 57 f4 00  	srl	a5, s0, a5
  10ad98: 33 14 a4 00  	sll	s0, s0, a0
  10ad9c: 26 85        	mv	a0, s1
  10ad9e: b2 07        	slli	a5, a5, 12
  10ada0: 52 07        	slli	a4, a4, 20
  10ada2: b1 83        	srli	a5, a5, 12
  10ada4: 7e 05        	slli	a0, a0, 31
  10ada6: d9 8f        	or	a5, a5, a4
  10ada8: b2 40        	lw	ra, 12(sp)
  10adaa: 33 e7 a7 00  	or	a4, a5, a0
  10adae: 22 85        	mv	a0, s0
  10adb0: 22 44        	lw	s0, 8(sp)
  10adb2: 92 44        	lw	s1, 4(sp)
  10adb4: ba 85        	mv	a1, a4
  10adb6: 41 01        	addi	sp, sp, 16
  10adb8: 82 80        	ret
  10adba: 55 15        	addi	a0, a0, -11
  10adbc: b3 17 a4 00  	sll	a5, s0, a0
  10adc0: 26 85        	mv	a0, s1
  10adc2: 01 44        	li	s0, 0
  10adc4: e9 bf        	j	0x10ad9e <__floatsidf+0x3a>
  10adc6: 01 47        	li	a4, 0
  10adc8: 81 47        	li	a5, 0
  10adca: e5 bf        	j	0x10adc2 <__floatsidf+0x5e>

0010adcc <__floatunsidf>:
  10adcc: 41 11        	addi	sp, sp, -16
  10adce: 22 c4        	sw	s0, 8(sp)
  10add0: 06 c6        	sw	ra, 12(sp)
  10add2: 2a 84        	mv	s0, a0
  10add4: 29 c1        	beqz	a0, 0x10ae16 <__floatunsidf+0x4a>
  10add6: ef 00 50 27  	jal	0x10b84a <__clzsi2>
  10adda: 13 07 e0 41  	li	a4, 1054
  10adde: a9 47        	li	a5, 10
  10ade0: 09 8f        	sub	a4, a4, a0
  10ade2: 63 c4 a7 02  	blt	a5, a0, 0x10ae0a <__floatunsidf+0x3e>
  10ade6: ad 47        	li	a5, 11
  10ade8: 89 8f        	sub	a5, a5, a0
  10adea: 55 05        	addi	a0, a0, 21
  10adec: b3 57 f4 00  	srl	a5, s0, a5
  10adf0: 33 14 a4 00  	sll	s0, s0, a0
  10adf4: b2 40        	lw	ra, 12(sp)
  10adf6: 22 85        	mv	a0, s0
  10adf8: b2 07        	slli	a5, a5, 12
  10adfa: 22 44        	lw	s0, 8(sp)
  10adfc: 52 07        	slli	a4, a4, 20
  10adfe: b1 83        	srli	a5, a5, 12
  10ae00: b3 66 f7 00  	or	a3, a4, a5
  10ae04: b6 85        	mv	a1, a3
  10ae06: 41 01        	addi	sp, sp, 16
  10ae08: 82 80        	ret
  10ae0a: 93 07 55 ff  	addi	a5, a0, -11
  10ae0e: b3 17 f4 00  	sll	a5, s0, a5
  10ae12: 01 44        	li	s0, 0
  10ae14: c5 b7        	j	0x10adf4 <__floatunsidf+0x28>
  10ae16: 81 47        	li	a5, 0
  10ae18: 01 47        	li	a4, 0
  10ae1a: e9 bf        	j	0x10adf4 <__floatunsidf+0x28>

0010ae1c <__fixdfdi>:
  10ae1c: f3 27 20 00  	frrm	a5
  10ae20: 37 07 10 00  	lui	a4, 256
  10ae24: 13 d6 45 01  	srli	a2, a1, 20
  10ae28: 93 06 f7 ff  	addi	a3, a4, -1
  10ae2c: 13 76 f6 7f  	andi	a2, a2, 2047
  10ae30: 93 07 e0 3f  	li	a5, 1022
  10ae34: ed 8e        	and	a3, a3, a1
  10ae36: 63 ca c7 00  	blt	a5, a2, 0x10ae4a <__fixdfdi+0x2e>
  10ae3a: 79 ea        	bnez	a2, 0x10af10 <__fixdfdi+0xf4>
  10ae3c: 33 e7 a6 00  	or	a4, a3, a0
  10ae40: 81 47        	li	a5, 0
  10ae42: 81 45        	li	a1, 0
  10ae44: 61 eb        	bnez	a4, 0x10af14 <__fixdfdi+0xf8>
  10ae46: 3e 85        	mv	a0, a5
  10ae48: 82 80        	ret
  10ae4a: 41 11        	addi	sp, sp, -16
  10ae4c: 22 c4        	sw	s0, 8(sp)
  10ae4e: 06 c6        	sw	ra, 12(sp)
  10ae50: 93 07 d0 43  	li	a5, 1085
  10ae54: 13 d4 f5 01  	srli	s0, a1, 31
  10ae58: 63 dc c7 02  	bge	a5, a2, 0x10ae90 <__fixdfdi+0x74>
  10ae5c: 85 47        	li	a5, 1
  10ae5e: 81 8f        	sub	a5, a5, s0
  10ae60: 13 d8 f7 41  	srai	a6, a5, 31
  10ae64: b7 05 00 80  	lui	a1, 524288
  10ae68: 33 37 f0 00  	snez	a4, a5
  10ae6c: b3 85 05 41  	sub	a1, a1, a6
  10ae70: b3 07 f0 40  	neg	a5, a5
  10ae74: 99 8d        	sub	a1, a1, a4
  10ae76: 5d c0        	beqz	s0, 0x10af1c <__fixdfdi+0x100>
  10ae78: 13 08 e0 43  	li	a6, 1086
  10ae7c: 41 47        	li	a4, 16
  10ae7e: 63 13 06 07  	bne	a2, a6, 0x10aee4 <__fixdfdi+0xc8>
  10ae82: 55 8d        	or	a0, a0, a3
  10ae84: 25 e1        	bnez	a0, 0x10aee4 <__fixdfdi+0xc8>
  10ae86: b2 40        	lw	ra, 12(sp)
  10ae88: 22 44        	lw	s0, 8(sp)
  10ae8a: 3e 85        	mv	a0, a5
  10ae8c: 41 01        	addi	sp, sp, 16
  10ae8e: 82 80        	ret
  10ae90: 93 07 20 43  	li	a5, 1074
  10ae94: b3 e5 e6 00  	or	a1, a3, a4
  10ae98: 63 da c7 00  	bge	a5, a2, 0x10aeac <__fixdfdi+0x90>
  10ae9c: 13 06 d6 bc  	addi	a2, a2, -1075
  10aea0: ef 00 10 18  	jal	0x10b820 <__ashldi3>
  10aea4: aa 87        	mv	a5, a0
  10aea6: 65 d0        	beqz	s0, 0x10ae86 <__fixdfdi+0x6a>
  10aea8: 01 47        	li	a4, 0
  10aeaa: 2d a0        	j	0x10aed4 <__fixdfdi+0xb8>
  10aeac: 93 06 30 43  	li	a3, 1075
  10aeb0: 91 8e        	sub	a3, a3, a2
  10aeb2: fd 47        	li	a5, 31
  10aeb4: 63 cb d7 02  	blt	a5, a3, 0x10aeea <__fixdfdi+0xce>
  10aeb8: 13 06 d6 be  	addi	a2, a2, -1043
  10aebc: 33 17 c5 00  	sll	a4, a0, a2
  10aec0: b3 57 d5 00  	srl	a5, a0, a3
  10aec4: 33 96 c5 00  	sll	a2, a1, a2
  10aec8: 33 37 e0 00  	snez	a4, a4
  10aecc: d1 8f        	or	a5, a5, a2
  10aece: b3 d5 d5 00  	srl	a1, a1, a3
  10aed2: 01 c8        	beqz	s0, 0x10aee2 <__fixdfdi+0xc6>
  10aed4: b3 36 f0 00  	snez	a3, a5
  10aed8: b3 05 b0 40  	neg	a1, a1
  10aedc: 95 8d        	sub	a1, a1, a3
  10aede: b3 07 f0 40  	neg	a5, a5
  10aee2: 55 d3        	beqz	a4, 0x10ae86 <__fixdfdi+0x6a>
  10aee4: 73 20 17 00  	csrs	fflags, a4
  10aee8: 79 bf        	j	0x10ae86 <__fixdfdi+0x6a>
  10aeea: 93 07 00 02  	li	a5, 32
  10aeee: 01 47        	li	a4, 0
  10aef0: 63 86 f6 00  	beq	a3, a5, 0x10aefc <__fixdfdi+0xe0>
  10aef4: 13 07 d6 c0  	addi	a4, a2, -1011
  10aef8: 33 97 e5 00  	sll	a4, a1, a4
  10aefc: 93 07 30 41  	li	a5, 1043
  10af00: 49 8f        	or	a4, a4, a0
  10af02: 91 8f        	sub	a5, a5, a2
  10af04: b3 d7 f5 00  	srl	a5, a1, a5
  10af08: 33 37 e0 00  	snez	a4, a4
  10af0c: 81 45        	li	a1, 0
  10af0e: d1 b7        	j	0x10aed2 <__fixdfdi+0xb6>
  10af10: 81 47        	li	a5, 0
  10af12: 81 45        	li	a1, 0
  10af14: 05 47        	li	a4, 1
  10af16: 73 20 17 00  	csrs	fflags, a4
  10af1a: 35 b7        	j	0x10ae46 <__fixdfdi+0x2a>
  10af1c: 41 47        	li	a4, 16
  10af1e: d9 b7        	j	0x10aee4 <__fixdfdi+0xc8>

0010af20 <__floatdidf>:
  10af20: 79 71        	addi	sp, sp, -48
  10af22: 06 d6        	sw	ra, 44(sp)
  10af24: 22 d4        	sw	s0, 40(sp)
  10af26: 26 d2        	sw	s1, 36(sp)
  10af28: 4a d0        	sw	s2, 32(sp)
  10af2a: 4e ce        	sw	s3, 28(sp)
  10af2c: 52 cc        	sw	s4, 24(sp)
  10af2e: 56 ca        	sw	s5, 20(sp)
  10af30: 5a c8        	sw	s6, 16(sp)
  10af32: 5e c6        	sw	s7, 12(sp)
  10af34: 62 c4        	sw	s8, 8(sp)
  10af36: 73 2a 20 00  	frrm	s4
  10af3a: b3 67 b5 00  	or	a5, a0, a1
  10af3e: 63 8b 07 18  	beqz	a5, 0x10b0d4 <__floatdidf+0x1b4>
  10af42: 2a 84        	mv	s0, a0
  10af44: ae 8b        	mv	s7, a1
  10af46: ae 89        	mv	s3, a1
  10af48: 13 d9 f5 01  	srli	s2, a1, 31
  10af4c: 63 da 05 00  	bgez	a1, 0x10af60 <__floatdidf+0x40>
  10af50: 33 37 a0 00  	snez	a4, a0
  10af54: b3 09 b0 40  	neg	s3, a1
  10af58: b3 89 e9 40  	sub	s3, s3, a4
  10af5c: 33 04 a0 40  	neg	s0, a0
  10af60: ce 84        	mv	s1, s3
  10af62: 63 8d 09 06  	beqz	s3, 0x10afdc <__floatdidf+0xbc>
  10af66: 4e 85        	mv	a0, s3
  10af68: ef 00 30 0e  	jal	0x10b84a <__clzsi2>
  10af6c: aa 8a        	mv	s5, a0
  10af6e: 13 0b e0 43  	li	s6, 1086
  10af72: 33 0b 5b 41  	sub	s6, s6, s5
  10af76: 93 07 30 43  	li	a5, 1075
  10af7a: 63 cd 67 07  	blt	a5, s6, 0x10aff4 <__floatdidf+0xd4>
  10af7e: ad 47        	li	a5, 11
  10af80: 01 47        	li	a4, 0
  10af82: 63 d3 57 03  	bge	a5, s5, 0x10afa8 <__floatdidf+0x88>
  10af86: 93 07 a0 02  	li	a5, 42
  10af8a: 63 cf 57 05  	blt	a5, s5, 0x10afe8 <__floatdidf+0xc8>
  10af8e: 93 04 b0 02  	li	s1, 43
  10af92: 93 86 5a ff  	addi	a3, s5, -11
  10af96: b3 84 54 41  	sub	s1, s1, s5
  10af9a: b3 54 94 00  	srl	s1, s0, s1
  10af9e: b3 97 d9 00  	sll	a5, s3, a3
  10afa2: dd 8c        	or	s1, s1, a5
  10afa4: 33 14 d4 00  	sll	s0, s0, a3
  10afa8: 93 97 c4 00  	slli	a5, s1, 12
  10afac: 52 0b        	slli	s6, s6, 20
  10afae: b1 83        	srli	a5, a5, 12
  10afb0: b3 67 fb 00  	or	a5, s6, a5
  10afb4: 7e 09        	slli	s2, s2, 31
  10afb6: b3 e6 27 01  	or	a3, a5, s2
  10afba: 22 85        	mv	a0, s0
  10afbc: b6 85        	mv	a1, a3
  10afbe: 19 c3        	beqz	a4, 0x10afc4 <__floatdidf+0xa4>
  10afc0: 73 e0 10 00  	csrsi	fflags, 1
  10afc4: b2 50        	lw	ra, 44(sp)
  10afc6: 22 54        	lw	s0, 40(sp)
  10afc8: 92 54        	lw	s1, 36(sp)
  10afca: 02 59        	lw	s2, 32(sp)
  10afcc: f2 49        	lw	s3, 28(sp)
  10afce: 62 4a        	lw	s4, 24(sp)
  10afd0: d2 4a        	lw	s5, 20(sp)
  10afd2: 42 4b        	lw	s6, 16(sp)
  10afd4: b2 4b        	lw	s7, 12(sp)
  10afd6: 22 4c        	lw	s8, 8(sp)
  10afd8: 45 61        	addi	sp, sp, 48
  10afda: 82 80        	ret
  10afdc: 22 85        	mv	a0, s0
  10afde: ef 00 d0 06  	jal	0x10b84a <__clzsi2>
  10afe2: 93 0a 05 02  	addi	s5, a0, 32
  10afe6: 61 b7        	j	0x10af6e <__floatdidf+0x4e>
  10afe8: 93 87 5a fd  	addi	a5, s5, -43
  10afec: b3 14 f4 00  	sll	s1, s0, a5
  10aff0: 01 44        	li	s0, 0
  10aff2: 5d bf        	j	0x10afa8 <__floatdidf+0x88>
  10aff4: 93 07 60 43  	li	a5, 1078
  10aff8: 63 d8 67 03  	bge	a5, s6, 0x10b028 <__floatdidf+0x108>
  10affc: 21 46        	li	a2, 8
  10affe: 33 06 56 41  	sub	a2, a2, s5
  10b002: 22 85        	mv	a0, s0
  10b004: ce 85        	mv	a1, s3
  10b006: ef 00 00 7f  	jal	0x10b7f6 <__lshrdi3>
  10b00a: 2a 8c        	mv	s8, a0
  10b00c: ae 84        	mv	s1, a1
  10b00e: 22 85        	mv	a0, s0
  10b010: ce 85        	mv	a1, s3
  10b012: 13 86 8a 03  	addi	a2, s5, 56
  10b016: ef 00 b0 00  	jal	0x10b820 <__ashldi3>
  10b01a: 33 64 b5 00  	or	s0, a0, a1
  10b01e: 33 34 80 00  	snez	s0, s0
  10b022: 33 64 84 01  	or	s0, s0, s8
  10b026: a6 89        	mv	s3, s1
  10b028: a1 47        	li	a5, 8
  10b02a: 63 d4 57 03  	bge	a5, s5, 0x10b052 <__floatdidf+0x132>
  10b02e: 93 07 70 02  	li	a5, 39
  10b032: 63 ce 57 05  	blt	a5, s5, 0x10b08e <__floatdidf+0x16e>
  10b036: 93 07 80 02  	li	a5, 40
  10b03a: 13 87 8a ff  	addi	a4, s5, -8
  10b03e: b3 87 57 41  	sub	a5, a5, s5
  10b042: b3 57 f4 00  	srl	a5, s0, a5
  10b046: b3 99 e9 00  	sll	s3, s3, a4
  10b04a: b3 e9 37 01  	or	s3, a5, s3
  10b04e: 33 14 e4 00  	sll	s0, s0, a4
  10b052: b7 07 80 ff  	lui	a5, 1046528
  10b056: fd 17        	addi	a5, a5, -1
  10b058: 93 76 74 00  	andi	a3, s0, 7
  10b05c: b3 f7 f9 00  	and	a5, s3, a5
  10b060: 01 47        	li	a4, 0
  10b062: a9 c6        	beqz	a3, 0x10b0ac <__floatdidf+0x18c>
  10b064: 09 47        	li	a4, 2
  10b066: 63 00 ea 04  	beq	s4, a4, 0x10b0a6 <__floatdidf+0x186>
  10b06a: 0d 47        	li	a4, 3
  10b06c: 63 07 ea 02  	beq	s4, a4, 0x10b09a <__floatdidf+0x17a>
  10b070: 05 47        	li	a4, 1
  10b072: 63 1d 0a 02  	bnez	s4, 0x10b0ac <__floatdidf+0x18c>
  10b076: 93 76 f4 00  	andi	a3, s0, 15
  10b07a: 11 46        	li	a2, 4
  10b07c: 63 88 c6 02  	beq	a3, a2, 0x10b0ac <__floatdidf+0x18c>
  10b080: 93 06 44 00  	addi	a3, s0, 4
  10b084: 33 b4 86 00  	sltu	s0, a3, s0
  10b088: a2 97        	add	a5, a5, s0
  10b08a: 36 84        	mv	s0, a3
  10b08c: 05 a0        	j	0x10b0ac <__floatdidf+0x18c>
  10b08e: 93 89 8a fd  	addi	s3, s5, -40
  10b092: b3 19 34 01  	sll	s3, s0, s3
  10b096: 01 44        	li	s0, 0
  10b098: 6d bf        	j	0x10b052 <__floatdidf+0x132>
  10b09a: 05 47        	li	a4, 1
  10b09c: 63 c8 0b 00  	bltz	s7, 0x10b0ac <__floatdidf+0x18c>
  10b0a0: 93 06 84 00  	addi	a3, s0, 8
  10b0a4: c5 b7        	j	0x10b084 <__floatdidf+0x164>
  10b0a6: 05 47        	li	a4, 1
  10b0a8: e3 cc 0b fe  	bltz	s7, 0x10b0a0 <__floatdidf+0x180>
  10b0ac: b7 06 80 00  	lui	a3, 2048
  10b0b0: fd 8e        	and	a3, a3, a5
  10b0b2: 89 ca        	beqz	a3, 0x10b0c4 <__floatdidf+0x1a4>
  10b0b4: b7 06 80 ff  	lui	a3, 1046528
  10b0b8: fd 16        	addi	a3, a3, -1
  10b0ba: 13 0b f0 43  	li	s6, 1087
  10b0be: f5 8f        	and	a5, a5, a3
  10b0c0: 33 0b 5b 41  	sub	s6, s6, s5
  10b0c4: 13 55 34 00  	srli	a0, s0, 3
  10b0c8: 13 94 d7 01  	slli	s0, a5, 29
  10b0cc: 49 8c        	or	s0, s0, a0
  10b0ce: 93 d4 37 00  	srli	s1, a5, 3
  10b0d2: d9 bd        	j	0x10afa8 <__floatdidf+0x88>
  10b0d4: 81 44        	li	s1, 0
  10b0d6: 01 44        	li	s0, 0
  10b0d8: 01 4b        	li	s6, 0
  10b0da: 01 49        	li	s2, 0
  10b0dc: 01 47        	li	a4, 0
  10b0de: e9 b5        	j	0x10afa8 <__floatdidf+0x88>

0010b0e0 <__extenddftf2>:
  10b0e0: 39 71        	addi	sp, sp, -64
  10b0e2: 26 da        	sw	s1, 52(sp)
  10b0e4: 4a d8        	sw	s2, 48(sp)
  10b0e6: 06 de        	sw	ra, 60(sp)
  10b0e8: 22 dc        	sw	s0, 56(sp)
  10b0ea: 4e d6        	sw	s3, 44(sp)
  10b0ec: 52 d4        	sw	s4, 40(sp)
  10b0ee: 2a 89        	mv	s2, a0
  10b0f0: ae 84        	mv	s1, a1
  10b0f2: f3 27 20 00  	frrm	a5
  10b0f6: 93 59 46 01  	srli	s3, a2, 20
  10b0fa: 93 17 c6 00  	slli	a5, a2, 12
  10b0fe: 93 f9 f9 7f  	andi	s3, s3, 2047
  10b102: b1 83        	srli	a5, a5, 12
  10b104: 93 86 19 00  	addi	a3, s3, 1
  10b108: 2e c8        	sw	a1, 16(sp)
  10b10a: 3e ca        	sw	a5, 20(sp)
  10b10c: 02 ce        	sw	zero, 28(sp)
  10b10e: 02 cc        	sw	zero, 24(sp)
  10b110: 93 f6 e6 7f  	andi	a3, a3, 2046
  10b114: 13 54 f6 01  	srli	s0, a2, 31
  10b118: b5 c2        	beqz	a3, 0x10b17c <__extenddftf2+0x9c>
  10b11a: 93 d6 47 00  	srli	a3, a5, 4
  10b11e: 11 67        	lui	a4, 4
  10b120: f2 07        	slli	a5, a5, 28
  10b122: 13 d5 45 00  	srli	a0, a1, 4
  10b126: 13 07 07 c0  	addi	a4, a4, -1024
  10b12a: c9 8f        	or	a5, a5, a0
  10b12c: 93 94 c5 01  	slli	s1, a1, 28
  10b130: 4e 97        	add	a4, a4, s3
  10b132: 36 ce        	sw	a3, 28(sp)
  10b134: 3e cc        	sw	a5, 24(sp)
  10b136: 26 ca        	sw	s1, 20(sp)
  10b138: 02 c8        	sw	zero, 16(sp)
  10b13a: 81 49        	li	s3, 0
  10b13c: f2 47        	lw	a5, 28(sp)
  10b13e: 3e 04        	slli	s0, s0, 15
  10b140: 41 8f        	or	a4, a4, s0
  10b142: 23 16 f1 00  	sh	a5, 12(sp)
  10b146: 23 17 e1 00  	sh	a4, 14(sp)
  10b14a: c2 45        	lw	a1, 16(sp)
  10b14c: 52 46        	lw	a2, 20(sp)
  10b14e: e2 46        	lw	a3, 24(sp)
  10b150: b2 47        	lw	a5, 12(sp)
  10b152: 63 84 09 00  	beqz	s3, 0x10b15a <__extenddftf2+0x7a>
  10b156: 73 a0 19 00  	csrs	fflags, s3
  10b15a: f2 50        	lw	ra, 60(sp)
  10b15c: 62 54        	lw	s0, 56(sp)
  10b15e: 23 20 b9 00  	sw	a1, 0(s2)
  10b162: 23 22 c9 00  	sw	a2, 4(s2)
  10b166: 23 24 d9 00  	sw	a3, 8(s2)
  10b16a: 23 26 f9 00  	sw	a5, 12(s2)
  10b16e: d2 54        	lw	s1, 52(sp)
  10b170: b2 59        	lw	s3, 44(sp)
  10b172: 22 5a        	lw	s4, 40(sp)
  10b174: 4a 85        	mv	a0, s2
  10b176: 42 59        	lw	s2, 48(sp)
  10b178: 21 61        	addi	sp, sp, 64
  10b17a: 82 80        	ret
  10b17c: 33 e5 b7 00  	or	a0, a5, a1
  10b180: 63 91 09 0a  	bnez	s3, 0x10b222 <__extenddftf2+0x142>
  10b184: 01 47        	li	a4, 0
  10b186: 5d d9        	beqz	a0, 0x10b13c <__extenddftf2+0x5c>
  10b188: a1 c3        	beqz	a5, 0x10b1c8 <__extenddftf2+0xe8>
  10b18a: 3e 85        	mv	a0, a5
  10b18c: 7d 2d        	jal	0x10b84a <__clzsi2>
  10b18e: 2a 8a        	mv	s4, a0
  10b190: 93 05 1a 03  	addi	a1, s4, 49
  10b194: 13 d6 55 40  	srai	a2, a1, 5
  10b198: fd 89        	andi	a1, a1, 31
  10b19a: 9d c9        	beqz	a1, 0x10b1d0 <__extenddftf2+0xf0>
  10b19c: f1 57        	li	a5, -4
  10b19e: b3 07 f6 02  	mul	a5, a2, a5
  10b1a2: 13 05 00 02  	li	a0, 32
  10b1a6: 93 08 01 01  	addi	a7, sp, 16
  10b1aa: 0d 8d        	sub	a0, a0, a1
  10b1ac: 93 16 26 00  	slli	a3, a2, 2
  10b1b0: b1 07        	addi	a5, a5, 12
  10b1b2: c6 97        	add	a5, a5, a7
  10b1b4: 63 98 f8 04  	bne	a7, a5, 0x10b204 <__extenddftf2+0x124>
  10b1b8: 1c 10        	addi	a5, sp, 32
  10b1ba: be 96        	add	a3, a3, a5
  10b1bc: b3 95 b4 00  	sll	a1, s1, a1
  10b1c0: 7d 16        	addi	a2, a2, -1
  10b1c2: 23 a8 b6 fe  	sw	a1, -16(a3)
  10b1c6: 1d a0        	j	0x10b1ec <__extenddftf2+0x10c>
  10b1c8: 49 25        	jal	0x10b84a <__clzsi2>
  10b1ca: 13 0a 05 02  	addi	s4, a0, 32
  10b1ce: c9 b7        	j	0x10b190 <__extenddftf2+0xb0>
  10b1d0: f1 56        	li	a3, -4
  10b1d2: b3 06 d6 02  	mul	a3, a2, a3
  10b1d6: 7c 08        	addi	a5, sp, 28
  10b1d8: 0d 47        	li	a4, 3
  10b1da: b3 85 d7 00  	add	a1, a5, a3
  10b1de: 8c 41        	lw	a1, 0(a1)
  10b1e0: 7d 17        	addi	a4, a4, -1
  10b1e2: f1 17        	addi	a5, a5, -4
  10b1e4: cc c3        	sw	a1, 4(a5)
  10b1e6: e3 5a c7 fe  	bge	a4, a2, 0x10b1da <__extenddftf2+0xfa>
  10b1ea: 7d 16        	addi	a2, a2, -1
  10b1ec: 05 06        	addi	a2, a2, 1
  10b1ee: 0a 06        	slli	a2, a2, 2
  10b1f0: 81 45        	li	a1, 0
  10b1f2: 08 08        	addi	a0, sp, 16
  10b1f4: ef 80 1f ac  	jal	0x103cb4 <memset>
  10b1f8: 11 67        	lui	a4, 4
  10b1fa: 13 07 c7 c0  	addi	a4, a4, -1012
  10b1fe: 33 07 47 41  	sub	a4, a4, s4
  10b202: 2d bf        	j	0x10b13c <__extenddftf2+0x5c>
  10b204: 98 43        	lw	a4, 0(a5)
  10b206: 03 a8 c7 ff  	lw	a6, -4(a5)
  10b20a: 33 83 d7 00  	add	t1, a5, a3
  10b20e: 33 17 b7 00  	sll	a4, a4, a1
  10b212: 33 58 a8 00  	srl	a6, a6, a0
  10b216: 33 67 07 01  	or	a4, a4, a6
  10b21a: 23 20 e3 00  	sw	a4, 0(t1)
  10b21e: f1 17        	addi	a5, a5, -4
  10b220: 51 bf        	j	0x10b1b4 <__extenddftf2+0xd4>
  10b222: 0d c5        	beqz	a0, 0x10b24c <__extenddftf2+0x16c>
  10b224: 13 d7 37 01  	srli	a4, a5, 19
  10b228: 11 e3        	bnez	a4, 0x10b22c <__extenddftf2+0x14c>
  10b22a: c1 46        	li	a3, 16
  10b22c: 13 97 c7 01  	slli	a4, a5, 28
  10b230: 13 d6 44 00  	srli	a2, s1, 4
  10b234: 51 8f        	or	a4, a4, a2
  10b236: 3a cc        	sw	a4, 24(sp)
  10b238: 91 83        	srli	a5, a5, 4
  10b23a: 21 67        	lui	a4, 8
  10b23c: f2 04        	slli	s1, s1, 28
  10b23e: d9 8f        	or	a5, a5, a4
  10b240: 26 ca        	sw	s1, 20(sp)
  10b242: 02 c8        	sw	zero, 16(sp)
  10b244: 3e ce        	sw	a5, 28(sp)
  10b246: b6 89        	mv	s3, a3
  10b248: 7d 17        	addi	a4, a4, -1
  10b24a: cd bd        	j	0x10b13c <__extenddftf2+0x5c>
  10b24c: 81 49        	li	s3, 0
  10b24e: 21 67        	lui	a4, 8
  10b250: e5 bf        	j	0x10b248 <__extenddftf2+0x168>

0010b252 <__truncdfsf2>:
  10b252: 73 28 20 00  	frrm	a6
  10b256: 13 d7 45 01  	srli	a4, a1, 20
  10b25a: 93 78 f7 7f  	andi	a7, a4, 2047
  10b25e: 93 97 c5 00  	slli	a5, a1, 12
  10b262: 13 87 18 00  	addi	a4, a7, 1
  10b266: a5 83        	srli	a5, a5, 9
  10b268: 93 56 d5 01  	srli	a3, a0, 29
  10b26c: 13 77 e7 7f  	andi	a4, a4, 2046
  10b270: dd 8e        	or	a3, a3, a5
  10b272: fd 81        	srli	a1, a1, 31
  10b274: 93 17 35 00  	slli	a5, a0, 3
  10b278: 63 0d 07 10  	beqz	a4, 0x10b392 <__truncdfsf2+0x140>
  10b27c: 13 86 08 c8  	addi	a2, a7, -896
  10b280: 13 07 e0 0f  	li	a4, 254
  10b284: 63 5d c7 04  	bge	a4, a2, 0x10b2de <__truncdfsf2+0x8c>
  10b288: 63 0b 08 14  	beqz	a6, 0x10b3de <__truncdfsf2+0x18c>
  10b28c: 8d 47        	li	a5, 3
  10b28e: 63 19 f8 00  	bne	a6, a5, 0x10b2a0 <__truncdfsf2+0x4e>
  10b292: 63 86 05 14  	beqz	a1, 0x10b3de <__truncdfsf2+0x18c>
  10b296: fd 57        	li	a5, -1
  10b298: 13 06 e0 0f  	li	a2, 254
  10b29c: 01 47        	li	a4, 0
  10b29e: 11 a8        	j	0x10b2b2 <__truncdfsf2+0x60>
  10b2a0: 89 47        	li	a5, 2
  10b2a2: e3 1a f8 fe  	bne	a6, a5, 0x10b296 <__truncdfsf2+0x44>
  10b2a6: 63 9c 05 12  	bnez	a1, 0x10b3de <__truncdfsf2+0x18c>
  10b2aa: 01 47        	li	a4, 0
  10b2ac: fd 57        	li	a5, -1
  10b2ae: 13 06 e0 0f  	li	a2, 254
  10b2b2: 95 48        	li	a7, 5
  10b2b4: 89 46        	li	a3, 2
  10b2b6: 93 e8 18 00  	ori	a7, a7, 1
  10b2ba: 63 07 d8 18  	beq	a6, a3, 0x10b448 <__truncdfsf2+0x1f6>
  10b2be: 8d 46        	li	a3, 3
  10b2c0: 63 00 d8 18  	beq	a6, a3, 0x10b440 <__truncdfsf2+0x1ee>
  10b2c4: 63 18 08 00  	bnez	a6, 0x10b2d4 <__truncdfsf2+0x82>
  10b2c8: 93 f6 f7 00  	andi	a3, a5, 15
  10b2cc: 11 45        	li	a0, 4
  10b2ce: 63 83 a6 00  	beq	a3, a0, 0x10b2d4 <__truncdfsf2+0x82>
  10b2d2: 91 07        	addi	a5, a5, 4
  10b2d4: 63 09 07 10  	beqz	a4, 0x10b3e6 <__truncdfsf2+0x194>
  10b2d8: 93 e8 28 00  	ori	a7, a7, 2
  10b2dc: 29 a2        	j	0x10b3e6 <__truncdfsf2+0x194>
  10b2de: 63 4a c0 08  	bgtz	a2, 0x10b372 <__truncdfsf2+0x120>
  10b2e2: 25 57        	li	a4, -23
  10b2e4: 63 4c e6 0a  	blt	a2, a4, 0x10b39c <__truncdfsf2+0x14a>
  10b2e8: 37 07 80 00  	lui	a4, 2048
  10b2ec: 79 45        	li	a0, 30
  10b2ee: d9 8e        	or	a3, a3, a4
  10b2f0: 11 8d        	sub	a0, a0, a2
  10b2f2: 7d 47        	li	a4, 31
  10b2f4: 63 4c a7 04  	blt	a4, a0, 0x10b34c <__truncdfsf2+0xfa>
  10b2f8: 13 87 28 c8  	addi	a4, a7, -894
  10b2fc: 33 d5 a7 00  	srl	a0, a5, a0
  10b300: b3 97 e7 00  	sll	a5, a5, a4
  10b304: b3 37 f0 00  	snez	a5, a5
  10b308: b3 96 e6 00  	sll	a3, a3, a4
  10b30c: dd 8e        	or	a3, a3, a5
  10b30e: b3 67 d5 00  	or	a5, a0, a3
  10b312: 63 84 07 12  	beqz	a5, 0x10b43a <__truncdfsf2+0x1e8>
  10b316: 13 97 17 00  	slli	a4, a5, 1
  10b31a: 93 76 77 00  	andi	a3, a4, 7
  10b31e: 81 48        	li	a7, 0
  10b320: 85 c2        	beqz	a3, 0x10b340 <__truncdfsf2+0xee>
  10b322: 89 46        	li	a3, 2
  10b324: 63 08 d8 0a  	beq	a6, a3, 0x10b3d4 <__truncdfsf2+0x182>
  10b328: 8d 46        	li	a3, 3
  10b32a: 63 00 d8 0a  	beq	a6, a3, 0x10b3ca <__truncdfsf2+0x178>
  10b32e: 85 48        	li	a7, 1
  10b330: 63 18 08 00  	bnez	a6, 0x10b340 <__truncdfsf2+0xee>
  10b334: 93 76 f7 00  	andi	a3, a4, 15
  10b338: 11 46        	li	a2, 4
  10b33a: 63 83 c6 00  	beq	a3, a2, 0x10b340 <__truncdfsf2+0xee>
  10b33e: 11 07        	addi	a4, a4, 4
  10b340: 6d 83        	srli	a4, a4, 27
  10b342: 13 47 17 00  	xori	a4, a4, 1
  10b346: 05 8b        	andi	a4, a4, 1
  10b348: 01 46        	li	a2, 0
  10b34a: 2d a8        	j	0x10b384 <__truncdfsf2+0x132>
  10b34c: 79 57        	li	a4, -2
  10b34e: 33 06 c7 40  	sub	a2, a4, a2
  10b352: 13 03 00 02  	li	t1, 32
  10b356: 33 d6 c6 00  	srl	a2, a3, a2
  10b35a: 01 47        	li	a4, 0
  10b35c: 63 06 65 00  	beq	a0, t1, 0x10b368 <__truncdfsf2+0x116>
  10b360: 13 87 28 ca  	addi	a4, a7, -862
  10b364: 33 97 e6 00  	sll	a4, a3, a4
  10b368: d9 8f        	or	a5, a5, a4
  10b36a: b3 37 f0 00  	snez	a5, a5
  10b36e: d1 8f        	or	a5, a5, a2
  10b370: 4d b7        	j	0x10b312 <__truncdfsf2+0xc0>
  10b372: 1a 05        	slli	a0, a0, 6
  10b374: 33 35 a0 00  	snez	a0, a0
  10b378: 8e 06        	slli	a3, a3, 3
  10b37a: f5 83        	srli	a5, a5, 29
  10b37c: c9 8e        	or	a3, a3, a0
  10b37e: d5 8f        	or	a5, a5, a3
  10b380: 01 47        	li	a4, 0
  10b382: 81 48        	li	a7, 0
  10b384: 93 f6 77 00  	andi	a3, a5, 7
  10b388: 95 f6        	bnez	a3, 0x10b2b4 <__truncdfsf2+0x62>
  10b38a: 31 cf        	beqz	a4, 0x10b3e6 <__truncdfsf2+0x194>
  10b38c: 13 f7 18 00  	andi	a4, a7, 1
  10b390: 91 b7        	j	0x10b2d4 <__truncdfsf2+0x82>
  10b392: d5 8f        	or	a5, a5, a3
  10b394: 63 96 08 00  	bnez	a7, 0x10b3a0 <__truncdfsf2+0x14e>
  10b398: 01 46        	li	a2, 0
  10b39a: b1 c7        	beqz	a5, 0x10b3e6 <__truncdfsf2+0x194>
  10b39c: 85 47        	li	a5, 1
  10b39e: a5 bf        	j	0x10b316 <__truncdfsf2+0xc4>
  10b3a0: c9 cb        	beqz	a5, 0x10b432 <__truncdfsf2+0x1e0>
  10b3a2: 93 07 f0 7f  	li	a5, 2047
  10b3a6: 63 90 f8 02  	bne	a7, a5, 0x10b3c6 <__truncdfsf2+0x174>
  10b3aa: b7 08 40 00  	lui	a7, 1024
  10b3ae: b3 f8 16 01  	and	a7, a3, a7
  10b3b2: 93 b8 18 00  	seqz	a7, a7
  10b3b6: 92 08        	slli	a7, a7, 4
  10b3b8: 8e 06        	slli	a3, a3, 3
  10b3ba: b7 07 00 02  	lui	a5, 8192
  10b3be: d5 8f        	or	a5, a5, a3
  10b3c0: 13 06 f0 0f  	li	a2, 255
  10b3c4: c1 b7        	j	0x10b384 <__truncdfsf2+0x132>
  10b3c6: 81 48        	li	a7, 0
  10b3c8: c5 bf        	j	0x10b3b8 <__truncdfsf2+0x166>
  10b3ca: ae 88        	mv	a7, a1
  10b3cc: b5 f9        	bnez	a1, 0x10b340 <__truncdfsf2+0xee>
  10b3ce: 21 07        	addi	a4, a4, 8
  10b3d0: 85 48        	li	a7, 1
  10b3d2: bd b7        	j	0x10b340 <__truncdfsf2+0xee>
  10b3d4: 85 48        	li	a7, 1
  10b3d6: ad d5        	beqz	a1, 0x10b340 <__truncdfsf2+0xee>
  10b3d8: 21 07        	addi	a4, a4, 8
  10b3da: ae 88        	mv	a7, a1
  10b3dc: 95 b7        	j	0x10b340 <__truncdfsf2+0xee>
  10b3de: 81 47        	li	a5, 0
  10b3e0: 13 06 f0 0f  	li	a2, 255
  10b3e4: 95 48        	li	a7, 5
  10b3e6: 37 07 00 04  	lui	a4, 16384
  10b3ea: 7d 8f        	and	a4, a4, a5
  10b3ec: 11 cb        	beqz	a4, 0x10b400 <__truncdfsf2+0x1ae>
  10b3ee: 05 06        	addi	a2, a2, 1
  10b3f0: 13 07 f0 0f  	li	a4, 255
  10b3f4: 63 0d e6 04  	beq	a2, a4, 0x10b44e <__truncdfsf2+0x1fc>
  10b3f8: 37 07 00 fc  	lui	a4, 1032192
  10b3fc: 7d 17        	addi	a4, a4, -1
  10b3fe: f9 8f        	and	a5, a5, a4
  10b400: 13 07 f0 0f  	li	a4, 255
  10b404: 8d 83        	srli	a5, a5, 3
  10b406: 63 16 e6 00  	bne	a2, a4, 0x10b412 <__truncdfsf2+0x1c0>
  10b40a: 81 c7        	beqz	a5, 0x10b412 <__truncdfsf2+0x1c0>
  10b40c: b7 07 40 00  	lui	a5, 1024
  10b410: 81 45        	li	a1, 0
  10b412: 5e 06        	slli	a2, a2, 23
  10b414: 37 07 80 7f  	lui	a4, 522240
  10b418: a6 07        	slli	a5, a5, 9
  10b41a: 79 8e        	and	a2, a2, a4
  10b41c: a5 83        	srli	a5, a5, 9
  10b41e: d1 8f        	or	a5, a5, a2
  10b420: fe 05        	slli	a1, a1, 31
  10b422: cd 8f        	or	a5, a5, a1
  10b424: 63 84 08 00  	beqz	a7, 0x10b42c <__truncdfsf2+0x1da>
  10b428: 73 a0 18 00  	csrs	fflags, a7
  10b42c: 53 85 07 f0  	fmv.w.x	fa0, a5
  10b430: 82 80        	ret
  10b432: 81 48        	li	a7, 0
  10b434: 13 06 f0 0f  	li	a2, 255
  10b438: 7d b7        	j	0x10b3e6 <__truncdfsf2+0x194>
  10b43a: 01 46        	li	a2, 0
  10b43c: 81 48        	li	a7, 0
  10b43e: 65 b7        	j	0x10b3e6 <__truncdfsf2+0x194>
  10b440: e3 9a 05 e8  	bnez	a1, 0x10b2d4 <__truncdfsf2+0x82>
  10b444: a1 07        	addi	a5, a5, 8
  10b446: 79 b5        	j	0x10b2d4 <__truncdfsf2+0x82>
  10b448: e3 86 05 e8  	beqz	a1, 0x10b2d4 <__truncdfsf2+0x82>
  10b44c: e5 bf        	j	0x10b444 <__truncdfsf2+0x1f2>
  10b44e: 81 47        	li	a5, 0
  10b450: 63 0e 08 00  	beqz	a6, 0x10b46c <__truncdfsf2+0x21a>
  10b454: 0d 47        	li	a4, 3
  10b456: 63 17 e8 00  	bne	a6, a4, 0x10b464 <__truncdfsf2+0x212>
  10b45a: 89 c9        	beqz	a1, 0x10b46c <__truncdfsf2+0x21a>
  10b45c: fd 57        	li	a5, -1
  10b45e: 13 06 e0 0f  	li	a2, 254
  10b462: 29 a0        	j	0x10b46c <__truncdfsf2+0x21a>
  10b464: 09 47        	li	a4, 2
  10b466: e3 1b e8 fe  	bne	a6, a4, 0x10b45c <__truncdfsf2+0x20a>
  10b46a: ed d9        	beqz	a1, 0x10b45c <__truncdfsf2+0x20a>
  10b46c: 93 e8 58 00  	ori	a7, a7, 5
  10b470: 41 bf        	j	0x10b400 <__truncdfsf2+0x1ae>

0010b472 <__trunctfdf2>:
  10b472: 79 71        	addi	sp, sp, -48
  10b474: 22 d4        	sw	s0, 40(sp)
  10b476: 06 d6        	sw	ra, 44(sp)
  10b478: 26 d2        	sw	s1, 36(sp)
  10b47a: 4a d0        	sw	s2, 32(sp)
  10b47c: 14 41        	lw	a3, 0(a0)
  10b47e: 58 41        	lw	a4, 4(a0)
  10b480: 1c 45        	lw	a5, 8(a0)
  10b482: 40 45        	lw	s0, 12(a0)
  10b484: f3 24 20 00  	frrm	s1
  10b488: 3e c4        	sw	a5, 8(sp)
  10b48a: 3e cc        	sw	a5, 24(sp)
  10b48c: 93 17 04 01  	slli	a5, s0, 16
  10b490: c1 83        	srli	a5, a5, 16
  10b492: 93 15 14 00  	slli	a1, s0, 1
  10b496: 08 08        	addi	a0, sp, 16
  10b498: 22 c6        	sw	s0, 12(sp)
  10b49a: 3e ce        	sw	a5, 28(sp)
  10b49c: 36 c0        	sw	a3, 0(sp)
  10b49e: 3a c2        	sw	a4, 4(sp)
  10b4a0: 36 c8        	sw	a3, 16(sp)
  10b4a2: 3a ca        	sw	a4, 20(sp)
  10b4a4: 13 de 15 01  	srli	t3, a1, 17
  10b4a8: 7d 80        	srli	s0, s0, 31
  10b4aa: 7c 08        	addi	a5, sp, 28
  10b4ac: 2a 86        	mv	a2, a0
  10b4ae: 94 43        	lw	a3, 0(a5)
  10b4b0: 03 a7 c7 ff  	lw	a4, -4(a5)
  10b4b4: f1 17        	addi	a5, a5, -4
  10b4b6: 8e 06        	slli	a3, a3, 3
  10b4b8: 75 83        	srli	a4, a4, 29
  10b4ba: d9 8e        	or	a3, a3, a4
  10b4bc: d4 c3        	sw	a3, 4(a5)
  10b4be: e3 18 f5 fe  	bne	a0, a5, 0x10b4ae <__trunctfdf2+0x3c>
  10b4c2: c2 47        	lw	a5, 16(sp)
  10b4c4: 21 63        	lui	t1, 8
  10b4c6: 13 07 1e 00  	addi	a4, t3, 1
  10b4ca: 13 98 37 00  	slli	a6, a5, 3
  10b4ce: 93 07 e3 ff  	addi	a5, t1, -2
  10b4d2: 42 c8        	sw	a6, 16(sp)
  10b4d4: 7d 8f        	and	a4, a4, a5
  10b4d6: 63 0d 07 18  	beqz	a4, 0x10b670 <__trunctfdf2+0x1fe>
  10b4da: f1 77        	lui	a5, 1048572
  10b4dc: 93 87 07 40  	addi	a5, a5, 1024
  10b4e0: b3 05 fe 00  	add	a1, t3, a5
  10b4e4: 93 07 e0 7f  	li	a5, 2046
  10b4e8: 63 d0 b7 06  	bge	a5, a1, 0x10b548 <__trunctfdf2+0xd6>
  10b4ec: 63 86 04 24  	beqz	s1, 0x10b738 <__trunctfdf2+0x2c6>
  10b4f0: 8d 47        	li	a5, 3
  10b4f2: 63 9a f4 00  	bne	s1, a5, 0x10b506 <__trunctfdf2+0x94>
  10b4f6: 63 01 04 24  	beqz	s0, 0x10b738 <__trunctfdf2+0x2c6>
  10b4fa: 93 05 e0 7f  	li	a1, 2046
  10b4fe: fd 57        	li	a5, -1
  10b500: 7d 55        	li	a0, -1
  10b502: 01 47        	li	a4, 0
  10b504: 19 a8        	j	0x10b51a <__trunctfdf2+0xa8>
  10b506: 89 47        	li	a5, 2
  10b508: e3 99 f4 fe  	bne	s1, a5, 0x10b4fa <__trunctfdf2+0x88>
  10b50c: 63 16 04 22  	bnez	s0, 0x10b738 <__trunctfdf2+0x2c6>
  10b510: 01 47        	li	a4, 0
  10b512: 93 05 e0 7f  	li	a1, 2046
  10b516: fd 57        	li	a5, -1
  10b518: 7d 55        	li	a0, -1
  10b51a: 15 48        	li	a6, 5
  10b51c: 89 46        	li	a3, 2
  10b51e: 13 68 18 00  	ori	a6, a6, 1
  10b522: 63 83 d4 2a  	beq	s1, a3, 0x10b7c8 <__trunctfdf2+0x356>
  10b526: 8d 46        	li	a3, 3
  10b528: 63 8c d4 28  	beq	s1, a3, 0x10b7c0 <__trunctfdf2+0x34e>
  10b52c: 63 9f 04 28  	bnez	s1, 0x10b7ca <__trunctfdf2+0x358>
  10b530: 93 f6 f7 00  	andi	a3, a5, 15
  10b534: 11 46        	li	a2, 4
  10b536: 63 8a c6 28  	beq	a3, a2, 0x10b7ca <__trunctfdf2+0x358>
  10b53a: 93 86 47 00  	addi	a3, a5, 4
  10b53e: b3 b7 f6 00  	sltu	a5, a3, a5
  10b542: 3e 95        	add	a0, a0, a5
  10b544: b6 87        	mv	a5, a3
  10b546: 51 a4        	j	0x10b7ca <__trunctfdf2+0x358>
  10b548: 63 53 b0 04  	blez	a1, 0x10b58e <__trunctfdf2+0x11c>
  10b54c: 62 46        	lw	a2, 24(sp)
  10b54e: f2 46        	lw	a3, 28(sp)
  10b550: 52 47        	lw	a4, 20(sp)
  10b552: 93 57 c6 01  	srli	a5, a2, 28
  10b556: 92 06        	slli	a3, a3, 4
  10b558: dd 8e        	or	a3, a3, a5
  10b55a: 93 17 47 00  	slli	a5, a4, 4
  10b55e: b3 e7 07 01  	or	a5, a5, a6
  10b562: 71 83        	srli	a4, a4, 28
  10b564: 12 06        	slli	a2, a2, 4
  10b566: b3 37 f0 00  	snez	a5, a5
  10b56a: 51 8f        	or	a4, a4, a2
  10b56c: d9 8f        	or	a5, a5, a4
  10b56e: 36 ca        	sw	a3, 20(sp)
  10b570: 3e c8        	sw	a5, 16(sp)
  10b572: c2 47        	lw	a5, 16(sp)
  10b574: 52 45        	lw	a0, 20(sp)
  10b576: 63 8b 05 10  	beqz	a1, 0x10b68c <__trunctfdf2+0x21a>
  10b57a: 01 47        	li	a4, 0
  10b57c: 01 48        	li	a6, 0
  10b57e: 93 f6 77 00  	andi	a3, a5, 7
  10b582: c9 fe        	bnez	a3, 0x10b51c <__trunctfdf2+0xaa>
  10b584: 63 0f 07 1a  	beqz	a4, 0x10b742 <__trunctfdf2+0x2d0>
  10b588: 13 77 18 00  	andi	a4, a6, 1
  10b58c: 3d ac        	j	0x10b7ca <__trunctfdf2+0x358>
  10b58e: 93 07 c0 fc  	li	a5, -52
  10b592: 63 d7 f5 00  	bge	a1, a5, 0x10b5a0 <__trunctfdf2+0x12e>
  10b596: 02 ca        	sw	zero, 20(sp)
  10b598: 85 47        	li	a5, 1
  10b59a: 3e c8        	sw	a5, 16(sp)
  10b59c: 81 45        	li	a1, 0
  10b59e: d1 bf        	j	0x10b572 <__trunctfdf2+0x100>
  10b5a0: f2 47        	lw	a5, 28(sp)
  10b5a2: 37 07 08 00  	lui	a4, 128
  10b5a6: aa 86        	mv	a3, a0
  10b5a8: b3 68 f7 00  	or	a7, a4, a5
  10b5ac: 93 07 d0 03  	li	a5, 61
  10b5b0: b3 85 b7 40  	sub	a1, a5, a1
  10b5b4: 46 ce        	sw	a7, 28(sp)
  10b5b6: 93 d7 55 40  	srai	a5, a1, 5
  10b5ba: 01 49        	li	s2, 0
  10b5bc: 01 47        	li	a4, 0
  10b5be: 03 a8 06 00  	lw	a6, 0(a3)
  10b5c2: 05 07        	addi	a4, a4, 1
  10b5c4: 91 06        	addi	a3, a3, 4
  10b5c6: 33 69 09 01  	or	s2, s2, a6
  10b5ca: e3 9a e7 fe  	bne	a5, a4, 0x10b5be <__trunctfdf2+0x14c>
  10b5ce: 13 f7 f5 01  	andi	a4, a1, 31
  10b5d2: 93 96 27 00  	slli	a3, a5, 2
  10b5d6: 0d e3        	bnez	a4, 0x10b5f8 <__trunctfdf2+0x186>
  10b5d8: 8d 45        	li	a1, 3
  10b5da: 9d 8d        	sub	a1, a1, a5
  10b5dc: 33 08 d6 00  	add	a6, a2, a3
  10b5e0: 03 28 08 00  	lw	a6, 0(a6)
  10b5e4: 05 07        	addi	a4, a4, 1
  10b5e6: 23 20 06 01  	sw	a6, 0(a2)
  10b5ea: 11 06        	addi	a2, a2, 4
  10b5ec: e3 d8 e5 fe  	bge	a1, a4, 0x10b5dc <__trunctfdf2+0x16a>
  10b5f0: 11 47        	li	a4, 4
  10b5f2: b3 07 f7 40  	sub	a5, a4, a5
  10b5f6: 81 a0        	j	0x10b636 <__trunctfdf2+0x1c4>
  10b5f8: 71 5e        	li	t3, -4
  10b5fa: 33 8e c7 03  	mul	t3, a5, t3
  10b5fe: 10 10        	addi	a2, sp, 32
  10b600: 36 96        	add	a2, a2, a3
  10b602: 03 26 06 ff  	lw	a2, -16(a2)
  10b606: 13 08 00 02  	li	a6, 32
  10b60a: 33 08 e8 40  	sub	a6, a6, a4
  10b60e: 33 16 06 01  	sll	a2, a2, a6
  10b612: 33 69 c9 00  	or	s2, s2, a2
  10b616: 0d 46        	li	a2, 3
  10b618: aa 96        	add	a3, a3, a0
  10b61a: 01 43        	li	t1, 0
  10b61c: 1d 8e        	sub	a2, a2, a5
  10b61e: 63 49 c3 02  	blt	t1, a2, 0x10b650 <__trunctfdf2+0x1de>
  10b622: 91 46        	li	a3, 4
  10b624: b3 87 f6 40  	sub	a5, a3, a5
  10b628: 0a 06        	slli	a2, a2, 2
  10b62a: 14 10        	addi	a3, sp, 32
  10b62c: 36 96        	add	a2, a2, a3
  10b62e: 33 d7 e8 00  	srl	a4, a7, a4
  10b632: 23 28 e6 fe  	sw	a4, -16(a2)
  10b636: 11 46        	li	a2, 4
  10b638: 1d 8e        	sub	a2, a2, a5
  10b63a: 8a 07        	slli	a5, a5, 2
  10b63c: 3e 95        	add	a0, a0, a5
  10b63e: 0a 06        	slli	a2, a2, 2
  10b640: 81 45        	li	a1, 0
  10b642: ef 80 2f e7  	jal	0x103cb4 <memset>
  10b646: 42 47        	lw	a4, 16(sp)
  10b648: b3 37 20 01  	snez	a5, s2
  10b64c: d9 8f        	or	a5, a5, a4
  10b64e: b1 b7        	j	0x10b59a <__trunctfdf2+0x128>
  10b650: 8c 42        	lw	a1, 0(a3)
  10b652: 83 ae 46 00  	lw	t4, 4(a3)
  10b656: 33 8f c6 01  	add	t5, a3, t3
  10b65a: b3 d5 e5 00  	srl	a1, a1, a4
  10b65e: b3 9e 0e 01  	sll	t4, t4, a6
  10b662: b3 e5 d5 01  	or	a1, a1, t4
  10b666: 23 20 bf 00  	sw	a1, 0(t5)
  10b66a: 05 03        	addi	t1, t1, 1
  10b66c: 91 06        	addi	a3, a3, 4
  10b66e: 45 bf        	j	0x10b61e <__trunctfdf2+0x1ac>
  10b670: d2 45        	lw	a1, 20(sp)
  10b672: 62 46        	lw	a2, 24(sp)
  10b674: f2 48        	lw	a7, 28(sp)
  10b676: b3 66 b6 00  	or	a3, a2, a1
  10b67a: b3 e6 16 01  	or	a3, a3, a7
  10b67e: 33 e5 06 01  	or	a0, a3, a6
  10b682: 63 1c 0e 04  	bnez	t3, 0x10b6da <__trunctfdf2+0x268>
  10b686: b3 37 a0 00  	snez	a5, a0
  10b68a: 01 45        	li	a0, 0
  10b68c: 33 67 f5 00  	or	a4, a0, a5
  10b690: 63 03 07 12  	beqz	a4, 0x10b7b6 <__trunctfdf2+0x344>
  10b694: 93 d6 f7 01  	srli	a3, a5, 31
  10b698: 13 17 15 00  	slli	a4, a0, 1
  10b69c: 36 97        	add	a4, a4, a3
  10b69e: 93 96 17 00  	slli	a3, a5, 1
  10b6a2: 13 f6 76 00  	andi	a2, a3, 7
  10b6a6: 01 48        	li	a6, 0
  10b6a8: 1d c2        	beqz	a2, 0x10b6ce <__trunctfdf2+0x25c>
  10b6aa: 09 46        	li	a2, 2
  10b6ac: 63 8d c4 06  	beq	s1, a2, 0x10b726 <__trunctfdf2+0x2b4>
  10b6b0: 0d 46        	li	a2, 3
  10b6b2: 63 81 c4 06  	beq	s1, a2, 0x10b714 <__trunctfdf2+0x2a2>
  10b6b6: 05 48        	li	a6, 1
  10b6b8: 99 e8        	bnez	s1, 0x10b6ce <__trunctfdf2+0x25c>
  10b6ba: 13 f6 f6 00  	andi	a2, a3, 15
  10b6be: 91 45        	li	a1, 4
  10b6c0: 63 07 b6 00  	beq	a2, a1, 0x10b6ce <__trunctfdf2+0x25c>
  10b6c4: 93 b6 c6 ff  	sltiu	a3, a3, -4
  10b6c8: 93 c6 16 00  	xori	a3, a3, 1
  10b6cc: 36 97        	add	a4, a4, a3
  10b6ce: 61 83        	srli	a4, a4, 24
  10b6d0: 13 47 17 00  	xori	a4, a4, 1
  10b6d4: 05 8b        	andi	a4, a4, 1
  10b6d6: 81 45        	li	a1, 0
  10b6d8: 5d b5        	j	0x10b57e <__trunctfdf2+0x10c>
  10b6da: 69 c9        	beqz	a0, 0x10b7ac <__trunctfdf2+0x33a>
  10b6dc: 7d 13        	addi	t1, t1, -1
  10b6de: 01 48        	li	a6, 0
  10b6e0: 63 19 6e 00  	bne	t3, t1, 0x10b6f2 <__trunctfdf2+0x280>
  10b6e4: 37 08 04 00  	lui	a6, 64
  10b6e8: 33 f8 08 01  	and	a6, a7, a6
  10b6ec: 13 38 18 00  	seqz	a6, a6
  10b6f0: 12 08        	slli	a6, a6, 4
  10b6f2: 93 d7 c5 01  	srli	a5, a1, 28
  10b6f6: 92 08        	slli	a7, a7, 4
  10b6f8: 93 15 46 00  	slli	a1, a2, 4
  10b6fc: 71 82        	srli	a2, a2, 28
  10b6fe: cd 8f        	or	a5, a5, a1
  10b700: 33 66 16 01  	or	a2, a2, a7
  10b704: b7 06 40 00  	lui	a3, 1024
  10b708: e1 9b        	andi	a5, a5, -8
  10b70a: 33 65 d6 00  	or	a0, a2, a3
  10b70e: 93 05 f0 7f  	li	a1, 2047
  10b712: b5 b5        	j	0x10b57e <__trunctfdf2+0x10c>
  10b714: 22 88        	mv	a6, s0
  10b716: 45 fc        	bnez	s0, 0x10b6ce <__trunctfdf2+0x25c>
  10b718: 93 b6 86 ff  	sltiu	a3, a3, -8
  10b71c: 93 c6 16 00  	xori	a3, a3, 1
  10b720: 36 97        	add	a4, a4, a3
  10b722: 05 48        	li	a6, 1
  10b724: 6d b7        	j	0x10b6ce <__trunctfdf2+0x25c>
  10b726: 05 48        	li	a6, 1
  10b728: 5d d0        	beqz	s0, 0x10b6ce <__trunctfdf2+0x25c>
  10b72a: 93 b6 86 ff  	sltiu	a3, a3, -8
  10b72e: 93 c6 16 00  	xori	a3, a3, 1
  10b732: 36 97        	add	a4, a4, a3
  10b734: 22 88        	mv	a6, s0
  10b736: 61 bf        	j	0x10b6ce <__trunctfdf2+0x25c>
  10b738: 93 05 f0 7f  	li	a1, 2047
  10b73c: 81 47        	li	a5, 0
  10b73e: 01 45        	li	a0, 0
  10b740: 15 48        	li	a6, 5
  10b742: 37 07 80 00  	lui	a4, 2048
  10b746: 69 8f        	and	a4, a4, a0
  10b748: 11 cb        	beqz	a4, 0x10b75c <__trunctfdf2+0x2ea>
  10b74a: 85 05        	addi	a1, a1, 1
  10b74c: 13 07 f0 7f  	li	a4, 2047
  10b750: 63 81 e5 08  	beq	a1, a4, 0x10b7d2 <__trunctfdf2+0x360>
  10b754: 37 07 80 ff  	lui	a4, 1046528
  10b758: 7d 17        	addi	a4, a4, -1
  10b75a: 79 8d        	and	a0, a0, a4
  10b75c: 13 d7 37 00  	srli	a4, a5, 3
  10b760: 93 17 d5 01  	slli	a5, a0, 29
  10b764: d9 8f        	or	a5, a5, a4
  10b766: 13 07 f0 7f  	li	a4, 2047
  10b76a: 93 56 35 00  	srli	a3, a0, 3
  10b76e: 63 99 e5 00  	bne	a1, a4, 0x10b780 <__trunctfdf2+0x30e>
  10b772: d5 8f        	or	a5, a5, a3
  10b774: 81 46        	li	a3, 0
  10b776: 89 c7        	beqz	a5, 0x10b780 <__trunctfdf2+0x30e>
  10b778: b7 06 08 00  	lui	a3, 128
  10b77c: 81 47        	li	a5, 0
  10b77e: 01 44        	li	s0, 0
  10b780: 37 07 f0 7f  	lui	a4, 524032
  10b784: d2 05        	slli	a1, a1, 20
  10b786: b2 06        	slli	a3, a3, 12
  10b788: f9 8d        	and	a1, a1, a4
  10b78a: b1 82        	srli	a3, a3, 12
  10b78c: cd 8e        	or	a3, a3, a1
  10b78e: 7e 04        	slli	s0, s0, 31
  10b790: 33 e7 86 00  	or	a4, a3, s0
  10b794: 3e 85        	mv	a0, a5
  10b796: ba 85        	mv	a1, a4
  10b798: 63 04 08 00  	beqz	a6, 0x10b7a0 <__trunctfdf2+0x32e>
  10b79c: 73 20 18 00  	csrs	fflags, a6
  10b7a0: b2 50        	lw	ra, 44(sp)
  10b7a2: 22 54        	lw	s0, 40(sp)
  10b7a4: 92 54        	lw	s1, 36(sp)
  10b7a6: 02 59        	lw	s2, 32(sp)
  10b7a8: 45 61        	addi	sp, sp, 48
  10b7aa: 82 80        	ret
  10b7ac: 81 47        	li	a5, 0
  10b7ae: 01 48        	li	a6, 0
  10b7b0: 93 05 f0 7f  	li	a1, 2047
  10b7b4: 79 b7        	j	0x10b742 <__trunctfdf2+0x2d0>
  10b7b6: 81 47        	li	a5, 0
  10b7b8: 01 45        	li	a0, 0
  10b7ba: 81 45        	li	a1, 0
  10b7bc: 01 48        	li	a6, 0
  10b7be: 51 b7        	j	0x10b742 <__trunctfdf2+0x2d0>
  10b7c0: 09 e4        	bnez	s0, 0x10b7ca <__trunctfdf2+0x358>
  10b7c2: 93 86 87 00  	addi	a3, a5, 8
  10b7c6: a5 bb        	j	0x10b53e <__trunctfdf2+0xcc>
  10b7c8: 6d fc        	bnez	s0, 0x10b7c2 <__trunctfdf2+0x350>
  10b7ca: 25 df        	beqz	a4, 0x10b742 <__trunctfdf2+0x2d0>
  10b7cc: 13 68 28 00  	ori	a6, a6, 2
  10b7d0: 8d bf        	j	0x10b742 <__trunctfdf2+0x2d0>
  10b7d2: 81 47        	li	a5, 0
  10b7d4: 89 cc        	beqz	s1, 0x10b7ee <__trunctfdf2+0x37c>
  10b7d6: 0d 47        	li	a4, 3
  10b7d8: 63 97 e4 00  	bne	s1, a4, 0x10b7e6 <__trunctfdf2+0x374>
  10b7dc: 09 c8        	beqz	s0, 0x10b7ee <__trunctfdf2+0x37c>
  10b7de: fd 57        	li	a5, -1
  10b7e0: 93 05 e0 7f  	li	a1, 2046
  10b7e4: 29 a0        	j	0x10b7ee <__trunctfdf2+0x37c>
  10b7e6: 09 47        	li	a4, 2
  10b7e8: e3 9b e4 fe  	bne	s1, a4, 0x10b7de <__trunctfdf2+0x36c>
  10b7ec: 6d d8        	beqz	s0, 0x10b7de <__trunctfdf2+0x36c>
  10b7ee: 13 68 58 00  	ori	a6, a6, 5
  10b7f2: 3e 85        	mv	a0, a5
  10b7f4: a5 b7        	j	0x10b75c <__trunctfdf2+0x2ea>

0010b7f6 <__lshrdi3>:
  10b7f6: 01 ce        	beqz	a2, 0x10b80e <__lshrdi3+0x18>
  10b7f8: 93 07 00 02  	li	a5, 32
  10b7fc: 91 8f        	sub	a5, a5, a2
  10b7fe: 63 49 f0 00  	bgtz	a5, 0x10b810 <__lshrdi3+0x1a>
  10b802: 13 05 06 fe  	addi	a0, a2, -32
  10b806: 01 47        	li	a4, 0
  10b808: 33 d5 a5 00  	srl	a0, a1, a0
  10b80c: ba 85        	mv	a1, a4
  10b80e: 82 80        	ret
  10b810: 33 d7 c5 00  	srl	a4, a1, a2
  10b814: 33 55 c5 00  	srl	a0, a0, a2
  10b818: b3 95 f5 00  	sll	a1, a1, a5
  10b81c: 4d 8d        	or	a0, a0, a1
  10b81e: fd b7        	j	0x10b80c <__lshrdi3+0x16>

0010b820 <__ashldi3>:
  10b820: 01 ce        	beqz	a2, 0x10b838 <__ashldi3+0x18>
  10b822: 93 07 00 02  	li	a5, 32
  10b826: 91 8f        	sub	a5, a5, a2
  10b828: 63 49 f0 00  	bgtz	a5, 0x10b83a <__ashldi3+0x1a>
  10b82c: 93 05 06 fe  	addi	a1, a2, -32
  10b830: 01 47        	li	a4, 0
  10b832: b3 15 b5 00  	sll	a1, a0, a1
  10b836: 3a 85        	mv	a0, a4
  10b838: 82 80        	ret
  10b83a: 33 17 c5 00  	sll	a4, a0, a2
  10b83e: b3 95 c5 00  	sll	a1, a1, a2
  10b842: 33 55 f5 00  	srl	a0, a0, a5
  10b846: c9 8d        	or	a1, a1, a0
  10b848: fd b7        	j	0x10b836 <__ashldi3+0x16>

0010b84a <__clzsi2>:
  10b84a: c1 67        	lui	a5, 16
  10b84c: 63 74 f5 02  	bgeu	a0, a5, 0x10b874 <__clzsi2+0x2a>
  10b850: 93 07 f0 0f  	li	a5, 255
  10b854: b3 b7 a7 00  	sltu	a5, a5, a0
  10b858: 8e 07        	slli	a5, a5, 3
  10b85a: 93 06 00 02  	li	a3, 32
  10b85e: 9d 8e        	sub	a3, a3, a5
  10b860: 33 55 f5 00  	srl	a0, a0, a5
  10b864: 93 87 c1 19  	addi	a5, gp, 412
  10b868: 3e 95        	add	a0, a0, a5
  10b86a: 03 45 05 00  	lbu	a0, 0(a0)
  10b86e: 33 85 a6 40  	sub	a0, a3, a0
  10b872: 82 80        	ret
  10b874: 37 07 00 01  	lui	a4, 4096
  10b878: c1 47        	li	a5, 16
  10b87a: e3 60 e5 fe  	bltu	a0, a4, 0x10b85a <__clzsi2+0x10>
  10b87e: e1 47        	li	a5, 24
  10b880: e9 bf        	j	0x10b85a <__clzsi2+0x10>
